ARM GAS  C:\Users\LOCALA~1\AppData\Local\Temp\cced8gR9.s 			page 1


   1              		.syntax unified
   2              		.cpu cortex-m4
   3              		.eabi_attribute 27, 1
   4              		.fpu fpv4-sp-d16
   5              		.eabi_attribute 20, 1
   6              		.eabi_attribute 21, 1
   7              		.eabi_attribute 23, 3
   8              		.eabi_attribute 24, 1
   9              		.eabi_attribute 25, 1
  10              		.eabi_attribute 26, 1
  11              		.eabi_attribute 30, 6
  12              		.eabi_attribute 34, 1
  13              		.eabi_attribute 18, 4
  14              		.thumb
  15              		.syntax unified
  16              		.file	"AD5273BRJZ1.c"
  17              		.text
  18              	.Ltext0:
  19              		.cfi_sections	.debug_frame
  20              		.section	.text.I2C_MAX30105_MasterSendStart,"ax",%progbits
  21              		.align	2
  22              		.thumb
  23              		.thumb_func
  24              		.type	I2C_MAX30105_MasterSendStart, %function
  25              	I2C_MAX30105_MasterSendStart:
  26              	.LFB527:
  27              		.file 1 "Generated_Source\\PSoC6/I2C_MAX30105.h"
   1:Generated_Source\PSoC6/I2C_MAX30105.h **** /***************************************************************************//**
   2:Generated_Source\PSoC6/I2C_MAX30105.h **** * \file I2C_MAX30105.c
   3:Generated_Source\PSoC6/I2C_MAX30105.h **** * \version 2.0
   4:Generated_Source\PSoC6/I2C_MAX30105.h **** *
   5:Generated_Source\PSoC6/I2C_MAX30105.h **** *  This file provides constants and parameter values for the I2C component.
   6:Generated_Source\PSoC6/I2C_MAX30105.h **** *
   7:Generated_Source\PSoC6/I2C_MAX30105.h **** ********************************************************************************
   8:Generated_Source\PSoC6/I2C_MAX30105.h **** * \copyright
   9:Generated_Source\PSoC6/I2C_MAX30105.h **** * Copyright 2016-2017, Cypress Semiconductor Corporation. All rights reserved.
  10:Generated_Source\PSoC6/I2C_MAX30105.h **** * You may use this file only in accordance with the license, terms, conditions,
  11:Generated_Source\PSoC6/I2C_MAX30105.h **** * disclaimers, and limitations in the end user license agreement accompanying
  12:Generated_Source\PSoC6/I2C_MAX30105.h **** * the software package with which this file was provided.
  13:Generated_Source\PSoC6/I2C_MAX30105.h **** *******************************************************************************/
  14:Generated_Source\PSoC6/I2C_MAX30105.h **** 
  15:Generated_Source\PSoC6/I2C_MAX30105.h **** #if !defined(I2C_MAX30105_CY_SCB_I2C_PDL_H)
  16:Generated_Source\PSoC6/I2C_MAX30105.h **** #define I2C_MAX30105_CY_SCB_I2C_PDL_H
  17:Generated_Source\PSoC6/I2C_MAX30105.h **** 
  18:Generated_Source\PSoC6/I2C_MAX30105.h **** #include "cyfitter.h"
  19:Generated_Source\PSoC6/I2C_MAX30105.h **** #include "scb/cy_scb_i2c.h"
  20:Generated_Source\PSoC6/I2C_MAX30105.h **** 
  21:Generated_Source\PSoC6/I2C_MAX30105.h **** #if defined(__cplusplus)
  22:Generated_Source\PSoC6/I2C_MAX30105.h **** extern "C" {
  23:Generated_Source\PSoC6/I2C_MAX30105.h **** #endif
  24:Generated_Source\PSoC6/I2C_MAX30105.h **** 
  25:Generated_Source\PSoC6/I2C_MAX30105.h **** /***************************************
  26:Generated_Source\PSoC6/I2C_MAX30105.h **** *   Initial Parameter Constants
  27:Generated_Source\PSoC6/I2C_MAX30105.h **** ****************************************/
  28:Generated_Source\PSoC6/I2C_MAX30105.h **** 
  29:Generated_Source\PSoC6/I2C_MAX30105.h **** #define I2C_MAX30105_MODE               (0x2U)
  30:Generated_Source\PSoC6/I2C_MAX30105.h **** #define I2C_MAX30105_MODE_SLAVE_MASK    (0x1U)
ARM GAS  C:\Users\LOCALA~1\AppData\Local\Temp\cced8gR9.s 			page 2


  31:Generated_Source\PSoC6/I2C_MAX30105.h **** #define I2C_MAX30105_MODE_MASTER_MASK   (0x2U)
  32:Generated_Source\PSoC6/I2C_MAX30105.h **** 
  33:Generated_Source\PSoC6/I2C_MAX30105.h **** #define I2C_MAX30105_ENABLE_SLAVE       (0UL != (I2C_MAX30105_MODE & I2C_MAX30105_MODE_SLAVE_MASK))
  34:Generated_Source\PSoC6/I2C_MAX30105.h **** #define I2C_MAX30105_ENABLE_MASTER      (0UL != (I2C_MAX30105_MODE & I2C_MAX30105_MODE_MASTER_MASK)
  35:Generated_Source\PSoC6/I2C_MAX30105.h **** #define I2C_MAX30105_MANUAL_SCL_CONTROL (0U)
  36:Generated_Source\PSoC6/I2C_MAX30105.h **** 
  37:Generated_Source\PSoC6/I2C_MAX30105.h **** 
  38:Generated_Source\PSoC6/I2C_MAX30105.h **** /***************************************
  39:Generated_Source\PSoC6/I2C_MAX30105.h **** *        Function Prototypes
  40:Generated_Source\PSoC6/I2C_MAX30105.h **** ***************************************/
  41:Generated_Source\PSoC6/I2C_MAX30105.h **** /**
  42:Generated_Source\PSoC6/I2C_MAX30105.h **** * \addtogroup group_general
  43:Generated_Source\PSoC6/I2C_MAX30105.h **** * @{
  44:Generated_Source\PSoC6/I2C_MAX30105.h **** */
  45:Generated_Source\PSoC6/I2C_MAX30105.h **** /* Component only APIs. */
  46:Generated_Source\PSoC6/I2C_MAX30105.h **** void I2C_MAX30105_Start(void);
  47:Generated_Source\PSoC6/I2C_MAX30105.h **** 
  48:Generated_Source\PSoC6/I2C_MAX30105.h **** /* Basic functions. */
  49:Generated_Source\PSoC6/I2C_MAX30105.h **** __STATIC_INLINE cy_en_scb_i2c_status_t I2C_MAX30105_Init(cy_stc_scb_i2c_config_t const *config);
  50:Generated_Source\PSoC6/I2C_MAX30105.h **** __STATIC_INLINE void I2C_MAX30105_DeInit (void);
  51:Generated_Source\PSoC6/I2C_MAX30105.h **** __STATIC_INLINE void I2C_MAX30105_Enable (void);
  52:Generated_Source\PSoC6/I2C_MAX30105.h **** __STATIC_INLINE void I2C_MAX30105_Disable(void);
  53:Generated_Source\PSoC6/I2C_MAX30105.h **** 
  54:Generated_Source\PSoC6/I2C_MAX30105.h **** /* Data rate configuration functions. */
  55:Generated_Source\PSoC6/I2C_MAX30105.h **** __STATIC_INLINE uint32_t I2C_MAX30105_SetDataRate(uint32_t dataRateHz, uint32_t scbClockHz);
  56:Generated_Source\PSoC6/I2C_MAX30105.h **** __STATIC_INLINE uint32_t I2C_MAX30105_GetDataRate(uint32_t scbClockHz);
  57:Generated_Source\PSoC6/I2C_MAX30105.h **** 
  58:Generated_Source\PSoC6/I2C_MAX30105.h **** /* Register callbacks. */
  59:Generated_Source\PSoC6/I2C_MAX30105.h **** __STATIC_INLINE void I2C_MAX30105_RegisterEventCallback(cy_cb_scb_i2c_handle_events_t callback);
  60:Generated_Source\PSoC6/I2C_MAX30105.h **** #if (I2C_MAX30105_ENABLE_SLAVE)
  61:Generated_Source\PSoC6/I2C_MAX30105.h **** __STATIC_INLINE void I2C_MAX30105_RegisterAddrCallback (cy_cb_scb_i2c_handle_addr_t callback);
  62:Generated_Source\PSoC6/I2C_MAX30105.h **** #endif /* (I2C_MAX30105_ENABLE_SLAVE) */
  63:Generated_Source\PSoC6/I2C_MAX30105.h **** 
  64:Generated_Source\PSoC6/I2C_MAX30105.h **** /* Configuration functions. */
  65:Generated_Source\PSoC6/I2C_MAX30105.h **** #if (I2C_MAX30105_ENABLE_SLAVE)
  66:Generated_Source\PSoC6/I2C_MAX30105.h **** __STATIC_INLINE void     I2C_MAX30105_SlaveSetAddress(uint8_t addr);
  67:Generated_Source\PSoC6/I2C_MAX30105.h **** __STATIC_INLINE uint32_t I2C_MAX30105_SlaveGetAddress(void);
  68:Generated_Source\PSoC6/I2C_MAX30105.h **** __STATIC_INLINE void     I2C_MAX30105_SlaveSetAddressMask(uint8_t addrMask);
  69:Generated_Source\PSoC6/I2C_MAX30105.h **** __STATIC_INLINE uint32_t I2C_MAX30105_SlaveGetAddressMask(void);
  70:Generated_Source\PSoC6/I2C_MAX30105.h **** #endif /* (I2C_MAX30105_ENABLE_SLAVE) */
  71:Generated_Source\PSoC6/I2C_MAX30105.h **** 
  72:Generated_Source\PSoC6/I2C_MAX30105.h **** #if (I2C_MAX30105_ENABLE_MASTER)
  73:Generated_Source\PSoC6/I2C_MAX30105.h **** __STATIC_INLINE void I2C_MAX30105_MasterSetLowPhaseDutyCycle (uint32_t clockCycles);
  74:Generated_Source\PSoC6/I2C_MAX30105.h **** __STATIC_INLINE void I2C_MAX30105_MasterSetHighPhaseDutyCycle(uint32_t clockCycles);
  75:Generated_Source\PSoC6/I2C_MAX30105.h **** #endif /* (I2C_MAX30105_ENABLE_MASTER) */
  76:Generated_Source\PSoC6/I2C_MAX30105.h **** 
  77:Generated_Source\PSoC6/I2C_MAX30105.h **** /* Bus status. */
  78:Generated_Source\PSoC6/I2C_MAX30105.h **** __STATIC_INLINE bool     I2C_MAX30105_IsBusBusy(void);
  79:Generated_Source\PSoC6/I2C_MAX30105.h **** 
  80:Generated_Source\PSoC6/I2C_MAX30105.h **** /* Slave functions. */
  81:Generated_Source\PSoC6/I2C_MAX30105.h **** #if (I2C_MAX30105_ENABLE_SLAVE)
  82:Generated_Source\PSoC6/I2C_MAX30105.h **** __STATIC_INLINE uint32_t I2C_MAX30105_SlaveGetStatus(void);
  83:Generated_Source\PSoC6/I2C_MAX30105.h **** 
  84:Generated_Source\PSoC6/I2C_MAX30105.h **** __STATIC_INLINE void     I2C_MAX30105_SlaveConfigReadBuf(uint8_t *buffer, uint32_t size);
  85:Generated_Source\PSoC6/I2C_MAX30105.h **** __STATIC_INLINE void     I2C_MAX30105_SlaveAbortRead(void);
  86:Generated_Source\PSoC6/I2C_MAX30105.h **** __STATIC_INLINE uint32_t I2C_MAX30105_SlaveGetReadTransferCount(void);
  87:Generated_Source\PSoC6/I2C_MAX30105.h **** __STATIC_INLINE uint32_t I2C_MAX30105_SlaveClearReadStatus(void);
ARM GAS  C:\Users\LOCALA~1\AppData\Local\Temp\cced8gR9.s 			page 3


  88:Generated_Source\PSoC6/I2C_MAX30105.h **** 
  89:Generated_Source\PSoC6/I2C_MAX30105.h **** __STATIC_INLINE void     I2C_MAX30105_SlaveConfigWriteBuf(uint8_t *buffer, uint32_t size);
  90:Generated_Source\PSoC6/I2C_MAX30105.h **** __STATIC_INLINE void     I2C_MAX30105_SlaveAbortWrite(void);
  91:Generated_Source\PSoC6/I2C_MAX30105.h **** __STATIC_INLINE uint32_t I2C_MAX30105_SlaveGetWriteTransferCount(void);
  92:Generated_Source\PSoC6/I2C_MAX30105.h **** __STATIC_INLINE uint32_t I2C_MAX30105_SlaveClearWriteStatus(void);
  93:Generated_Source\PSoC6/I2C_MAX30105.h **** #endif /* (I2C_MAX30105_ENABLE_SLAVE) */
  94:Generated_Source\PSoC6/I2C_MAX30105.h **** 
  95:Generated_Source\PSoC6/I2C_MAX30105.h **** /* Master interrupt processing functions. */
  96:Generated_Source\PSoC6/I2C_MAX30105.h **** #if (I2C_MAX30105_ENABLE_MASTER)
  97:Generated_Source\PSoC6/I2C_MAX30105.h **** __STATIC_INLINE uint32_t I2C_MAX30105_MasterGetStatus(void);
  98:Generated_Source\PSoC6/I2C_MAX30105.h **** 
  99:Generated_Source\PSoC6/I2C_MAX30105.h **** __STATIC_INLINE cy_en_scb_i2c_status_t I2C_MAX30105_MasterRead(cy_stc_scb_i2c_master_xfer_config_t 
 100:Generated_Source\PSoC6/I2C_MAX30105.h **** __STATIC_INLINE void I2C_MAX30105_MasterAbortRead(void);
 101:Generated_Source\PSoC6/I2C_MAX30105.h **** __STATIC_INLINE cy_en_scb_i2c_status_t I2C_MAX30105_MasterWrite(cy_stc_scb_i2c_master_xfer_config_t
 102:Generated_Source\PSoC6/I2C_MAX30105.h **** __STATIC_INLINE void I2C_MAX30105_MasterAbortWrite(void);
 103:Generated_Source\PSoC6/I2C_MAX30105.h **** __STATIC_INLINE uint32_t I2C_MAX30105_MasterGetTransferCount(void);
 104:Generated_Source\PSoC6/I2C_MAX30105.h **** 
 105:Generated_Source\PSoC6/I2C_MAX30105.h **** /* Master manual processing functions. */
 106:Generated_Source\PSoC6/I2C_MAX30105.h **** __STATIC_INLINE cy_en_scb_i2c_status_t I2C_MAX30105_MasterSendStart(uint32_t address, cy_en_scb_i2c
 107:Generated_Source\PSoC6/I2C_MAX30105.h **** __STATIC_INLINE cy_en_scb_i2c_status_t I2C_MAX30105_MasterSendReStart(uint32_t address, cy_en_scb_i
 108:Generated_Source\PSoC6/I2C_MAX30105.h **** __STATIC_INLINE cy_en_scb_i2c_status_t I2C_MAX30105_MasterSendStop(uint32_t timeoutMs);
 109:Generated_Source\PSoC6/I2C_MAX30105.h **** __STATIC_INLINE cy_en_scb_i2c_status_t I2C_MAX30105_MasterReadByte(cy_en_scb_i2c_command_t ackNack,
 110:Generated_Source\PSoC6/I2C_MAX30105.h **** __STATIC_INLINE cy_en_scb_i2c_status_t I2C_MAX30105_MasterWriteByte(uint8_t byte, uint32_t timeoutM
 111:Generated_Source\PSoC6/I2C_MAX30105.h **** #endif /* (I2C_MAX30105_ENABLE_MASTER) */
 112:Generated_Source\PSoC6/I2C_MAX30105.h **** 
 113:Generated_Source\PSoC6/I2C_MAX30105.h **** /* Interrupt handler. */
 114:Generated_Source\PSoC6/I2C_MAX30105.h **** __STATIC_INLINE void I2C_MAX30105_Interrupt(void);
 115:Generated_Source\PSoC6/I2C_MAX30105.h **** /** @} group_general */
 116:Generated_Source\PSoC6/I2C_MAX30105.h **** 
 117:Generated_Source\PSoC6/I2C_MAX30105.h **** 
 118:Generated_Source\PSoC6/I2C_MAX30105.h **** /***************************************
 119:Generated_Source\PSoC6/I2C_MAX30105.h **** *    Variables with External Linkage
 120:Generated_Source\PSoC6/I2C_MAX30105.h **** ***************************************/
 121:Generated_Source\PSoC6/I2C_MAX30105.h **** /**
 122:Generated_Source\PSoC6/I2C_MAX30105.h **** * \addtogroup group_globals
 123:Generated_Source\PSoC6/I2C_MAX30105.h **** * @{
 124:Generated_Source\PSoC6/I2C_MAX30105.h **** */
 125:Generated_Source\PSoC6/I2C_MAX30105.h **** extern uint8_t I2C_MAX30105_initVar;
 126:Generated_Source\PSoC6/I2C_MAX30105.h **** extern cy_stc_scb_i2c_config_t const I2C_MAX30105_config;
 127:Generated_Source\PSoC6/I2C_MAX30105.h **** extern cy_stc_scb_i2c_context_t I2C_MAX30105_context;
 128:Generated_Source\PSoC6/I2C_MAX30105.h **** /** @} group_globals */
 129:Generated_Source\PSoC6/I2C_MAX30105.h **** 
 130:Generated_Source\PSoC6/I2C_MAX30105.h **** 
 131:Generated_Source\PSoC6/I2C_MAX30105.h **** /***************************************
 132:Generated_Source\PSoC6/I2C_MAX30105.h **** *         Preprocessor Macros
 133:Generated_Source\PSoC6/I2C_MAX30105.h **** ***************************************/
 134:Generated_Source\PSoC6/I2C_MAX30105.h **** /**
 135:Generated_Source\PSoC6/I2C_MAX30105.h **** * \addtogroup group_macros
 136:Generated_Source\PSoC6/I2C_MAX30105.h **** * @{
 137:Generated_Source\PSoC6/I2C_MAX30105.h **** */
 138:Generated_Source\PSoC6/I2C_MAX30105.h **** /** The pointer to the base address of the SCB instance */
 139:Generated_Source\PSoC6/I2C_MAX30105.h **** #define I2C_MAX30105_HW     ((CySCB_Type *) I2C_MAX30105_SCB__HW)
 140:Generated_Source\PSoC6/I2C_MAX30105.h **** 
 141:Generated_Source\PSoC6/I2C_MAX30105.h **** /** The desired data rate in Hz */
 142:Generated_Source\PSoC6/I2C_MAX30105.h **** #define I2C_MAX30105_DATA_RATE_HZ      (100000U)
 143:Generated_Source\PSoC6/I2C_MAX30105.h **** 
 144:Generated_Source\PSoC6/I2C_MAX30105.h **** /** The frequency of the clock used by the Component in Hz */
ARM GAS  C:\Users\LOCALA~1\AppData\Local\Temp\cced8gR9.s 			page 4


 145:Generated_Source\PSoC6/I2C_MAX30105.h **** #define I2C_MAX30105_CLK_FREQ_HZ       (1562500U)
 146:Generated_Source\PSoC6/I2C_MAX30105.h **** 
 147:Generated_Source\PSoC6/I2C_MAX30105.h **** /** The number of Component clocks used by the master to generate the SCL
 148:Generated_Source\PSoC6/I2C_MAX30105.h **** * low phase. This number is calculated by GUI based on the selected data rate.
 149:Generated_Source\PSoC6/I2C_MAX30105.h **** */
 150:Generated_Source\PSoC6/I2C_MAX30105.h **** #define I2C_MAX30105_LOW_PHASE_DUTY_CYCLE   (8U)
 151:Generated_Source\PSoC6/I2C_MAX30105.h **** 
 152:Generated_Source\PSoC6/I2C_MAX30105.h **** /** The number of Component clocks used by the master to generate the SCL
 153:Generated_Source\PSoC6/I2C_MAX30105.h **** * high phase. This number is calculated by GUI based on the selected data rate.
 154:Generated_Source\PSoC6/I2C_MAX30105.h **** */
 155:Generated_Source\PSoC6/I2C_MAX30105.h **** #define I2C_MAX30105_HIGH_PHASE_DUTY_CYCLE  (8U)
 156:Generated_Source\PSoC6/I2C_MAX30105.h **** /** @} group_macros */
 157:Generated_Source\PSoC6/I2C_MAX30105.h **** 
 158:Generated_Source\PSoC6/I2C_MAX30105.h **** 
 159:Generated_Source\PSoC6/I2C_MAX30105.h **** /***************************************
 160:Generated_Source\PSoC6/I2C_MAX30105.h **** *    In-line Function Implementation
 161:Generated_Source\PSoC6/I2C_MAX30105.h **** ***************************************/
 162:Generated_Source\PSoC6/I2C_MAX30105.h **** 
 163:Generated_Source\PSoC6/I2C_MAX30105.h **** /*******************************************************************************
 164:Generated_Source\PSoC6/I2C_MAX30105.h **** * Function Name: I2C_MAX30105_Init
 165:Generated_Source\PSoC6/I2C_MAX30105.h **** ****************************************************************************//**
 166:Generated_Source\PSoC6/I2C_MAX30105.h **** *
 167:Generated_Source\PSoC6/I2C_MAX30105.h **** * Invokes the Cy_SCB_I2C_Init() PDL driver function.
 168:Generated_Source\PSoC6/I2C_MAX30105.h **** *
 169:Generated_Source\PSoC6/I2C_MAX30105.h **** *******************************************************************************/
 170:Generated_Source\PSoC6/I2C_MAX30105.h **** __STATIC_INLINE cy_en_scb_i2c_status_t I2C_MAX30105_Init(cy_stc_scb_i2c_config_t const *config)
 171:Generated_Source\PSoC6/I2C_MAX30105.h **** {
 172:Generated_Source\PSoC6/I2C_MAX30105.h ****     return Cy_SCB_I2C_Init(I2C_MAX30105_HW, config, &I2C_MAX30105_context);
 173:Generated_Source\PSoC6/I2C_MAX30105.h **** }
 174:Generated_Source\PSoC6/I2C_MAX30105.h **** 
 175:Generated_Source\PSoC6/I2C_MAX30105.h **** 
 176:Generated_Source\PSoC6/I2C_MAX30105.h **** /*******************************************************************************
 177:Generated_Source\PSoC6/I2C_MAX30105.h **** *  Function Name: I2C_MAX30105_DeInit
 178:Generated_Source\PSoC6/I2C_MAX30105.h **** ****************************************************************************//**
 179:Generated_Source\PSoC6/I2C_MAX30105.h **** *
 180:Generated_Source\PSoC6/I2C_MAX30105.h **** * Invokes the Cy_SCB_I2C_DeInit() PDL driver function.
 181:Generated_Source\PSoC6/I2C_MAX30105.h **** *
 182:Generated_Source\PSoC6/I2C_MAX30105.h **** *******************************************************************************/
 183:Generated_Source\PSoC6/I2C_MAX30105.h **** __STATIC_INLINE void I2C_MAX30105_DeInit(void)
 184:Generated_Source\PSoC6/I2C_MAX30105.h **** {
 185:Generated_Source\PSoC6/I2C_MAX30105.h ****     Cy_SCB_I2C_DeInit(I2C_MAX30105_HW);
 186:Generated_Source\PSoC6/I2C_MAX30105.h **** }
 187:Generated_Source\PSoC6/I2C_MAX30105.h **** 
 188:Generated_Source\PSoC6/I2C_MAX30105.h **** 
 189:Generated_Source\PSoC6/I2C_MAX30105.h **** /*******************************************************************************
 190:Generated_Source\PSoC6/I2C_MAX30105.h **** * Function Name: I2C_MAX30105_Enable
 191:Generated_Source\PSoC6/I2C_MAX30105.h **** ****************************************************************************//**
 192:Generated_Source\PSoC6/I2C_MAX30105.h **** *
 193:Generated_Source\PSoC6/I2C_MAX30105.h **** * Invokes the Cy_SCB_I2C_Enable() PDL driver function.
 194:Generated_Source\PSoC6/I2C_MAX30105.h **** *
 195:Generated_Source\PSoC6/I2C_MAX30105.h **** *******************************************************************************/
 196:Generated_Source\PSoC6/I2C_MAX30105.h **** __STATIC_INLINE void I2C_MAX30105_Enable(void)
 197:Generated_Source\PSoC6/I2C_MAX30105.h **** {
 198:Generated_Source\PSoC6/I2C_MAX30105.h ****     Cy_SCB_I2C_Enable(I2C_MAX30105_HW);
 199:Generated_Source\PSoC6/I2C_MAX30105.h **** }
 200:Generated_Source\PSoC6/I2C_MAX30105.h **** 
 201:Generated_Source\PSoC6/I2C_MAX30105.h **** 
ARM GAS  C:\Users\LOCALA~1\AppData\Local\Temp\cced8gR9.s 			page 5


 202:Generated_Source\PSoC6/I2C_MAX30105.h **** /*******************************************************************************
 203:Generated_Source\PSoC6/I2C_MAX30105.h **** * Function Name: I2C_MAX30105_Disable
 204:Generated_Source\PSoC6/I2C_MAX30105.h **** ****************************************************************************//**
 205:Generated_Source\PSoC6/I2C_MAX30105.h **** *
 206:Generated_Source\PSoC6/I2C_MAX30105.h **** * Invokes the Cy_SCB_I2C_Disable() PDL driver function.
 207:Generated_Source\PSoC6/I2C_MAX30105.h **** *
 208:Generated_Source\PSoC6/I2C_MAX30105.h **** *******************************************************************************/
 209:Generated_Source\PSoC6/I2C_MAX30105.h **** __STATIC_INLINE void I2C_MAX30105_Disable(void)
 210:Generated_Source\PSoC6/I2C_MAX30105.h **** {
 211:Generated_Source\PSoC6/I2C_MAX30105.h ****     Cy_SCB_I2C_Disable(I2C_MAX30105_HW, &I2C_MAX30105_context);
 212:Generated_Source\PSoC6/I2C_MAX30105.h **** }
 213:Generated_Source\PSoC6/I2C_MAX30105.h **** 
 214:Generated_Source\PSoC6/I2C_MAX30105.h **** 
 215:Generated_Source\PSoC6/I2C_MAX30105.h **** /*******************************************************************************
 216:Generated_Source\PSoC6/I2C_MAX30105.h **** * Function Name: I2C_MAX30105_SetDataRate
 217:Generated_Source\PSoC6/I2C_MAX30105.h **** ****************************************************************************//**
 218:Generated_Source\PSoC6/I2C_MAX30105.h **** *
 219:Generated_Source\PSoC6/I2C_MAX30105.h **** * Invokes the Cy_SCB_I2C_SetDataRate() PDL driver function.
 220:Generated_Source\PSoC6/I2C_MAX30105.h **** *
 221:Generated_Source\PSoC6/I2C_MAX30105.h **** *******************************************************************************/
 222:Generated_Source\PSoC6/I2C_MAX30105.h **** __STATIC_INLINE uint32_t I2C_MAX30105_SetDataRate(uint32_t dataRateHz, uint32_t scbClockHz)
 223:Generated_Source\PSoC6/I2C_MAX30105.h **** {
 224:Generated_Source\PSoC6/I2C_MAX30105.h ****     return Cy_SCB_I2C_SetDataRate(I2C_MAX30105_HW, dataRateHz, scbClockHz);
 225:Generated_Source\PSoC6/I2C_MAX30105.h **** }
 226:Generated_Source\PSoC6/I2C_MAX30105.h **** 
 227:Generated_Source\PSoC6/I2C_MAX30105.h **** 
 228:Generated_Source\PSoC6/I2C_MAX30105.h **** /*******************************************************************************
 229:Generated_Source\PSoC6/I2C_MAX30105.h **** * Function Name: I2C_MAX30105_GetDataRate
 230:Generated_Source\PSoC6/I2C_MAX30105.h **** ****************************************************************************//**
 231:Generated_Source\PSoC6/I2C_MAX30105.h **** *
 232:Generated_Source\PSoC6/I2C_MAX30105.h **** * Invokes the Cy_SCB_I2C_GetDataRate() PDL driver function.
 233:Generated_Source\PSoC6/I2C_MAX30105.h **** *
 234:Generated_Source\PSoC6/I2C_MAX30105.h **** *******************************************************************************/
 235:Generated_Source\PSoC6/I2C_MAX30105.h **** __STATIC_INLINE uint32_t I2C_MAX30105_GetDataRate(uint32_t scbClockHz)
 236:Generated_Source\PSoC6/I2C_MAX30105.h **** {
 237:Generated_Source\PSoC6/I2C_MAX30105.h ****     return Cy_SCB_I2C_GetDataRate(I2C_MAX30105_HW, scbClockHz);
 238:Generated_Source\PSoC6/I2C_MAX30105.h **** }
 239:Generated_Source\PSoC6/I2C_MAX30105.h **** 
 240:Generated_Source\PSoC6/I2C_MAX30105.h **** 
 241:Generated_Source\PSoC6/I2C_MAX30105.h **** /*******************************************************************************
 242:Generated_Source\PSoC6/I2C_MAX30105.h **** * Function Name: I2C_MAX30105_RegisterEventCallback
 243:Generated_Source\PSoC6/I2C_MAX30105.h **** ****************************************************************************//**
 244:Generated_Source\PSoC6/I2C_MAX30105.h **** *
 245:Generated_Source\PSoC6/I2C_MAX30105.h **** * Invokes the Cy_SCB_I2C_RegisterEventCallback() PDL driver function.
 246:Generated_Source\PSoC6/I2C_MAX30105.h **** *
 247:Generated_Source\PSoC6/I2C_MAX30105.h **** *******************************************************************************/
 248:Generated_Source\PSoC6/I2C_MAX30105.h **** __STATIC_INLINE void I2C_MAX30105_RegisterEventCallback(cy_cb_scb_i2c_handle_events_t callback)
 249:Generated_Source\PSoC6/I2C_MAX30105.h **** {
 250:Generated_Source\PSoC6/I2C_MAX30105.h ****     Cy_SCB_I2C_RegisterEventCallback(I2C_MAX30105_HW, callback, &I2C_MAX30105_context);
 251:Generated_Source\PSoC6/I2C_MAX30105.h **** }
 252:Generated_Source\PSoC6/I2C_MAX30105.h **** 
 253:Generated_Source\PSoC6/I2C_MAX30105.h **** 
 254:Generated_Source\PSoC6/I2C_MAX30105.h **** #if (I2C_MAX30105_ENABLE_SLAVE)
 255:Generated_Source\PSoC6/I2C_MAX30105.h **** /*******************************************************************************
 256:Generated_Source\PSoC6/I2C_MAX30105.h **** * Function Name: I2C_MAX30105_RegisterAddrCallback
 257:Generated_Source\PSoC6/I2C_MAX30105.h **** ****************************************************************************//**
 258:Generated_Source\PSoC6/I2C_MAX30105.h **** *
ARM GAS  C:\Users\LOCALA~1\AppData\Local\Temp\cced8gR9.s 			page 6


 259:Generated_Source\PSoC6/I2C_MAX30105.h **** * Invokes the Cy_SCB_I2C_RegisterAddrCallback() PDL driver function.
 260:Generated_Source\PSoC6/I2C_MAX30105.h **** *
 261:Generated_Source\PSoC6/I2C_MAX30105.h **** *******************************************************************************/
 262:Generated_Source\PSoC6/I2C_MAX30105.h **** __STATIC_INLINE void I2C_MAX30105_RegisterAddrCallback(cy_cb_scb_i2c_handle_addr_t callback)
 263:Generated_Source\PSoC6/I2C_MAX30105.h **** {
 264:Generated_Source\PSoC6/I2C_MAX30105.h ****     Cy_SCB_I2C_RegisterAddrCallback(I2C_MAX30105_HW, callback, &I2C_MAX30105_context);
 265:Generated_Source\PSoC6/I2C_MAX30105.h **** }
 266:Generated_Source\PSoC6/I2C_MAX30105.h **** #endif /* (I2C_MAX30105_ENABLE_SLAVE) */
 267:Generated_Source\PSoC6/I2C_MAX30105.h **** 
 268:Generated_Source\PSoC6/I2C_MAX30105.h **** 
 269:Generated_Source\PSoC6/I2C_MAX30105.h **** /*******************************************************************************
 270:Generated_Source\PSoC6/I2C_MAX30105.h **** * Function Name: I2C_MAX30105_IsBusBusy
 271:Generated_Source\PSoC6/I2C_MAX30105.h **** ****************************************************************************//**
 272:Generated_Source\PSoC6/I2C_MAX30105.h **** *
 273:Generated_Source\PSoC6/I2C_MAX30105.h **** * Invokes the Cy_SCB_I2C_IsBusBusy() PDL driver function.
 274:Generated_Source\PSoC6/I2C_MAX30105.h **** *
 275:Generated_Source\PSoC6/I2C_MAX30105.h **** *******************************************************************************/
 276:Generated_Source\PSoC6/I2C_MAX30105.h **** __STATIC_INLINE bool I2C_MAX30105_IsBusBusy(void)
 277:Generated_Source\PSoC6/I2C_MAX30105.h **** {
 278:Generated_Source\PSoC6/I2C_MAX30105.h ****     return Cy_SCB_I2C_IsBusBusy(I2C_MAX30105_HW);
 279:Generated_Source\PSoC6/I2C_MAX30105.h **** }
 280:Generated_Source\PSoC6/I2C_MAX30105.h **** 
 281:Generated_Source\PSoC6/I2C_MAX30105.h **** 
 282:Generated_Source\PSoC6/I2C_MAX30105.h **** #if (I2C_MAX30105_ENABLE_SLAVE)
 283:Generated_Source\PSoC6/I2C_MAX30105.h **** /*******************************************************************************
 284:Generated_Source\PSoC6/I2C_MAX30105.h **** * Function Name: I2C_MAX30105_SlaveSetAddress
 285:Generated_Source\PSoC6/I2C_MAX30105.h **** ****************************************************************************//**
 286:Generated_Source\PSoC6/I2C_MAX30105.h **** *
 287:Generated_Source\PSoC6/I2C_MAX30105.h **** * Invokes the Cy_SCB_I2C_SlaveGetAddress() PDL driver function.
 288:Generated_Source\PSoC6/I2C_MAX30105.h **** *
 289:Generated_Source\PSoC6/I2C_MAX30105.h **** *******************************************************************************/
 290:Generated_Source\PSoC6/I2C_MAX30105.h **** __STATIC_INLINE void I2C_MAX30105_SlaveSetAddress(uint8_t addr)
 291:Generated_Source\PSoC6/I2C_MAX30105.h **** {
 292:Generated_Source\PSoC6/I2C_MAX30105.h ****     Cy_SCB_I2C_SlaveSetAddress(I2C_MAX30105_HW, addr);
 293:Generated_Source\PSoC6/I2C_MAX30105.h **** }
 294:Generated_Source\PSoC6/I2C_MAX30105.h **** 
 295:Generated_Source\PSoC6/I2C_MAX30105.h **** 
 296:Generated_Source\PSoC6/I2C_MAX30105.h **** /*******************************************************************************
 297:Generated_Source\PSoC6/I2C_MAX30105.h **** * Function Name: I2C_MAX30105_SlaveGetAddress
 298:Generated_Source\PSoC6/I2C_MAX30105.h **** ****************************************************************************//**
 299:Generated_Source\PSoC6/I2C_MAX30105.h **** *
 300:Generated_Source\PSoC6/I2C_MAX30105.h **** * Invokes the Cy_SCB_I2C_SlaveGetAddress() PDL driver function.
 301:Generated_Source\PSoC6/I2C_MAX30105.h **** *
 302:Generated_Source\PSoC6/I2C_MAX30105.h **** *******************************************************************************/
 303:Generated_Source\PSoC6/I2C_MAX30105.h **** __STATIC_INLINE uint32_t I2C_MAX30105_SlaveGetAddress(void)
 304:Generated_Source\PSoC6/I2C_MAX30105.h **** {
 305:Generated_Source\PSoC6/I2C_MAX30105.h ****     return Cy_SCB_I2C_SlaveGetAddress(I2C_MAX30105_HW);
 306:Generated_Source\PSoC6/I2C_MAX30105.h **** }
 307:Generated_Source\PSoC6/I2C_MAX30105.h **** 
 308:Generated_Source\PSoC6/I2C_MAX30105.h **** 
 309:Generated_Source\PSoC6/I2C_MAX30105.h **** /*******************************************************************************
 310:Generated_Source\PSoC6/I2C_MAX30105.h **** * Function Name: I2C_MAX30105_SlaveSetAddressMask
 311:Generated_Source\PSoC6/I2C_MAX30105.h **** ****************************************************************************//**
 312:Generated_Source\PSoC6/I2C_MAX30105.h **** *
 313:Generated_Source\PSoC6/I2C_MAX30105.h **** * Invokes the Cy_SCB_I2C_SlaveSetAddressMask() PDL driver function.
 314:Generated_Source\PSoC6/I2C_MAX30105.h **** *
 315:Generated_Source\PSoC6/I2C_MAX30105.h **** *******************************************************************************/
ARM GAS  C:\Users\LOCALA~1\AppData\Local\Temp\cced8gR9.s 			page 7


 316:Generated_Source\PSoC6/I2C_MAX30105.h **** __STATIC_INLINE void I2C_MAX30105_SlaveSetAddressMask(uint8_t addrMask)
 317:Generated_Source\PSoC6/I2C_MAX30105.h **** {
 318:Generated_Source\PSoC6/I2C_MAX30105.h ****     Cy_SCB_I2C_SlaveSetAddressMask(I2C_MAX30105_HW, addrMask);
 319:Generated_Source\PSoC6/I2C_MAX30105.h **** }
 320:Generated_Source\PSoC6/I2C_MAX30105.h **** 
 321:Generated_Source\PSoC6/I2C_MAX30105.h **** 
 322:Generated_Source\PSoC6/I2C_MAX30105.h **** /*******************************************************************************
 323:Generated_Source\PSoC6/I2C_MAX30105.h **** * Function Name: I2C_MAX30105_SlaveGetAddressMask
 324:Generated_Source\PSoC6/I2C_MAX30105.h **** ****************************************************************************//**
 325:Generated_Source\PSoC6/I2C_MAX30105.h **** *
 326:Generated_Source\PSoC6/I2C_MAX30105.h **** * Invokes the Cy_SCB_I2C_SlaveGetAddressMask() PDL driver function.
 327:Generated_Source\PSoC6/I2C_MAX30105.h **** *
 328:Generated_Source\PSoC6/I2C_MAX30105.h **** *******************************************************************************/
 329:Generated_Source\PSoC6/I2C_MAX30105.h **** __STATIC_INLINE uint32_t I2C_MAX30105_SlaveGetAddressMask(void)
 330:Generated_Source\PSoC6/I2C_MAX30105.h **** {
 331:Generated_Source\PSoC6/I2C_MAX30105.h ****     return Cy_SCB_I2C_SlaveGetAddressMask(I2C_MAX30105_HW);
 332:Generated_Source\PSoC6/I2C_MAX30105.h **** }
 333:Generated_Source\PSoC6/I2C_MAX30105.h **** #endif /* (I2C_MAX30105_ENABLE_SLAVE) */
 334:Generated_Source\PSoC6/I2C_MAX30105.h **** 
 335:Generated_Source\PSoC6/I2C_MAX30105.h **** #if (I2C_MAX30105_ENABLE_MASTER)
 336:Generated_Source\PSoC6/I2C_MAX30105.h **** /*******************************************************************************
 337:Generated_Source\PSoC6/I2C_MAX30105.h **** * Function Name: I2C_MAX30105_MasterSetLowPhaseDutyCycle
 338:Generated_Source\PSoC6/I2C_MAX30105.h **** ****************************************************************************//**
 339:Generated_Source\PSoC6/I2C_MAX30105.h **** *
 340:Generated_Source\PSoC6/I2C_MAX30105.h **** * Invokes the Cy_SCB_I2C_MasterSetLowPhaseDutyCycle() PDL driver function.
 341:Generated_Source\PSoC6/I2C_MAX30105.h **** *
 342:Generated_Source\PSoC6/I2C_MAX30105.h **** *******************************************************************************/
 343:Generated_Source\PSoC6/I2C_MAX30105.h **** __STATIC_INLINE void I2C_MAX30105_MasterSetLowPhaseDutyCycle(uint32_t clockCycles)
 344:Generated_Source\PSoC6/I2C_MAX30105.h **** {
 345:Generated_Source\PSoC6/I2C_MAX30105.h ****     Cy_SCB_I2C_MasterSetLowPhaseDutyCycle(I2C_MAX30105_HW, clockCycles);
 346:Generated_Source\PSoC6/I2C_MAX30105.h **** }
 347:Generated_Source\PSoC6/I2C_MAX30105.h **** 
 348:Generated_Source\PSoC6/I2C_MAX30105.h **** 
 349:Generated_Source\PSoC6/I2C_MAX30105.h **** /*******************************************************************************
 350:Generated_Source\PSoC6/I2C_MAX30105.h **** * Function Name: I2C_MAX30105_MasterSetHighPhaseDutyCycle
 351:Generated_Source\PSoC6/I2C_MAX30105.h **** ****************************************************************************//**
 352:Generated_Source\PSoC6/I2C_MAX30105.h **** *
 353:Generated_Source\PSoC6/I2C_MAX30105.h **** * Invokes the Cy_SCB_I2C_MasterSetHighPhaseDutyCycle() PDL driver function.
 354:Generated_Source\PSoC6/I2C_MAX30105.h **** *
 355:Generated_Source\PSoC6/I2C_MAX30105.h **** *******************************************************************************/
 356:Generated_Source\PSoC6/I2C_MAX30105.h **** __STATIC_INLINE void I2C_MAX30105_MasterSetHighPhaseDutyCycle(uint32_t clockCycles)
 357:Generated_Source\PSoC6/I2C_MAX30105.h **** {
 358:Generated_Source\PSoC6/I2C_MAX30105.h ****     Cy_SCB_I2C_MasterSetHighPhaseDutyCycle(I2C_MAX30105_HW, clockCycles);
 359:Generated_Source\PSoC6/I2C_MAX30105.h **** }
 360:Generated_Source\PSoC6/I2C_MAX30105.h **** #endif /* (I2C_MAX30105_ENABLE_MASTER) */
 361:Generated_Source\PSoC6/I2C_MAX30105.h **** 
 362:Generated_Source\PSoC6/I2C_MAX30105.h **** 
 363:Generated_Source\PSoC6/I2C_MAX30105.h **** #if (I2C_MAX30105_ENABLE_SLAVE)
 364:Generated_Source\PSoC6/I2C_MAX30105.h **** /*******************************************************************************
 365:Generated_Source\PSoC6/I2C_MAX30105.h **** * Function Name: I2C_MAX30105_SlaveGetStatus
 366:Generated_Source\PSoC6/I2C_MAX30105.h **** ****************************************************************************//**
 367:Generated_Source\PSoC6/I2C_MAX30105.h **** *
 368:Generated_Source\PSoC6/I2C_MAX30105.h **** * Invokes the Cy_SCB_I2C_SlaveGetStatus() PDL driver function.
 369:Generated_Source\PSoC6/I2C_MAX30105.h **** *
 370:Generated_Source\PSoC6/I2C_MAX30105.h **** *******************************************************************************/
 371:Generated_Source\PSoC6/I2C_MAX30105.h **** __STATIC_INLINE uint32_t I2C_MAX30105_SlaveGetStatus(void)
 372:Generated_Source\PSoC6/I2C_MAX30105.h **** {
ARM GAS  C:\Users\LOCALA~1\AppData\Local\Temp\cced8gR9.s 			page 8


 373:Generated_Source\PSoC6/I2C_MAX30105.h ****     return Cy_SCB_I2C_SlaveGetStatus(I2C_MAX30105_HW, &I2C_MAX30105_context);
 374:Generated_Source\PSoC6/I2C_MAX30105.h **** }
 375:Generated_Source\PSoC6/I2C_MAX30105.h **** 
 376:Generated_Source\PSoC6/I2C_MAX30105.h **** 
 377:Generated_Source\PSoC6/I2C_MAX30105.h **** /*******************************************************************************
 378:Generated_Source\PSoC6/I2C_MAX30105.h **** * Function Name: I2C_MAX30105_SlaveConfigReadBuf
 379:Generated_Source\PSoC6/I2C_MAX30105.h **** ****************************************************************************//**
 380:Generated_Source\PSoC6/I2C_MAX30105.h **** *
 381:Generated_Source\PSoC6/I2C_MAX30105.h **** * Invokes the Cy_SCB_I2C_SlaveConfigReadBuf() PDL driver function.
 382:Generated_Source\PSoC6/I2C_MAX30105.h **** *
 383:Generated_Source\PSoC6/I2C_MAX30105.h **** *******************************************************************************/
 384:Generated_Source\PSoC6/I2C_MAX30105.h **** __STATIC_INLINE void I2C_MAX30105_SlaveConfigReadBuf(uint8_t *buffer, uint32_t size)
 385:Generated_Source\PSoC6/I2C_MAX30105.h **** {
 386:Generated_Source\PSoC6/I2C_MAX30105.h ****     Cy_SCB_I2C_SlaveConfigReadBuf(I2C_MAX30105_HW, buffer, size, &I2C_MAX30105_context);
 387:Generated_Source\PSoC6/I2C_MAX30105.h **** }
 388:Generated_Source\PSoC6/I2C_MAX30105.h **** 
 389:Generated_Source\PSoC6/I2C_MAX30105.h **** 
 390:Generated_Source\PSoC6/I2C_MAX30105.h **** /*******************************************************************************
 391:Generated_Source\PSoC6/I2C_MAX30105.h **** * Function Name: I2C_MAX30105_SlaveAbortRead
 392:Generated_Source\PSoC6/I2C_MAX30105.h **** ****************************************************************************//**
 393:Generated_Source\PSoC6/I2C_MAX30105.h **** *
 394:Generated_Source\PSoC6/I2C_MAX30105.h **** * Invokes the Cy_SCB_I2C_SlaveAbortRead() PDL driver function.
 395:Generated_Source\PSoC6/I2C_MAX30105.h **** *
 396:Generated_Source\PSoC6/I2C_MAX30105.h **** *******************************************************************************/
 397:Generated_Source\PSoC6/I2C_MAX30105.h **** __STATIC_INLINE void I2C_MAX30105_SlaveAbortRead(void)
 398:Generated_Source\PSoC6/I2C_MAX30105.h **** {
 399:Generated_Source\PSoC6/I2C_MAX30105.h ****     Cy_SCB_I2C_SlaveAbortRead(I2C_MAX30105_HW, &I2C_MAX30105_context);
 400:Generated_Source\PSoC6/I2C_MAX30105.h **** }
 401:Generated_Source\PSoC6/I2C_MAX30105.h **** 
 402:Generated_Source\PSoC6/I2C_MAX30105.h **** 
 403:Generated_Source\PSoC6/I2C_MAX30105.h **** /*******************************************************************************
 404:Generated_Source\PSoC6/I2C_MAX30105.h **** * Function Name: I2C_MAX30105_SlaveGetReadTransferCount
 405:Generated_Source\PSoC6/I2C_MAX30105.h **** ****************************************************************************//**
 406:Generated_Source\PSoC6/I2C_MAX30105.h **** *
 407:Generated_Source\PSoC6/I2C_MAX30105.h **** * Invokes the Cy_SCB_I2C_SlaveGetReadTransferCount() PDL driver function.
 408:Generated_Source\PSoC6/I2C_MAX30105.h **** *
 409:Generated_Source\PSoC6/I2C_MAX30105.h **** *******************************************************************************/
 410:Generated_Source\PSoC6/I2C_MAX30105.h **** __STATIC_INLINE uint32_t I2C_MAX30105_SlaveGetReadTransferCount(void)
 411:Generated_Source\PSoC6/I2C_MAX30105.h **** {
 412:Generated_Source\PSoC6/I2C_MAX30105.h ****     return Cy_SCB_I2C_SlaveGetReadTransferCount(I2C_MAX30105_HW, &I2C_MAX30105_context);
 413:Generated_Source\PSoC6/I2C_MAX30105.h **** }
 414:Generated_Source\PSoC6/I2C_MAX30105.h **** 
 415:Generated_Source\PSoC6/I2C_MAX30105.h **** 
 416:Generated_Source\PSoC6/I2C_MAX30105.h **** /*******************************************************************************
 417:Generated_Source\PSoC6/I2C_MAX30105.h **** * Function Name: I2C_MAX30105_SlaveClearReadStatus
 418:Generated_Source\PSoC6/I2C_MAX30105.h **** ****************************************************************************//**
 419:Generated_Source\PSoC6/I2C_MAX30105.h **** *
 420:Generated_Source\PSoC6/I2C_MAX30105.h **** * Invokes the Cy_SCB_I2C_SlaveClearReadStatus() PDL driver function.
 421:Generated_Source\PSoC6/I2C_MAX30105.h **** *
 422:Generated_Source\PSoC6/I2C_MAX30105.h **** *******************************************************************************/
 423:Generated_Source\PSoC6/I2C_MAX30105.h **** __STATIC_INLINE uint32_t I2C_MAX30105_SlaveClearReadStatus(void)
 424:Generated_Source\PSoC6/I2C_MAX30105.h **** {
 425:Generated_Source\PSoC6/I2C_MAX30105.h ****     return Cy_SCB_I2C_SlaveClearReadStatus(I2C_MAX30105_HW, &I2C_MAX30105_context);
 426:Generated_Source\PSoC6/I2C_MAX30105.h **** }
 427:Generated_Source\PSoC6/I2C_MAX30105.h **** 
 428:Generated_Source\PSoC6/I2C_MAX30105.h **** 
 429:Generated_Source\PSoC6/I2C_MAX30105.h **** /*******************************************************************************
ARM GAS  C:\Users\LOCALA~1\AppData\Local\Temp\cced8gR9.s 			page 9


 430:Generated_Source\PSoC6/I2C_MAX30105.h **** * Function Name: I2C_MAX30105_SlaveConfigWriteBuf
 431:Generated_Source\PSoC6/I2C_MAX30105.h **** ****************************************************************************//**
 432:Generated_Source\PSoC6/I2C_MAX30105.h **** *
 433:Generated_Source\PSoC6/I2C_MAX30105.h **** * Invokes the Cy_SCB_I2C_SlaveConfigWriteBuf() PDL driver function.
 434:Generated_Source\PSoC6/I2C_MAX30105.h **** *
 435:Generated_Source\PSoC6/I2C_MAX30105.h **** *******************************************************************************/
 436:Generated_Source\PSoC6/I2C_MAX30105.h **** __STATIC_INLINE void I2C_MAX30105_SlaveConfigWriteBuf(uint8_t *buffer, uint32_t size)
 437:Generated_Source\PSoC6/I2C_MAX30105.h **** {
 438:Generated_Source\PSoC6/I2C_MAX30105.h ****     Cy_SCB_I2C_SlaveConfigWriteBuf(I2C_MAX30105_HW, buffer, size, &I2C_MAX30105_context);
 439:Generated_Source\PSoC6/I2C_MAX30105.h **** }
 440:Generated_Source\PSoC6/I2C_MAX30105.h **** 
 441:Generated_Source\PSoC6/I2C_MAX30105.h **** 
 442:Generated_Source\PSoC6/I2C_MAX30105.h **** /*******************************************************************************
 443:Generated_Source\PSoC6/I2C_MAX30105.h **** * Function Name: I2C_MAX30105_SlaveAbortWrite
 444:Generated_Source\PSoC6/I2C_MAX30105.h **** ****************************************************************************//**
 445:Generated_Source\PSoC6/I2C_MAX30105.h **** *
 446:Generated_Source\PSoC6/I2C_MAX30105.h **** * Invokes the Cy_SCB_I2C_SlaveAbortWrite() PDL driver function.
 447:Generated_Source\PSoC6/I2C_MAX30105.h **** *
 448:Generated_Source\PSoC6/I2C_MAX30105.h **** *******************************************************************************/
 449:Generated_Source\PSoC6/I2C_MAX30105.h **** __STATIC_INLINE void I2C_MAX30105_SlaveAbortWrite(void)
 450:Generated_Source\PSoC6/I2C_MAX30105.h **** {
 451:Generated_Source\PSoC6/I2C_MAX30105.h ****     Cy_SCB_I2C_SlaveAbortWrite(I2C_MAX30105_HW, &I2C_MAX30105_context);
 452:Generated_Source\PSoC6/I2C_MAX30105.h **** }
 453:Generated_Source\PSoC6/I2C_MAX30105.h **** 
 454:Generated_Source\PSoC6/I2C_MAX30105.h **** 
 455:Generated_Source\PSoC6/I2C_MAX30105.h **** /*******************************************************************************
 456:Generated_Source\PSoC6/I2C_MAX30105.h **** * Function Name: I2C_MAX30105_SlaveGetWriteTransferCount
 457:Generated_Source\PSoC6/I2C_MAX30105.h **** ****************************************************************************//**
 458:Generated_Source\PSoC6/I2C_MAX30105.h **** *
 459:Generated_Source\PSoC6/I2C_MAX30105.h **** * Invokes the Cy_SCB_I2C_SlaveGetWriteTransferCount() PDL driver function.
 460:Generated_Source\PSoC6/I2C_MAX30105.h **** *
 461:Generated_Source\PSoC6/I2C_MAX30105.h **** *******************************************************************************/
 462:Generated_Source\PSoC6/I2C_MAX30105.h **** __STATIC_INLINE uint32_t I2C_MAX30105_SlaveGetWriteTransferCount(void)
 463:Generated_Source\PSoC6/I2C_MAX30105.h **** {
 464:Generated_Source\PSoC6/I2C_MAX30105.h ****     return Cy_SCB_I2C_SlaveGetWriteTransferCount(I2C_MAX30105_HW, &I2C_MAX30105_context);
 465:Generated_Source\PSoC6/I2C_MAX30105.h **** }
 466:Generated_Source\PSoC6/I2C_MAX30105.h **** 
 467:Generated_Source\PSoC6/I2C_MAX30105.h **** 
 468:Generated_Source\PSoC6/I2C_MAX30105.h **** /*******************************************************************************
 469:Generated_Source\PSoC6/I2C_MAX30105.h **** * Function Name: I2C_MAX30105_SlaveClearWriteStatus
 470:Generated_Source\PSoC6/I2C_MAX30105.h **** ****************************************************************************//**
 471:Generated_Source\PSoC6/I2C_MAX30105.h **** *
 472:Generated_Source\PSoC6/I2C_MAX30105.h **** * Invokes the Cy_SCB_I2C_SlaveClearWriteStatus() PDL driver function.
 473:Generated_Source\PSoC6/I2C_MAX30105.h **** *
 474:Generated_Source\PSoC6/I2C_MAX30105.h **** *******************************************************************************/
 475:Generated_Source\PSoC6/I2C_MAX30105.h **** __STATIC_INLINE uint32_t I2C_MAX30105_SlaveClearWriteStatus(void)
 476:Generated_Source\PSoC6/I2C_MAX30105.h **** {
 477:Generated_Source\PSoC6/I2C_MAX30105.h ****     return Cy_SCB_I2C_SlaveClearWriteStatus(I2C_MAX30105_HW, &I2C_MAX30105_context);
 478:Generated_Source\PSoC6/I2C_MAX30105.h **** }
 479:Generated_Source\PSoC6/I2C_MAX30105.h **** #endif /* (I2C_MAX30105_ENABLE_SLAVE) */
 480:Generated_Source\PSoC6/I2C_MAX30105.h **** 
 481:Generated_Source\PSoC6/I2C_MAX30105.h **** 
 482:Generated_Source\PSoC6/I2C_MAX30105.h **** #if (I2C_MAX30105_ENABLE_MASTER)
 483:Generated_Source\PSoC6/I2C_MAX30105.h **** /*******************************************************************************
 484:Generated_Source\PSoC6/I2C_MAX30105.h **** * Function Name: I2C_MAX30105_MasterGetStatus
 485:Generated_Source\PSoC6/I2C_MAX30105.h **** ****************************************************************************//**
 486:Generated_Source\PSoC6/I2C_MAX30105.h **** *
ARM GAS  C:\Users\LOCALA~1\AppData\Local\Temp\cced8gR9.s 			page 10


 487:Generated_Source\PSoC6/I2C_MAX30105.h **** * Invokes the Cy_SCB_I2C_MasterGetStatus() PDL driver function.
 488:Generated_Source\PSoC6/I2C_MAX30105.h **** *
 489:Generated_Source\PSoC6/I2C_MAX30105.h **** *******************************************************************************/
 490:Generated_Source\PSoC6/I2C_MAX30105.h **** __STATIC_INLINE uint32_t I2C_MAX30105_MasterGetStatus(void)
 491:Generated_Source\PSoC6/I2C_MAX30105.h **** {
 492:Generated_Source\PSoC6/I2C_MAX30105.h ****     return Cy_SCB_I2C_MasterGetStatus(I2C_MAX30105_HW, &I2C_MAX30105_context);
 493:Generated_Source\PSoC6/I2C_MAX30105.h **** }
 494:Generated_Source\PSoC6/I2C_MAX30105.h **** 
 495:Generated_Source\PSoC6/I2C_MAX30105.h **** 
 496:Generated_Source\PSoC6/I2C_MAX30105.h **** /*******************************************************************************
 497:Generated_Source\PSoC6/I2C_MAX30105.h **** * Function Name: I2C_MAX30105_MasterRead
 498:Generated_Source\PSoC6/I2C_MAX30105.h **** ****************************************************************************//**
 499:Generated_Source\PSoC6/I2C_MAX30105.h **** *
 500:Generated_Source\PSoC6/I2C_MAX30105.h **** * Invokes the Cy_SCB_I2C_MasterRead() PDL driver function.
 501:Generated_Source\PSoC6/I2C_MAX30105.h **** *
 502:Generated_Source\PSoC6/I2C_MAX30105.h **** *******************************************************************************/
 503:Generated_Source\PSoC6/I2C_MAX30105.h **** __STATIC_INLINE cy_en_scb_i2c_status_t I2C_MAX30105_MasterRead(cy_stc_scb_i2c_master_xfer_config_t 
 504:Generated_Source\PSoC6/I2C_MAX30105.h **** {
 505:Generated_Source\PSoC6/I2C_MAX30105.h ****     return Cy_SCB_I2C_MasterRead(I2C_MAX30105_HW, xferConfig, &I2C_MAX30105_context);
 506:Generated_Source\PSoC6/I2C_MAX30105.h **** }
 507:Generated_Source\PSoC6/I2C_MAX30105.h **** 
 508:Generated_Source\PSoC6/I2C_MAX30105.h **** 
 509:Generated_Source\PSoC6/I2C_MAX30105.h **** /*******************************************************************************
 510:Generated_Source\PSoC6/I2C_MAX30105.h **** * Function Name: I2C_MAX30105_MasterAbortRead
 511:Generated_Source\PSoC6/I2C_MAX30105.h **** ****************************************************************************//**
 512:Generated_Source\PSoC6/I2C_MAX30105.h **** *
 513:Generated_Source\PSoC6/I2C_MAX30105.h **** * Invokes the Cy_SCB_I2C_MasterAbortRead() PDL driver function.
 514:Generated_Source\PSoC6/I2C_MAX30105.h **** *
 515:Generated_Source\PSoC6/I2C_MAX30105.h **** ******************************************************************************/
 516:Generated_Source\PSoC6/I2C_MAX30105.h **** __STATIC_INLINE void I2C_MAX30105_MasterAbortRead(void)
 517:Generated_Source\PSoC6/I2C_MAX30105.h **** {
 518:Generated_Source\PSoC6/I2C_MAX30105.h ****     Cy_SCB_I2C_MasterAbortRead(I2C_MAX30105_HW, &I2C_MAX30105_context);
 519:Generated_Source\PSoC6/I2C_MAX30105.h **** }
 520:Generated_Source\PSoC6/I2C_MAX30105.h **** 
 521:Generated_Source\PSoC6/I2C_MAX30105.h **** 
 522:Generated_Source\PSoC6/I2C_MAX30105.h **** /*******************************************************************************
 523:Generated_Source\PSoC6/I2C_MAX30105.h **** * Function Name: I2C_MAX30105_MasterWrite
 524:Generated_Source\PSoC6/I2C_MAX30105.h **** ****************************************************************************//**
 525:Generated_Source\PSoC6/I2C_MAX30105.h **** *
 526:Generated_Source\PSoC6/I2C_MAX30105.h **** * Invokes the Cy_SCB_I2C_MasterWrite() PDL driver function.
 527:Generated_Source\PSoC6/I2C_MAX30105.h **** *
 528:Generated_Source\PSoC6/I2C_MAX30105.h **** *******************************************************************************/
 529:Generated_Source\PSoC6/I2C_MAX30105.h **** __STATIC_INLINE cy_en_scb_i2c_status_t I2C_MAX30105_MasterWrite(cy_stc_scb_i2c_master_xfer_config_t
 530:Generated_Source\PSoC6/I2C_MAX30105.h **** {
 531:Generated_Source\PSoC6/I2C_MAX30105.h ****     return Cy_SCB_I2C_MasterWrite(I2C_MAX30105_HW, xferConfig, &I2C_MAX30105_context);
 532:Generated_Source\PSoC6/I2C_MAX30105.h **** }
 533:Generated_Source\PSoC6/I2C_MAX30105.h **** 
 534:Generated_Source\PSoC6/I2C_MAX30105.h **** 
 535:Generated_Source\PSoC6/I2C_MAX30105.h **** /*******************************************************************************
 536:Generated_Source\PSoC6/I2C_MAX30105.h **** * Function Name: I2C_MAX30105_MasterAbortWrite
 537:Generated_Source\PSoC6/I2C_MAX30105.h **** ****************************************************************************//**
 538:Generated_Source\PSoC6/I2C_MAX30105.h **** *
 539:Generated_Source\PSoC6/I2C_MAX30105.h **** * Invokes the Cy_SCB_I2C_MasterAbortWrite() PDL driver function.
 540:Generated_Source\PSoC6/I2C_MAX30105.h **** *
 541:Generated_Source\PSoC6/I2C_MAX30105.h **** *******************************************************************************/
 542:Generated_Source\PSoC6/I2C_MAX30105.h **** __STATIC_INLINE void I2C_MAX30105_MasterAbortWrite(void)
 543:Generated_Source\PSoC6/I2C_MAX30105.h **** {
ARM GAS  C:\Users\LOCALA~1\AppData\Local\Temp\cced8gR9.s 			page 11


 544:Generated_Source\PSoC6/I2C_MAX30105.h ****     Cy_SCB_I2C_MasterAbortWrite(I2C_MAX30105_HW, &I2C_MAX30105_context);
 545:Generated_Source\PSoC6/I2C_MAX30105.h **** }
 546:Generated_Source\PSoC6/I2C_MAX30105.h **** 
 547:Generated_Source\PSoC6/I2C_MAX30105.h **** 
 548:Generated_Source\PSoC6/I2C_MAX30105.h **** /*******************************************************************************
 549:Generated_Source\PSoC6/I2C_MAX30105.h **** * Function Name: I2C_MAX30105_MasterGetTransferCount
 550:Generated_Source\PSoC6/I2C_MAX30105.h **** ****************************************************************************//**
 551:Generated_Source\PSoC6/I2C_MAX30105.h **** *
 552:Generated_Source\PSoC6/I2C_MAX30105.h **** * Invokes the Cy_SCB_I2C_MasterGetTransferCount() PDL driver function.
 553:Generated_Source\PSoC6/I2C_MAX30105.h **** *
 554:Generated_Source\PSoC6/I2C_MAX30105.h **** *******************************************************************************/
 555:Generated_Source\PSoC6/I2C_MAX30105.h **** __STATIC_INLINE uint32_t I2C_MAX30105_MasterGetTransferCount(void)
 556:Generated_Source\PSoC6/I2C_MAX30105.h **** {
 557:Generated_Source\PSoC6/I2C_MAX30105.h ****     return Cy_SCB_I2C_MasterGetTransferCount(I2C_MAX30105_HW, &I2C_MAX30105_context);
 558:Generated_Source\PSoC6/I2C_MAX30105.h **** }
 559:Generated_Source\PSoC6/I2C_MAX30105.h **** 
 560:Generated_Source\PSoC6/I2C_MAX30105.h **** 
 561:Generated_Source\PSoC6/I2C_MAX30105.h **** /*******************************************************************************
 562:Generated_Source\PSoC6/I2C_MAX30105.h **** * Function Name: I2C_MAX30105_MasterSendStart
 563:Generated_Source\PSoC6/I2C_MAX30105.h **** ****************************************************************************//**
 564:Generated_Source\PSoC6/I2C_MAX30105.h **** *
 565:Generated_Source\PSoC6/I2C_MAX30105.h **** * Invokes the Cy_SCB_I2C_MasterSendStart() PDL driver function.
 566:Generated_Source\PSoC6/I2C_MAX30105.h **** *
 567:Generated_Source\PSoC6/I2C_MAX30105.h **** *******************************************************************************/
 568:Generated_Source\PSoC6/I2C_MAX30105.h **** __STATIC_INLINE cy_en_scb_i2c_status_t I2C_MAX30105_MasterSendStart(uint32_t address, cy_en_scb_i2c
 569:Generated_Source\PSoC6/I2C_MAX30105.h **** {
  28              		.loc 1 569 0
  29              		.cfi_startproc
  30              		@ args = 0, pretend = 0, frame = 16
  31              		@ frame_needed = 1, uses_anonymous_args = 0
  32 0000 80B5     		push	{r7, lr}
  33              		.cfi_def_cfa_offset 8
  34              		.cfi_offset 7, -8
  35              		.cfi_offset 14, -4
  36 0002 86B0     		sub	sp, sp, #24
  37              		.cfi_def_cfa_offset 32
  38 0004 02AF     		add	r7, sp, #8
  39              		.cfi_def_cfa 7, 24
  40 0006 F860     		str	r0, [r7, #12]
  41 0008 0B46     		mov	r3, r1
  42 000a 7A60     		str	r2, [r7, #4]
  43 000c FB72     		strb	r3, [r7, #11]
 570:Generated_Source\PSoC6/I2C_MAX30105.h ****     return Cy_SCB_I2C_MasterSendStart(I2C_MAX30105_HW, address, bitRnW, timeoutMs, &I2C_MAX30105_co
  44              		.loc 1 570 0
  45 000e FA7A     		ldrb	r2, [r7, #11]	@ zero_extendqisi2
  46 0010 054B     		ldr	r3, .L3
  47 0012 0093     		str	r3, [sp]
  48 0014 7B68     		ldr	r3, [r7, #4]
  49 0016 F968     		ldr	r1, [r7, #12]
  50 0018 0448     		ldr	r0, .L3+4
  51 001a FFF7FEFF 		bl	Cy_SCB_I2C_MasterSendStart
  52 001e 0346     		mov	r3, r0
 571:Generated_Source\PSoC6/I2C_MAX30105.h **** }
  53              		.loc 1 571 0
  54 0020 1846     		mov	r0, r3
  55 0022 1037     		adds	r7, r7, #16
  56              		.cfi_def_cfa_offset 8
ARM GAS  C:\Users\LOCALA~1\AppData\Local\Temp\cced8gR9.s 			page 12


  57 0024 BD46     		mov	sp, r7
  58              		.cfi_def_cfa_register 13
  59              		@ sp needed
  60 0026 80BD     		pop	{r7, pc}
  61              	.L4:
  62              		.align	2
  63              	.L3:
  64 0028 00000000 		.word	I2C_MAX30105_context
  65 002c 00006740 		.word	1080492032
  66              		.cfi_endproc
  67              	.LFE527:
  68              		.size	I2C_MAX30105_MasterSendStart, .-I2C_MAX30105_MasterSendStart
  69              		.section	.text.I2C_MAX30105_MasterSendStop,"ax",%progbits
  70              		.align	2
  71              		.thumb
  72              		.thumb_func
  73              		.type	I2C_MAX30105_MasterSendStop, %function
  74              	I2C_MAX30105_MasterSendStop:
  75              	.LFB529:
 572:Generated_Source\PSoC6/I2C_MAX30105.h **** 
 573:Generated_Source\PSoC6/I2C_MAX30105.h **** 
 574:Generated_Source\PSoC6/I2C_MAX30105.h **** /*******************************************************************************
 575:Generated_Source\PSoC6/I2C_MAX30105.h **** * Function Name: I2C_MAX30105_MasterSendReStart
 576:Generated_Source\PSoC6/I2C_MAX30105.h **** ****************************************************************************//**
 577:Generated_Source\PSoC6/I2C_MAX30105.h **** *
 578:Generated_Source\PSoC6/I2C_MAX30105.h **** * Invokes the Cy_SCB_I2C_MasterSendReStart() PDL driver function.
 579:Generated_Source\PSoC6/I2C_MAX30105.h **** *
 580:Generated_Source\PSoC6/I2C_MAX30105.h **** *******************************************************************************/
 581:Generated_Source\PSoC6/I2C_MAX30105.h **** __STATIC_INLINE cy_en_scb_i2c_status_t I2C_MAX30105_MasterSendReStart(uint32_t address, cy_en_scb_i
 582:Generated_Source\PSoC6/I2C_MAX30105.h **** {
 583:Generated_Source\PSoC6/I2C_MAX30105.h ****     return Cy_SCB_I2C_MasterSendReStart(I2C_MAX30105_HW, address, bitRnW, timeoutMs, &I2C_MAX30105_
 584:Generated_Source\PSoC6/I2C_MAX30105.h **** }
 585:Generated_Source\PSoC6/I2C_MAX30105.h **** 
 586:Generated_Source\PSoC6/I2C_MAX30105.h **** 
 587:Generated_Source\PSoC6/I2C_MAX30105.h **** /*******************************************************************************
 588:Generated_Source\PSoC6/I2C_MAX30105.h **** * Function Name: I2C_MAX30105_MasterSendStop
 589:Generated_Source\PSoC6/I2C_MAX30105.h **** ****************************************************************************//**
 590:Generated_Source\PSoC6/I2C_MAX30105.h **** *
 591:Generated_Source\PSoC6/I2C_MAX30105.h **** * Invokes the Cy_SCB_I2C_MasterSendStop() PDL driver function.
 592:Generated_Source\PSoC6/I2C_MAX30105.h **** *
 593:Generated_Source\PSoC6/I2C_MAX30105.h **** *******************************************************************************/
 594:Generated_Source\PSoC6/I2C_MAX30105.h **** __STATIC_INLINE cy_en_scb_i2c_status_t I2C_MAX30105_MasterSendStop(uint32_t timeoutMs)
 595:Generated_Source\PSoC6/I2C_MAX30105.h **** {
  76              		.loc 1 595 0
  77              		.cfi_startproc
  78              		@ args = 0, pretend = 0, frame = 8
  79              		@ frame_needed = 1, uses_anonymous_args = 0
  80 0000 80B5     		push	{r7, lr}
  81              		.cfi_def_cfa_offset 8
  82              		.cfi_offset 7, -8
  83              		.cfi_offset 14, -4
  84 0002 82B0     		sub	sp, sp, #8
  85              		.cfi_def_cfa_offset 16
  86 0004 00AF     		add	r7, sp, #0
  87              		.cfi_def_cfa_register 7
  88 0006 7860     		str	r0, [r7, #4]
 596:Generated_Source\PSoC6/I2C_MAX30105.h ****     return Cy_SCB_I2C_MasterSendStop(I2C_MAX30105_HW, timeoutMs, &I2C_MAX30105_context);
ARM GAS  C:\Users\LOCALA~1\AppData\Local\Temp\cced8gR9.s 			page 13


  89              		.loc 1 596 0
  90 0008 044A     		ldr	r2, .L7
  91 000a 7968     		ldr	r1, [r7, #4]
  92 000c 0448     		ldr	r0, .L7+4
  93 000e FFF7FEFF 		bl	Cy_SCB_I2C_MasterSendStop
  94 0012 0346     		mov	r3, r0
 597:Generated_Source\PSoC6/I2C_MAX30105.h **** }
  95              		.loc 1 597 0
  96 0014 1846     		mov	r0, r3
  97 0016 0837     		adds	r7, r7, #8
  98              		.cfi_def_cfa_offset 8
  99 0018 BD46     		mov	sp, r7
 100              		.cfi_def_cfa_register 13
 101              		@ sp needed
 102 001a 80BD     		pop	{r7, pc}
 103              	.L8:
 104              		.align	2
 105              	.L7:
 106 001c 00000000 		.word	I2C_MAX30105_context
 107 0020 00006740 		.word	1080492032
 108              		.cfi_endproc
 109              	.LFE529:
 110              		.size	I2C_MAX30105_MasterSendStop, .-I2C_MAX30105_MasterSendStop
 111              		.section	.text.I2C_MAX30105_MasterReadByte,"ax",%progbits
 112              		.align	2
 113              		.thumb
 114              		.thumb_func
 115              		.type	I2C_MAX30105_MasterReadByte, %function
 116              	I2C_MAX30105_MasterReadByte:
 117              	.LFB530:
 598:Generated_Source\PSoC6/I2C_MAX30105.h **** 
 599:Generated_Source\PSoC6/I2C_MAX30105.h **** 
 600:Generated_Source\PSoC6/I2C_MAX30105.h **** /*******************************************************************************
 601:Generated_Source\PSoC6/I2C_MAX30105.h **** * Function Name: I2C_MAX30105_MasterReadByte
 602:Generated_Source\PSoC6/I2C_MAX30105.h **** ****************************************************************************//**
 603:Generated_Source\PSoC6/I2C_MAX30105.h **** *
 604:Generated_Source\PSoC6/I2C_MAX30105.h **** * Invokes the Cy_SCB_I2C_MasterReadByte() PDL driver function.
 605:Generated_Source\PSoC6/I2C_MAX30105.h **** *
 606:Generated_Source\PSoC6/I2C_MAX30105.h **** *******************************************************************************/
 607:Generated_Source\PSoC6/I2C_MAX30105.h **** __STATIC_INLINE cy_en_scb_i2c_status_t I2C_MAX30105_MasterReadByte(cy_en_scb_i2c_command_t ackNack,
 608:Generated_Source\PSoC6/I2C_MAX30105.h **** {
 118              		.loc 1 608 0
 119              		.cfi_startproc
 120              		@ args = 0, pretend = 0, frame = 16
 121              		@ frame_needed = 1, uses_anonymous_args = 0
 122 0000 80B5     		push	{r7, lr}
 123              		.cfi_def_cfa_offset 8
 124              		.cfi_offset 7, -8
 125              		.cfi_offset 14, -4
 126 0002 86B0     		sub	sp, sp, #24
 127              		.cfi_def_cfa_offset 32
 128 0004 02AF     		add	r7, sp, #8
 129              		.cfi_def_cfa 7, 24
 130 0006 0346     		mov	r3, r0
 131 0008 B960     		str	r1, [r7, #8]
 132 000a 7A60     		str	r2, [r7, #4]
 133 000c FB73     		strb	r3, [r7, #15]
ARM GAS  C:\Users\LOCALA~1\AppData\Local\Temp\cced8gR9.s 			page 14


 609:Generated_Source\PSoC6/I2C_MAX30105.h ****     return Cy_SCB_I2C_MasterReadByte(I2C_MAX30105_HW, ackNack, byte, timeoutMs, &I2C_MAX30105_conte
 134              		.loc 1 609 0
 135 000e F97B     		ldrb	r1, [r7, #15]	@ zero_extendqisi2
 136 0010 054B     		ldr	r3, .L11
 137 0012 0093     		str	r3, [sp]
 138 0014 7B68     		ldr	r3, [r7, #4]
 139 0016 BA68     		ldr	r2, [r7, #8]
 140 0018 0448     		ldr	r0, .L11+4
 141 001a FFF7FEFF 		bl	Cy_SCB_I2C_MasterReadByte
 142 001e 0346     		mov	r3, r0
 610:Generated_Source\PSoC6/I2C_MAX30105.h **** }
 143              		.loc 1 610 0
 144 0020 1846     		mov	r0, r3
 145 0022 1037     		adds	r7, r7, #16
 146              		.cfi_def_cfa_offset 8
 147 0024 BD46     		mov	sp, r7
 148              		.cfi_def_cfa_register 13
 149              		@ sp needed
 150 0026 80BD     		pop	{r7, pc}
 151              	.L12:
 152              		.align	2
 153              	.L11:
 154 0028 00000000 		.word	I2C_MAX30105_context
 155 002c 00006740 		.word	1080492032
 156              		.cfi_endproc
 157              	.LFE530:
 158              		.size	I2C_MAX30105_MasterReadByte, .-I2C_MAX30105_MasterReadByte
 159              		.section	.text.I2C_MAX30105_MasterWriteByte,"ax",%progbits
 160              		.align	2
 161              		.thumb
 162              		.thumb_func
 163              		.type	I2C_MAX30105_MasterWriteByte, %function
 164              	I2C_MAX30105_MasterWriteByte:
 165              	.LFB531:
 611:Generated_Source\PSoC6/I2C_MAX30105.h **** 
 612:Generated_Source\PSoC6/I2C_MAX30105.h **** 
 613:Generated_Source\PSoC6/I2C_MAX30105.h **** /*******************************************************************************
 614:Generated_Source\PSoC6/I2C_MAX30105.h **** * Function Name: I2C_MAX30105_MasterWriteByte
 615:Generated_Source\PSoC6/I2C_MAX30105.h **** ****************************************************************************//**
 616:Generated_Source\PSoC6/I2C_MAX30105.h **** *
 617:Generated_Source\PSoC6/I2C_MAX30105.h **** * Invokes the Cy_SCB_I2C_MasterWriteByte() PDL driver function.
 618:Generated_Source\PSoC6/I2C_MAX30105.h **** *
 619:Generated_Source\PSoC6/I2C_MAX30105.h **** *******************************************************************************/
 620:Generated_Source\PSoC6/I2C_MAX30105.h **** __STATIC_INLINE cy_en_scb_i2c_status_t I2C_MAX30105_MasterWriteByte(uint8_t byte, uint32_t timeoutM
 621:Generated_Source\PSoC6/I2C_MAX30105.h **** {
 166              		.loc 1 621 0
 167              		.cfi_startproc
 168              		@ args = 0, pretend = 0, frame = 8
 169              		@ frame_needed = 1, uses_anonymous_args = 0
 170 0000 80B5     		push	{r7, lr}
 171              		.cfi_def_cfa_offset 8
 172              		.cfi_offset 7, -8
 173              		.cfi_offset 14, -4
 174 0002 82B0     		sub	sp, sp, #8
 175              		.cfi_def_cfa_offset 16
 176 0004 00AF     		add	r7, sp, #0
 177              		.cfi_def_cfa_register 7
ARM GAS  C:\Users\LOCALA~1\AppData\Local\Temp\cced8gR9.s 			page 15


 178 0006 0346     		mov	r3, r0
 179 0008 3960     		str	r1, [r7]
 180 000a FB71     		strb	r3, [r7, #7]
 622:Generated_Source\PSoC6/I2C_MAX30105.h ****     return Cy_SCB_I2C_MasterWriteByte(I2C_MAX30105_HW, byte, timeoutMs, &I2C_MAX30105_context);
 181              		.loc 1 622 0
 182 000c F979     		ldrb	r1, [r7, #7]	@ zero_extendqisi2
 183 000e 054B     		ldr	r3, .L15
 184 0010 3A68     		ldr	r2, [r7]
 185 0012 0548     		ldr	r0, .L15+4
 186 0014 FFF7FEFF 		bl	Cy_SCB_I2C_MasterWriteByte
 187 0018 0346     		mov	r3, r0
 623:Generated_Source\PSoC6/I2C_MAX30105.h **** }
 188              		.loc 1 623 0
 189 001a 1846     		mov	r0, r3
 190 001c 0837     		adds	r7, r7, #8
 191              		.cfi_def_cfa_offset 8
 192 001e BD46     		mov	sp, r7
 193              		.cfi_def_cfa_register 13
 194              		@ sp needed
 195 0020 80BD     		pop	{r7, pc}
 196              	.L16:
 197 0022 00BF     		.align	2
 198              	.L15:
 199 0024 00000000 		.word	I2C_MAX30105_context
 200 0028 00006740 		.word	1080492032
 201              		.cfi_endproc
 202              	.LFE531:
 203              		.size	I2C_MAX30105_MasterWriteByte, .-I2C_MAX30105_MasterWriteByte
 204              		.section	.text.AD5273_ReadData,"ax",%progbits
 205              		.align	2
 206              		.global	AD5273_ReadData
 207              		.thumb
 208              		.thumb_func
 209              		.type	AD5273_ReadData, %function
 210              	AD5273_ReadData:
 211              	.LFB658:
 212              		.file 2 "AD5273BRJZ1.c"
   1:AD5273BRJZ1.c **** /* ========================================
   2:AD5273BRJZ1.c ****  *
   3:AD5273BRJZ1.c ****  * Copyright YOUR COMPANY, THE YEAR
   4:AD5273BRJZ1.c ****  * All Rights Reserved
   5:AD5273BRJZ1.c ****  * UNPUBLISHED, LICENSED SOFTWARE.
   6:AD5273BRJZ1.c ****  *
   7:AD5273BRJZ1.c ****  * CONFIDENTIAL AND PROPRIETARY INFORMATION
   8:AD5273BRJZ1.c ****  * WHICH IS THE PROPERTY OF your company.
   9:AD5273BRJZ1.c ****  *
  10:AD5273BRJZ1.c ****  * ========================================
  11:AD5273BRJZ1.c **** */
  12:AD5273BRJZ1.c **** #include "project.h"
  13:AD5273BRJZ1.c **** #include "AD5273BRJZ1.h"
  14:AD5273BRJZ1.c **** #include "milliseconds.h"
  15:AD5273BRJZ1.c **** #include "I2C_MAX30105.h"
  16:AD5273BRJZ1.c **** #include <math.h>
  17:AD5273BRJZ1.c **** 
  18:AD5273BRJZ1.c **** #define AD5273_AD_PIN          (0x00)
  19:AD5273BRJZ1.c **** #define AD5273_BASE_ADDRESS    (0x2CU) 
  20:AD5273BRJZ1.c **** #define AD5273_ADDRESS         (AD5273_BASE_ADDRESS | AD5273_AD_PIN) // 010110 MSB
ARM GAS  C:\Users\LOCALA~1\AppData\Local\Temp\cced8gR9.s 			page 16


  21:AD5273BRJZ1.c **** 
  22:AD5273BRJZ1.c **** 
  23:AD5273BRJZ1.c **** /* Command valid status */
  24:AD5273BRJZ1.c **** #define TRANSFER_CMPLT        (0x00UL)
  25:AD5273BRJZ1.c **** #define TRANSFER_ERROR        (0xFFUL)
  26:AD5273BRJZ1.c **** 
  27:AD5273BRJZ1.c **** #define I2C_TIMEOUT                         (100UL)
  28:AD5273BRJZ1.c **** #define I2C_AD5273_HW                       I2C_MAX30105_HW
  29:AD5273BRJZ1.c **** #define I2C_AD5273_INSTRUCTION_BYTE         (0x00)
  30:AD5273BRJZ1.c **** 
  31:AD5273BRJZ1.c **** #define AD5273_E0_STATUS_MASK   (1 << 6)
  32:AD5273BRJZ1.c **** #define AD5273_E1_STATUS_MASK   (1 << 7)
  33:AD5273BRJZ1.c **** #define AD5273_RDAC_MASK        ~(0xC0)
  34:AD5273BRJZ1.c **** 
  35:AD5273BRJZ1.c **** #define R_W_VALUE               (60U)
  36:AD5273BRJZ1.c **** #define R_AB_VALUE              (10000UL)
  37:AD5273BRJZ1.c **** 
  38:AD5273BRJZ1.c **** static void HandleError(void);
  39:AD5273BRJZ1.c **** 
  40:AD5273BRJZ1.c **** uint8_t AD5273_ReadData(void)
  41:AD5273BRJZ1.c **** {
 213              		.loc 2 41 0
 214              		.cfi_startproc
 215              		@ args = 0, pretend = 0, frame = 8
 216              		@ frame_needed = 1, uses_anonymous_args = 0
 217 0000 80B5     		push	{r7, lr}
 218              		.cfi_def_cfa_offset 8
 219              		.cfi_offset 7, -8
 220              		.cfi_offset 14, -4
 221 0002 82B0     		sub	sp, sp, #8
 222              		.cfi_def_cfa_offset 16
 223 0004 00AF     		add	r7, sp, #0
 224              		.cfi_def_cfa_register 7
  42:AD5273BRJZ1.c ****     uint32_t  errorStatus = TRANSFER_ERROR;
 225              		.loc 2 42 0
 226 0006 FF23     		movs	r3, #255
 227 0008 7B60     		str	r3, [r7, #4]
  43:AD5273BRJZ1.c ****     uint8_t rdacVal = 0U;
 228              		.loc 2 43 0
 229 000a 0023     		movs	r3, #0
 230 000c FB70     		strb	r3, [r7, #3]
  44:AD5273BRJZ1.c ****     errorStatus = I2C_MAX30105_MasterSendStart(AD5273_ADDRESS, CY_SCB_I2C_READ_XFER, I2C_TIMEOUT);
 231              		.loc 2 44 0
 232 000e 6422     		movs	r2, #100
 233 0010 0121     		movs	r1, #1
 234 0012 2C20     		movs	r0, #44
 235 0014 FFF7FEFF 		bl	I2C_MAX30105_MasterSendStart
 236 0018 7860     		str	r0, [r7, #4]
  45:AD5273BRJZ1.c ****     
  46:AD5273BRJZ1.c ****     if(CY_SCB_I2C_SUCCESS != errorStatus)
 237              		.loc 2 46 0
 238 001a 7B68     		ldr	r3, [r7, #4]
 239 001c 002B     		cmp	r3, #0
 240 001e 1AD1     		bne	.L23
  47:AD5273BRJZ1.c ****     {
  48:AD5273BRJZ1.c ****        goto exit;
  49:AD5273BRJZ1.c ****     }
ARM GAS  C:\Users\LOCALA~1\AppData\Local\Temp\cced8gR9.s 			page 17


  50:AD5273BRJZ1.c ****     
  51:AD5273BRJZ1.c ****     errorStatus = I2C_MAX30105_MasterReadByte(CY_SCB_I2C_NAK, &rdacVal, I2C_TIMEOUT);
 241              		.loc 2 51 0
 242 0020 FB1C     		adds	r3, r7, #3
 243 0022 6422     		movs	r2, #100
 244 0024 1946     		mov	r1, r3
 245 0026 0120     		movs	r0, #1
 246 0028 FFF7FEFF 		bl	I2C_MAX30105_MasterReadByte
 247 002c 7860     		str	r0, [r7, #4]
  52:AD5273BRJZ1.c ****     
  53:AD5273BRJZ1.c ****     /* Check status of transaction */
  54:AD5273BRJZ1.c ****     if ((errorStatus == CY_SCB_I2C_SUCCESS)           ||
 248              		.loc 2 54 0
 249 002e 7B68     		ldr	r3, [r7, #4]
 250 0030 002B     		cmp	r3, #0
 251 0032 07D0     		beq	.L20
 252              		.loc 2 54 0 is_stmt 0 discriminator 1
 253 0034 7B68     		ldr	r3, [r7, #4]
 254 0036 0D4A     		ldr	r2, .L24
 255 0038 9342     		cmp	r3, r2
 256 003a 03D0     		beq	.L20
  55:AD5273BRJZ1.c ****         (errorStatus == CY_SCB_I2C_MASTER_MANUAL_NAK) ||
 257              		.loc 2 55 0 is_stmt 1
 258 003c 7B68     		ldr	r3, [r7, #4]
 259 003e 0C4A     		ldr	r2, .L24+4
 260 0040 9342     		cmp	r3, r2
 261 0042 09D1     		bne	.L19
 262              	.L20:
  56:AD5273BRJZ1.c ****         (errorStatus == CY_SCB_I2C_MASTER_MANUAL_ADDR_NAK))
  57:AD5273BRJZ1.c ****     {
  58:AD5273BRJZ1.c ****         /* Send Stop condition on the bus */
  59:AD5273BRJZ1.c ****         if (I2C_MAX30105_MasterSendStop(I2C_TIMEOUT) == CY_SCB_I2C_SUCCESS)
 263              		.loc 2 59 0
 264 0044 6420     		movs	r0, #100
 265 0046 FFF7FEFF 		bl	I2C_MAX30105_MasterSendStop
 266 004a 0346     		mov	r3, r0
 267 004c 002B     		cmp	r3, #0
 268 004e 03D1     		bne	.L19
  60:AD5273BRJZ1.c ****         {
  61:AD5273BRJZ1.c ****            errorStatus = TRANSFER_CMPLT;
 269              		.loc 2 61 0
 270 0050 0023     		movs	r3, #0
 271 0052 7B60     		str	r3, [r7, #4]
 272 0054 00E0     		b	.L19
 273              	.L23:
  48:AD5273BRJZ1.c ****     }
 274              		.loc 2 48 0
 275 0056 00BF     		nop
 276              	.L19:
  62:AD5273BRJZ1.c ****         }
  63:AD5273BRJZ1.c ****     }
  64:AD5273BRJZ1.c ****     
  65:AD5273BRJZ1.c ****     exit:
  66:AD5273BRJZ1.c ****     
  67:AD5273BRJZ1.c ****         if(TRANSFER_CMPLT != errorStatus)
 277              		.loc 2 67 0
 278 0058 7B68     		ldr	r3, [r7, #4]
ARM GAS  C:\Users\LOCALA~1\AppData\Local\Temp\cced8gR9.s 			page 18


 279 005a 002B     		cmp	r3, #0
 280 005c 01D0     		beq	.L21
  68:AD5273BRJZ1.c ****         {
  69:AD5273BRJZ1.c ****             errorStatus = TRANSFER_ERROR;
 281              		.loc 2 69 0
 282 005e FF23     		movs	r3, #255
 283 0060 7B60     		str	r3, [r7, #4]
 284              	.L21:
  70:AD5273BRJZ1.c ****         }
  71:AD5273BRJZ1.c ****     
  72:AD5273BRJZ1.c ****         return rdacVal;
 285              		.loc 2 72 0
 286 0062 FB78     		ldrb	r3, [r7, #3]	@ zero_extendqisi2
  73:AD5273BRJZ1.c **** }
 287              		.loc 2 73 0
 288 0064 1846     		mov	r0, r3
 289 0066 0837     		adds	r7, r7, #8
 290              		.cfi_def_cfa_offset 8
 291 0068 BD46     		mov	sp, r7
 292              		.cfi_def_cfa_register 13
 293              		@ sp needed
 294 006a 80BD     		pop	{r7, pc}
 295              	.L25:
 296              		.align	2
 297              	.L24:
 298 006c 0520AA00 		.word	11149317
 299 0070 0420AA00 		.word	11149316
 300              		.cfi_endproc
 301              	.LFE658:
 302              		.size	AD5273_ReadData, .-AD5273_ReadData
 303              		.section	.text.AD5273_WriteData,"ax",%progbits
 304              		.align	2
 305              		.global	AD5273_WriteData
 306              		.thumb
 307              		.thumb_func
 308              		.type	AD5273_WriteData, %function
 309              	AD5273_WriteData:
 310              	.LFB659:
  74:AD5273BRJZ1.c **** 
  75:AD5273BRJZ1.c **** uint8_t AD5273_WriteData(uint8_t val)
  76:AD5273BRJZ1.c **** {
 311              		.loc 2 76 0
 312              		.cfi_startproc
 313              		@ args = 0, pretend = 0, frame = 16
 314              		@ frame_needed = 1, uses_anonymous_args = 0
 315 0000 80B5     		push	{r7, lr}
 316              		.cfi_def_cfa_offset 8
 317              		.cfi_offset 7, -8
 318              		.cfi_offset 14, -4
 319 0002 84B0     		sub	sp, sp, #16
 320              		.cfi_def_cfa_offset 24
 321 0004 00AF     		add	r7, sp, #0
 322              		.cfi_def_cfa_register 7
 323 0006 0346     		mov	r3, r0
 324 0008 FB71     		strb	r3, [r7, #7]
  77:AD5273BRJZ1.c ****     uint32_t  errorStatus = TRANSFER_ERROR;
 325              		.loc 2 77 0
ARM GAS  C:\Users\LOCALA~1\AppData\Local\Temp\cced8gR9.s 			page 19


 326 000a FF23     		movs	r3, #255
 327 000c FB60     		str	r3, [r7, #12]
  78:AD5273BRJZ1.c ****     
  79:AD5273BRJZ1.c ****     if(val > 64) goto exit;
 328              		.loc 2 79 0
 329 000e FB79     		ldrb	r3, [r7, #7]	@ zero_extendqisi2
 330 0010 402B     		cmp	r3, #64
 331 0012 2DD8     		bhi	.L34
  80:AD5273BRJZ1.c ****     
  81:AD5273BRJZ1.c ****     errorStatus = I2C_MAX30105_MasterSendStart(AD5273_ADDRESS, CY_SCB_I2C_WRITE_XFER, I2C_TIMEOUT);
 332              		.loc 2 81 0
 333 0014 6422     		movs	r2, #100
 334 0016 0021     		movs	r1, #0
 335 0018 2C20     		movs	r0, #44
 336 001a FFF7FEFF 		bl	I2C_MAX30105_MasterSendStart
 337 001e F860     		str	r0, [r7, #12]
  82:AD5273BRJZ1.c ****     
  83:AD5273BRJZ1.c ****     if(CY_SCB_I2C_SUCCESS != errorStatus)
 338              		.loc 2 83 0
 339 0020 FB68     		ldr	r3, [r7, #12]
 340 0022 002B     		cmp	r3, #0
 341 0024 26D1     		bne	.L35
  84:AD5273BRJZ1.c ****     {
  85:AD5273BRJZ1.c ****        goto exit;
  86:AD5273BRJZ1.c ****     }
  87:AD5273BRJZ1.c ****     
  88:AD5273BRJZ1.c ****     errorStatus = I2C_MAX30105_MasterWriteByte(I2C_AD5273_INSTRUCTION_BYTE, I2C_TIMEOUT);
 342              		.loc 2 88 0
 343 0026 6421     		movs	r1, #100
 344 0028 0020     		movs	r0, #0
 345 002a FFF7FEFF 		bl	I2C_MAX30105_MasterWriteByte
 346 002e F860     		str	r0, [r7, #12]
  89:AD5273BRJZ1.c ****     
  90:AD5273BRJZ1.c ****     if(CY_SCB_I2C_SUCCESS != errorStatus)
 347              		.loc 2 90 0
 348 0030 FB68     		ldr	r3, [r7, #12]
 349 0032 002B     		cmp	r3, #0
 350 0034 20D1     		bne	.L36
  91:AD5273BRJZ1.c ****     {
  92:AD5273BRJZ1.c ****        goto exit;
  93:AD5273BRJZ1.c ****     }
  94:AD5273BRJZ1.c ****     
  95:AD5273BRJZ1.c ****     errorStatus = I2C_MAX30105_MasterWriteByte(val & AD5273_RDAC_MASK, I2C_TIMEOUT);
 351              		.loc 2 95 0
 352 0036 FB79     		ldrb	r3, [r7, #7]
 353 0038 03F03F03 		and	r3, r3, #63
 354 003c DBB2     		uxtb	r3, r3
 355 003e 6421     		movs	r1, #100
 356 0040 1846     		mov	r0, r3
 357 0042 FFF7FEFF 		bl	I2C_MAX30105_MasterWriteByte
 358 0046 F860     		str	r0, [r7, #12]
  96:AD5273BRJZ1.c ****     
  97:AD5273BRJZ1.c ****     /* Check status of transaction */
  98:AD5273BRJZ1.c ****     if ((errorStatus == CY_SCB_I2C_SUCCESS)           ||
 359              		.loc 2 98 0
 360 0048 FB68     		ldr	r3, [r7, #12]
 361 004a 002B     		cmp	r3, #0
ARM GAS  C:\Users\LOCALA~1\AppData\Local\Temp\cced8gR9.s 			page 20


 362 004c 07D0     		beq	.L31
 363              		.loc 2 98 0 is_stmt 0 discriminator 1
 364 004e FB68     		ldr	r3, [r7, #12]
 365 0050 0F4A     		ldr	r2, .L37
 366 0052 9342     		cmp	r3, r2
 367 0054 03D0     		beq	.L31
  99:AD5273BRJZ1.c ****         (errorStatus == CY_SCB_I2C_MASTER_MANUAL_NAK) ||
 368              		.loc 2 99 0 is_stmt 1
 369 0056 FB68     		ldr	r3, [r7, #12]
 370 0058 0E4A     		ldr	r2, .L37+4
 371 005a 9342     		cmp	r3, r2
 372 005c 0DD1     		bne	.L28
 373              	.L31:
 100:AD5273BRJZ1.c ****         (errorStatus == CY_SCB_I2C_MASTER_MANUAL_ADDR_NAK))
 101:AD5273BRJZ1.c ****     {
 102:AD5273BRJZ1.c ****         /* Send Stop condition on the bus */
 103:AD5273BRJZ1.c ****         if (I2C_MAX30105_MasterSendStop(I2C_TIMEOUT) == CY_SCB_I2C_SUCCESS)
 374              		.loc 2 103 0
 375 005e 6420     		movs	r0, #100
 376 0060 FFF7FEFF 		bl	I2C_MAX30105_MasterSendStop
 377 0064 0346     		mov	r3, r0
 378 0066 002B     		cmp	r3, #0
 379 0068 07D1     		bne	.L28
 104:AD5273BRJZ1.c ****         {
 105:AD5273BRJZ1.c ****            errorStatus = TRANSFER_CMPLT;
 380              		.loc 2 105 0
 381 006a 0023     		movs	r3, #0
 382 006c FB60     		str	r3, [r7, #12]
 383 006e 04E0     		b	.L28
 384              	.L34:
  79:AD5273BRJZ1.c ****     
 385              		.loc 2 79 0
 386 0070 00BF     		nop
 387 0072 02E0     		b	.L28
 388              	.L35:
  85:AD5273BRJZ1.c ****     }
 389              		.loc 2 85 0
 390 0074 00BF     		nop
 391 0076 00E0     		b	.L28
 392              	.L36:
  92:AD5273BRJZ1.c ****     }
 393              		.loc 2 92 0
 394 0078 00BF     		nop
 395              	.L28:
 106:AD5273BRJZ1.c ****         }
 107:AD5273BRJZ1.c ****     }
 108:AD5273BRJZ1.c ****     
 109:AD5273BRJZ1.c ****     
 110:AD5273BRJZ1.c ****   exit:
 111:AD5273BRJZ1.c ****     
 112:AD5273BRJZ1.c ****     if(TRANSFER_CMPLT != errorStatus)
 396              		.loc 2 112 0
 397 007a FB68     		ldr	r3, [r7, #12]
 398 007c 002B     		cmp	r3, #0
 399 007e 01D0     		beq	.L32
 113:AD5273BRJZ1.c ****     {
 114:AD5273BRJZ1.c ****        errorStatus = TRANSFER_ERROR;
ARM GAS  C:\Users\LOCALA~1\AppData\Local\Temp\cced8gR9.s 			page 21


 400              		.loc 2 114 0
 401 0080 FF23     		movs	r3, #255
 402 0082 FB60     		str	r3, [r7, #12]
 403              	.L32:
 115:AD5273BRJZ1.c ****     }
 116:AD5273BRJZ1.c ****     
 117:AD5273BRJZ1.c ****     return errorStatus;
 404              		.loc 2 117 0
 405 0084 FB68     		ldr	r3, [r7, #12]
 406 0086 DBB2     		uxtb	r3, r3
 118:AD5273BRJZ1.c **** }
 407              		.loc 2 118 0
 408 0088 1846     		mov	r0, r3
 409 008a 1037     		adds	r7, r7, #16
 410              		.cfi_def_cfa_offset 8
 411 008c BD46     		mov	sp, r7
 412              		.cfi_def_cfa_register 13
 413              		@ sp needed
 414 008e 80BD     		pop	{r7, pc}
 415              	.L38:
 416              		.align	2
 417              	.L37:
 418 0090 0520AA00 		.word	11149317
 419 0094 0420AA00 		.word	11149316
 420              		.cfi_endproc
 421              	.LFE659:
 422              		.size	AD5273_WriteData, .-AD5273_WriteData
 423              		.global	__aeabi_f2d
 424              		.global	__aeabi_dmul
 425              		.global	__aeabi_d2uiz
 426              		.section	.text.AD5273_SetWiper,"ax",%progbits
 427              		.align	2
 428              		.global	AD5273_SetWiper
 429              		.thumb
 430              		.thumb_func
 431              		.type	AD5273_SetWiper, %function
 432              	AD5273_SetWiper:
 433              	.LFB660:
 119:AD5273BRJZ1.c **** 
 120:AD5273BRJZ1.c **** void AD5273_SetWiper(uint32_t resVal)
 121:AD5273BRJZ1.c **** {
 434              		.loc 2 121 0
 435              		.cfi_startproc
 436              		@ args = 0, pretend = 0, frame = 16
 437              		@ frame_needed = 1, uses_anonymous_args = 0
 438 0000 90B5     		push	{r4, r7, lr}
 439              		.cfi_def_cfa_offset 12
 440              		.cfi_offset 4, -12
 441              		.cfi_offset 7, -8
 442              		.cfi_offset 14, -4
 443 0002 85B0     		sub	sp, sp, #20
 444              		.cfi_def_cfa_offset 32
 445 0004 00AF     		add	r7, sp, #0
 446              		.cfi_def_cfa_register 7
 447 0006 7860     		str	r0, [r7, #4]
 122:AD5273BRJZ1.c ****     uint8_t result = 0U;
 448              		.loc 2 122 0
ARM GAS  C:\Users\LOCALA~1\AppData\Local\Temp\cced8gR9.s 			page 22


 449 0008 0023     		movs	r3, #0
 450 000a BB73     		strb	r3, [r7, #14]
 123:AD5273BRJZ1.c ****     uint8_t rdacVal = 0U;
 451              		.loc 2 123 0
 452 000c 0023     		movs	r3, #0
 453 000e FB73     		strb	r3, [r7, #15]
 124:AD5273BRJZ1.c ****     
 125:AD5273BRJZ1.c ****     if(0x00 != resVal)
 454              		.loc 2 125 0
 455 0010 7B68     		ldr	r3, [r7, #4]
 456 0012 002B     		cmp	r3, #0
 457 0014 20D0     		beq	.L40
 126:AD5273BRJZ1.c ****     {
 127:AD5273BRJZ1.c ****       /* R_WB(D) = (D * R_AB)/63 + R_W 
 128:AD5273BRJZ1.c ****         rdacVal is D in this equation*/
 129:AD5273BRJZ1.c ****       rdacVal = (uint8_t)ceil(((resVal - R_W_VALUE)/ (float)R_AB_VALUE) * 63.0);
 458              		.loc 2 129 0
 459 0016 7B68     		ldr	r3, [r7, #4]
 460 0018 3C3B     		subs	r3, r3, #60
 461 001a 07EE903A 		vmov	s15, r3	@ int
 462 001e F8EE677A 		vcvt.f32.u32	s15, s15
 463 0022 9FED177A 		vldr.32	s14, .L43
 464 0026 C7EE876A 		vdiv.f32	s13, s15, s14
 465 002a 16EE900A 		vmov	r0, s13
 466 002e FFF7FEFF 		bl	__aeabi_f2d
 467 0032 4FF00002 		mov	r2, #0
 468 0036 134B     		ldr	r3, .L43+4
 469 0038 FFF7FEFF 		bl	__aeabi_dmul
 470 003c 0346     		mov	r3, r0
 471 003e 0C46     		mov	r4, r1
 472 0040 1846     		mov	r0, r3
 473 0042 2146     		mov	r1, r4
 474 0044 FFF7FEFF 		bl	ceil
 475 0048 0346     		mov	r3, r0
 476 004a 0C46     		mov	r4, r1
 477 004c 1846     		mov	r0, r3
 478 004e 2146     		mov	r1, r4
 479 0050 FFF7FEFF 		bl	__aeabi_d2uiz
 480 0054 0346     		mov	r3, r0
 481 0056 FB73     		strb	r3, [r7, #15]
 482              	.L40:
 130:AD5273BRJZ1.c ****     }
 131:AD5273BRJZ1.c ****     
 132:AD5273BRJZ1.c ****     AD5273_WriteData(rdacVal);
 483              		.loc 2 132 0
 484 0058 FB7B     		ldrb	r3, [r7, #15]	@ zero_extendqisi2
 485 005a 1846     		mov	r0, r3
 486 005c FFF7FEFF 		bl	AD5273_WriteData
 133:AD5273BRJZ1.c ****     
 134:AD5273BRJZ1.c ****     result = AD5273_ReadData();
 487              		.loc 2 134 0
 488 0060 FFF7FEFF 		bl	AD5273_ReadData
 489 0064 0346     		mov	r3, r0
 490 0066 BB73     		strb	r3, [r7, #14]
 135:AD5273BRJZ1.c ****     
 136:AD5273BRJZ1.c ****     if(((AD5273_E1_STATUS_MASK | AD5273_E0_STATUS_MASK) & result) != 0x00)
 491              		.loc 2 136 0
ARM GAS  C:\Users\LOCALA~1\AppData\Local\Temp\cced8gR9.s 			page 23


 492 0068 BB7B     		ldrb	r3, [r7, #14]
 493 006a 23F03F03 		bic	r3, r3, #63
 494 006e DBB2     		uxtb	r3, r3
 495 0070 002B     		cmp	r3, #0
 496 0072 01D0     		beq	.L42
 137:AD5273BRJZ1.c ****     {
 138:AD5273BRJZ1.c ****         HandleError();
 497              		.loc 2 138 0
 498 0074 FFF7FEFF 		bl	HandleError
 499              	.L42:
 139:AD5273BRJZ1.c ****     }
 140:AD5273BRJZ1.c **** }
 500              		.loc 2 140 0
 501 0078 00BF     		nop
 502 007a 1437     		adds	r7, r7, #20
 503              		.cfi_def_cfa_offset 12
 504 007c BD46     		mov	sp, r7
 505              		.cfi_def_cfa_register 13
 506              		@ sp needed
 507 007e 90BD     		pop	{r4, r7, pc}
 508              	.L44:
 509              		.align	2
 510              	.L43:
 511 0080 00401C46 		.word	1176256512
 512 0084 00804F40 		.word	1078951936
 513              		.cfi_endproc
 514              	.LFE660:
 515              		.size	AD5273_SetWiper, .-AD5273_SetWiper
 516              		.section	.text.HandleError,"ax",%progbits
 517              		.align	2
 518              		.thumb
 519              		.thumb_func
 520              		.type	HandleError, %function
 521              	HandleError:
 522              	.LFB661:
 141:AD5273BRJZ1.c **** 
 142:AD5273BRJZ1.c **** 
 143:AD5273BRJZ1.c **** /*******************************************************************************
 144:AD5273BRJZ1.c **** * Function Name: HandleError
 145:AD5273BRJZ1.c **** ****************************************************************************//**
 146:AD5273BRJZ1.c **** *
 147:AD5273BRJZ1.c **** * This function processes unrecoverable errors such as any component 
 148:AD5273BRJZ1.c **** * initialization errors etc. In case of such error the system will 
 149:AD5273BRJZ1.c **** * stay in the infinite loop of this function.
 150:AD5273BRJZ1.c **** *
 151:AD5273BRJZ1.c **** *
 152:AD5273BRJZ1.c **** * \note
 153:AD5273BRJZ1.c **** * * If error ocuurs interrupts are disabled.
 154:AD5273BRJZ1.c **** *
 155:AD5273BRJZ1.c **** *******************************************************************************/
 156:AD5273BRJZ1.c **** static void HandleError(void)
 157:AD5273BRJZ1.c **** {   
 523              		.loc 2 157 0
 524              		.cfi_startproc
 525              		@ args = 0, pretend = 0, frame = 0
 526              		@ frame_needed = 1, uses_anonymous_args = 0
 527              		@ link register save eliminated.
ARM GAS  C:\Users\LOCALA~1\AppData\Local\Temp\cced8gR9.s 			page 24


 528 0000 80B4     		push	{r7}
 529              		.cfi_def_cfa_offset 4
 530              		.cfi_offset 7, -4
 531 0002 00AF     		add	r7, sp, #0
 532              		.cfi_def_cfa_register 7
 533              	.LBB4:
 534              	.LBB5:
 535              		.file 3 "Generated_Source\\PSoC6\\pdl\\cmsis/include/cmsis_gcc.h"
   1:Generated_Source\PSoC6\pdl\cmsis/include/cmsis_gcc.h **** /**************************************************************************//**
   2:Generated_Source\PSoC6\pdl\cmsis/include/cmsis_gcc.h ****  * @file     cmsis_gcc.h
   3:Generated_Source\PSoC6\pdl\cmsis/include/cmsis_gcc.h ****  * @brief    CMSIS compiler GCC header file
   4:Generated_Source\PSoC6\pdl\cmsis/include/cmsis_gcc.h ****  * @version  V5.0.3
   5:Generated_Source\PSoC6\pdl\cmsis/include/cmsis_gcc.h ****  * @date     16. January 2018
   6:Generated_Source\PSoC6\pdl\cmsis/include/cmsis_gcc.h ****  ******************************************************************************/
   7:Generated_Source\PSoC6\pdl\cmsis/include/cmsis_gcc.h **** /*
   8:Generated_Source\PSoC6\pdl\cmsis/include/cmsis_gcc.h ****  * Copyright (c) 2009-2017 ARM Limited. All rights reserved.
   9:Generated_Source\PSoC6\pdl\cmsis/include/cmsis_gcc.h ****  *
  10:Generated_Source\PSoC6\pdl\cmsis/include/cmsis_gcc.h ****  * SPDX-License-Identifier: Apache-2.0
  11:Generated_Source\PSoC6\pdl\cmsis/include/cmsis_gcc.h ****  *
  12:Generated_Source\PSoC6\pdl\cmsis/include/cmsis_gcc.h ****  * Licensed under the Apache License, Version 2.0 (the License); you may
  13:Generated_Source\PSoC6\pdl\cmsis/include/cmsis_gcc.h ****  * not use this file except in compliance with the License.
  14:Generated_Source\PSoC6\pdl\cmsis/include/cmsis_gcc.h ****  * You may obtain a copy of the License at
  15:Generated_Source\PSoC6\pdl\cmsis/include/cmsis_gcc.h ****  *
  16:Generated_Source\PSoC6\pdl\cmsis/include/cmsis_gcc.h ****  * www.apache.org/licenses/LICENSE-2.0
  17:Generated_Source\PSoC6\pdl\cmsis/include/cmsis_gcc.h ****  *
  18:Generated_Source\PSoC6\pdl\cmsis/include/cmsis_gcc.h ****  * Unless required by applicable law or agreed to in writing, software
  19:Generated_Source\PSoC6\pdl\cmsis/include/cmsis_gcc.h ****  * distributed under the License is distributed on an AS IS BASIS, WITHOUT
  20:Generated_Source\PSoC6\pdl\cmsis/include/cmsis_gcc.h ****  * WARRANTIES OR CONDITIONS OF ANY KIND, either express or implied.
  21:Generated_Source\PSoC6\pdl\cmsis/include/cmsis_gcc.h ****  * See the License for the specific language governing permissions and
  22:Generated_Source\PSoC6\pdl\cmsis/include/cmsis_gcc.h ****  * limitations under the License.
  23:Generated_Source\PSoC6\pdl\cmsis/include/cmsis_gcc.h ****  */
  24:Generated_Source\PSoC6\pdl\cmsis/include/cmsis_gcc.h **** 
  25:Generated_Source\PSoC6\pdl\cmsis/include/cmsis_gcc.h **** #ifndef __CMSIS_GCC_H
  26:Generated_Source\PSoC6\pdl\cmsis/include/cmsis_gcc.h **** #define __CMSIS_GCC_H
  27:Generated_Source\PSoC6\pdl\cmsis/include/cmsis_gcc.h **** 
  28:Generated_Source\PSoC6\pdl\cmsis/include/cmsis_gcc.h **** /* ignore some GCC warnings */
  29:Generated_Source\PSoC6\pdl\cmsis/include/cmsis_gcc.h **** #pragma GCC diagnostic push
  30:Generated_Source\PSoC6\pdl\cmsis/include/cmsis_gcc.h **** #pragma GCC diagnostic ignored "-Wsign-conversion"
  31:Generated_Source\PSoC6\pdl\cmsis/include/cmsis_gcc.h **** #pragma GCC diagnostic ignored "-Wconversion"
  32:Generated_Source\PSoC6\pdl\cmsis/include/cmsis_gcc.h **** #pragma GCC diagnostic ignored "-Wunused-parameter"
  33:Generated_Source\PSoC6\pdl\cmsis/include/cmsis_gcc.h **** 
  34:Generated_Source\PSoC6\pdl\cmsis/include/cmsis_gcc.h **** /* Fallback for __has_builtin */
  35:Generated_Source\PSoC6\pdl\cmsis/include/cmsis_gcc.h **** #ifndef __has_builtin
  36:Generated_Source\PSoC6\pdl\cmsis/include/cmsis_gcc.h ****   #define __has_builtin(x) (0)
  37:Generated_Source\PSoC6\pdl\cmsis/include/cmsis_gcc.h **** #endif
  38:Generated_Source\PSoC6\pdl\cmsis/include/cmsis_gcc.h **** 
  39:Generated_Source\PSoC6\pdl\cmsis/include/cmsis_gcc.h **** /* CMSIS compiler specific defines */
  40:Generated_Source\PSoC6\pdl\cmsis/include/cmsis_gcc.h **** #ifndef   __ASM
  41:Generated_Source\PSoC6\pdl\cmsis/include/cmsis_gcc.h ****   #define __ASM                                  __asm
  42:Generated_Source\PSoC6\pdl\cmsis/include/cmsis_gcc.h **** #endif
  43:Generated_Source\PSoC6\pdl\cmsis/include/cmsis_gcc.h **** #ifndef   __INLINE
  44:Generated_Source\PSoC6\pdl\cmsis/include/cmsis_gcc.h ****   #define __INLINE                               inline
  45:Generated_Source\PSoC6\pdl\cmsis/include/cmsis_gcc.h **** #endif
  46:Generated_Source\PSoC6\pdl\cmsis/include/cmsis_gcc.h **** #ifndef   __STATIC_INLINE
  47:Generated_Source\PSoC6\pdl\cmsis/include/cmsis_gcc.h ****   #define __STATIC_INLINE                        static inline
  48:Generated_Source\PSoC6\pdl\cmsis/include/cmsis_gcc.h **** #endif
  49:Generated_Source\PSoC6\pdl\cmsis/include/cmsis_gcc.h **** #ifndef   __STATIC_FORCEINLINE                 
ARM GAS  C:\Users\LOCALA~1\AppData\Local\Temp\cced8gR9.s 			page 25


  50:Generated_Source\PSoC6\pdl\cmsis/include/cmsis_gcc.h ****   #define __STATIC_FORCEINLINE                   __attribute__((always_inline)) static inline
  51:Generated_Source\PSoC6\pdl\cmsis/include/cmsis_gcc.h **** #endif                                           
  52:Generated_Source\PSoC6\pdl\cmsis/include/cmsis_gcc.h **** #ifndef   __NO_RETURN
  53:Generated_Source\PSoC6\pdl\cmsis/include/cmsis_gcc.h ****   #define __NO_RETURN                            __attribute__((__noreturn__))
  54:Generated_Source\PSoC6\pdl\cmsis/include/cmsis_gcc.h **** #endif
  55:Generated_Source\PSoC6\pdl\cmsis/include/cmsis_gcc.h **** #ifndef   __USED
  56:Generated_Source\PSoC6\pdl\cmsis/include/cmsis_gcc.h ****   #define __USED                                 __attribute__((used))
  57:Generated_Source\PSoC6\pdl\cmsis/include/cmsis_gcc.h **** #endif
  58:Generated_Source\PSoC6\pdl\cmsis/include/cmsis_gcc.h **** #ifndef   __WEAK
  59:Generated_Source\PSoC6\pdl\cmsis/include/cmsis_gcc.h ****   #define __WEAK                                 __attribute__((weak))
  60:Generated_Source\PSoC6\pdl\cmsis/include/cmsis_gcc.h **** #endif
  61:Generated_Source\PSoC6\pdl\cmsis/include/cmsis_gcc.h **** #ifndef   __PACKED
  62:Generated_Source\PSoC6\pdl\cmsis/include/cmsis_gcc.h ****   #define __PACKED                               __attribute__((packed, aligned(1)))
  63:Generated_Source\PSoC6\pdl\cmsis/include/cmsis_gcc.h **** #endif
  64:Generated_Source\PSoC6\pdl\cmsis/include/cmsis_gcc.h **** #ifndef   __PACKED_STRUCT
  65:Generated_Source\PSoC6\pdl\cmsis/include/cmsis_gcc.h ****   #define __PACKED_STRUCT                        struct __attribute__((packed, aligned(1)))
  66:Generated_Source\PSoC6\pdl\cmsis/include/cmsis_gcc.h **** #endif
  67:Generated_Source\PSoC6\pdl\cmsis/include/cmsis_gcc.h **** #ifndef   __PACKED_UNION
  68:Generated_Source\PSoC6\pdl\cmsis/include/cmsis_gcc.h ****   #define __PACKED_UNION                         union __attribute__((packed, aligned(1)))
  69:Generated_Source\PSoC6\pdl\cmsis/include/cmsis_gcc.h **** #endif
  70:Generated_Source\PSoC6\pdl\cmsis/include/cmsis_gcc.h **** #ifndef   __UNALIGNED_UINT32        /* deprecated */
  71:Generated_Source\PSoC6\pdl\cmsis/include/cmsis_gcc.h ****   #pragma GCC diagnostic push
  72:Generated_Source\PSoC6\pdl\cmsis/include/cmsis_gcc.h ****   #pragma GCC diagnostic ignored "-Wpacked"
  73:Generated_Source\PSoC6\pdl\cmsis/include/cmsis_gcc.h ****   #pragma GCC diagnostic ignored "-Wattributes"
  74:Generated_Source\PSoC6\pdl\cmsis/include/cmsis_gcc.h ****   struct __attribute__((packed)) T_UINT32 { uint32_t v; };
  75:Generated_Source\PSoC6\pdl\cmsis/include/cmsis_gcc.h ****   #pragma GCC diagnostic pop
  76:Generated_Source\PSoC6\pdl\cmsis/include/cmsis_gcc.h ****   #define __UNALIGNED_UINT32(x)                  (((struct T_UINT32 *)(x))->v)
  77:Generated_Source\PSoC6\pdl\cmsis/include/cmsis_gcc.h **** #endif
  78:Generated_Source\PSoC6\pdl\cmsis/include/cmsis_gcc.h **** #ifndef   __UNALIGNED_UINT16_WRITE
  79:Generated_Source\PSoC6\pdl\cmsis/include/cmsis_gcc.h ****   #pragma GCC diagnostic push
  80:Generated_Source\PSoC6\pdl\cmsis/include/cmsis_gcc.h ****   #pragma GCC diagnostic ignored "-Wpacked"
  81:Generated_Source\PSoC6\pdl\cmsis/include/cmsis_gcc.h ****   #pragma GCC diagnostic ignored "-Wattributes"
  82:Generated_Source\PSoC6\pdl\cmsis/include/cmsis_gcc.h ****   __PACKED_STRUCT T_UINT16_WRITE { uint16_t v; };
  83:Generated_Source\PSoC6\pdl\cmsis/include/cmsis_gcc.h ****   #pragma GCC diagnostic pop
  84:Generated_Source\PSoC6\pdl\cmsis/include/cmsis_gcc.h ****   #define __UNALIGNED_UINT16_WRITE(addr, val)    (void)((((struct T_UINT16_WRITE *)(void *)(addr))-
  85:Generated_Source\PSoC6\pdl\cmsis/include/cmsis_gcc.h **** #endif
  86:Generated_Source\PSoC6\pdl\cmsis/include/cmsis_gcc.h **** #ifndef   __UNALIGNED_UINT16_READ
  87:Generated_Source\PSoC6\pdl\cmsis/include/cmsis_gcc.h ****   #pragma GCC diagnostic push
  88:Generated_Source\PSoC6\pdl\cmsis/include/cmsis_gcc.h ****   #pragma GCC diagnostic ignored "-Wpacked"
  89:Generated_Source\PSoC6\pdl\cmsis/include/cmsis_gcc.h ****   #pragma GCC diagnostic ignored "-Wattributes"
  90:Generated_Source\PSoC6\pdl\cmsis/include/cmsis_gcc.h ****   __PACKED_STRUCT T_UINT16_READ { uint16_t v; };
  91:Generated_Source\PSoC6\pdl\cmsis/include/cmsis_gcc.h ****   #pragma GCC diagnostic pop
  92:Generated_Source\PSoC6\pdl\cmsis/include/cmsis_gcc.h ****   #define __UNALIGNED_UINT16_READ(addr)          (((const struct T_UINT16_READ *)(const void *)(add
  93:Generated_Source\PSoC6\pdl\cmsis/include/cmsis_gcc.h **** #endif
  94:Generated_Source\PSoC6\pdl\cmsis/include/cmsis_gcc.h **** #ifndef   __UNALIGNED_UINT32_WRITE
  95:Generated_Source\PSoC6\pdl\cmsis/include/cmsis_gcc.h ****   #pragma GCC diagnostic push
  96:Generated_Source\PSoC6\pdl\cmsis/include/cmsis_gcc.h ****   #pragma GCC diagnostic ignored "-Wpacked"
  97:Generated_Source\PSoC6\pdl\cmsis/include/cmsis_gcc.h ****   #pragma GCC diagnostic ignored "-Wattributes"
  98:Generated_Source\PSoC6\pdl\cmsis/include/cmsis_gcc.h ****   __PACKED_STRUCT T_UINT32_WRITE { uint32_t v; };
  99:Generated_Source\PSoC6\pdl\cmsis/include/cmsis_gcc.h ****   #pragma GCC diagnostic pop
 100:Generated_Source\PSoC6\pdl\cmsis/include/cmsis_gcc.h ****   #define __UNALIGNED_UINT32_WRITE(addr, val)    (void)((((struct T_UINT32_WRITE *)(void *)(addr))-
 101:Generated_Source\PSoC6\pdl\cmsis/include/cmsis_gcc.h **** #endif
 102:Generated_Source\PSoC6\pdl\cmsis/include/cmsis_gcc.h **** #ifndef   __UNALIGNED_UINT32_READ
 103:Generated_Source\PSoC6\pdl\cmsis/include/cmsis_gcc.h ****   #pragma GCC diagnostic push
 104:Generated_Source\PSoC6\pdl\cmsis/include/cmsis_gcc.h ****   #pragma GCC diagnostic ignored "-Wpacked"
 105:Generated_Source\PSoC6\pdl\cmsis/include/cmsis_gcc.h ****   #pragma GCC diagnostic ignored "-Wattributes"
 106:Generated_Source\PSoC6\pdl\cmsis/include/cmsis_gcc.h ****   __PACKED_STRUCT T_UINT32_READ { uint32_t v; };
ARM GAS  C:\Users\LOCALA~1\AppData\Local\Temp\cced8gR9.s 			page 26


 107:Generated_Source\PSoC6\pdl\cmsis/include/cmsis_gcc.h ****   #pragma GCC diagnostic pop
 108:Generated_Source\PSoC6\pdl\cmsis/include/cmsis_gcc.h ****   #define __UNALIGNED_UINT32_READ(addr)          (((const struct T_UINT32_READ *)(const void *)(add
 109:Generated_Source\PSoC6\pdl\cmsis/include/cmsis_gcc.h **** #endif
 110:Generated_Source\PSoC6\pdl\cmsis/include/cmsis_gcc.h **** #ifndef   __ALIGNED
 111:Generated_Source\PSoC6\pdl\cmsis/include/cmsis_gcc.h ****   #define __ALIGNED(x)                           __attribute__((aligned(x)))
 112:Generated_Source\PSoC6\pdl\cmsis/include/cmsis_gcc.h **** #endif
 113:Generated_Source\PSoC6\pdl\cmsis/include/cmsis_gcc.h **** #ifndef   __RESTRICT
 114:Generated_Source\PSoC6\pdl\cmsis/include/cmsis_gcc.h ****   #define __RESTRICT                             __restrict
 115:Generated_Source\PSoC6\pdl\cmsis/include/cmsis_gcc.h **** #endif
 116:Generated_Source\PSoC6\pdl\cmsis/include/cmsis_gcc.h **** 
 117:Generated_Source\PSoC6\pdl\cmsis/include/cmsis_gcc.h **** 
 118:Generated_Source\PSoC6\pdl\cmsis/include/cmsis_gcc.h **** /* ###########################  Core Function Access  ########################### */
 119:Generated_Source\PSoC6\pdl\cmsis/include/cmsis_gcc.h **** /** \ingroup  CMSIS_Core_FunctionInterface
 120:Generated_Source\PSoC6\pdl\cmsis/include/cmsis_gcc.h ****     \defgroup CMSIS_Core_RegAccFunctions CMSIS Core Register Access Functions
 121:Generated_Source\PSoC6\pdl\cmsis/include/cmsis_gcc.h ****   @{
 122:Generated_Source\PSoC6\pdl\cmsis/include/cmsis_gcc.h ****  */
 123:Generated_Source\PSoC6\pdl\cmsis/include/cmsis_gcc.h **** 
 124:Generated_Source\PSoC6\pdl\cmsis/include/cmsis_gcc.h **** /**
 125:Generated_Source\PSoC6\pdl\cmsis/include/cmsis_gcc.h ****   \brief   Enable IRQ Interrupts
 126:Generated_Source\PSoC6\pdl\cmsis/include/cmsis_gcc.h ****   \details Enables IRQ interrupts by clearing the I-bit in the CPSR.
 127:Generated_Source\PSoC6\pdl\cmsis/include/cmsis_gcc.h ****            Can only be executed in Privileged modes.
 128:Generated_Source\PSoC6\pdl\cmsis/include/cmsis_gcc.h ****  */
 129:Generated_Source\PSoC6\pdl\cmsis/include/cmsis_gcc.h **** __STATIC_FORCEINLINE void __enable_irq(void)
 130:Generated_Source\PSoC6\pdl\cmsis/include/cmsis_gcc.h **** {
 131:Generated_Source\PSoC6\pdl\cmsis/include/cmsis_gcc.h ****   __ASM volatile ("cpsie i" : : : "memory");
 132:Generated_Source\PSoC6\pdl\cmsis/include/cmsis_gcc.h **** }
 133:Generated_Source\PSoC6\pdl\cmsis/include/cmsis_gcc.h **** 
 134:Generated_Source\PSoC6\pdl\cmsis/include/cmsis_gcc.h **** 
 135:Generated_Source\PSoC6\pdl\cmsis/include/cmsis_gcc.h **** /**
 136:Generated_Source\PSoC6\pdl\cmsis/include/cmsis_gcc.h ****   \brief   Disable IRQ Interrupts
 137:Generated_Source\PSoC6\pdl\cmsis/include/cmsis_gcc.h ****   \details Disables IRQ interrupts by setting the I-bit in the CPSR.
 138:Generated_Source\PSoC6\pdl\cmsis/include/cmsis_gcc.h ****            Can only be executed in Privileged modes.
 139:Generated_Source\PSoC6\pdl\cmsis/include/cmsis_gcc.h ****  */
 140:Generated_Source\PSoC6\pdl\cmsis/include/cmsis_gcc.h **** __STATIC_FORCEINLINE void __disable_irq(void)
 141:Generated_Source\PSoC6\pdl\cmsis/include/cmsis_gcc.h **** {
 142:Generated_Source\PSoC6\pdl\cmsis/include/cmsis_gcc.h ****   __ASM volatile ("cpsid i" : : : "memory");
 536              		.loc 3 142 0
 537              		.syntax unified
 538              	@ 142 "Generated_Source\PSoC6\pdl\cmsis/include/cmsis_gcc.h" 1
 539 0004 72B6     		cpsid i
 540              	@ 0 "" 2
 541              		.thumb
 542              		.syntax unified
 543              	.L46:
 544              	.LBE5:
 545              	.LBE4:
 158:AD5273BRJZ1.c ****      /* Disable all interrupts. */
 159:AD5273BRJZ1.c ****     __disable_irq();
 160:AD5273BRJZ1.c ****     
 161:AD5273BRJZ1.c ****     /* Infinite loop. */
 162:AD5273BRJZ1.c ****     while(1u) {}
 546              		.loc 2 162 0 discriminator 1
 547 0006 FEE7     		b	.L46
 548              		.cfi_endproc
 549              	.LFE661:
 550              		.size	HandleError, .-HandleError
 551              		.text
ARM GAS  C:\Users\LOCALA~1\AppData\Local\Temp\cced8gR9.s 			page 27


 552              	.Letext0:
 553              		.file 4 "c:\\program files (x86)\\cypress\\psoc creator\\4.4\\psoc creator\\import\\gnu\\arm\\5.4.
 554              		.file 5 "c:\\program files (x86)\\cypress\\psoc creator\\4.4\\psoc creator\\import\\gnu\\arm\\5.4.
 555              		.file 6 "Generated_Source\\PSoC6\\pdl\\devices/psoc6/include/ip/cyip_scb.h"
 556              		.file 7 "Generated_Source\\PSoC6\\pdl\\devices/psoc6/include/psoc6_01_config.h"
 557              		.file 8 "Generated_Source\\PSoC6\\pdl\\drivers/peripheral/device/cy_device.h"
 558              		.file 9 "Generated_Source\\PSoC6\\pdl\\drivers/peripheral/sar/cy_sar.h"
 559              		.file 10 "Generated_Source\\PSoC6\\pdl\\drivers/peripheral/scb/cy_scb_i2c.h"
 560              		.file 11 "Generated_Source\\PSoC6\\pdl\\drivers/peripheral/scb/cy_scb_uart.h"
 561              		.file 12 "Generated_Source\\PSoC6\\pdl\\drivers/peripheral/tcpwm/cy_tcpwm_counter.h"
 562              		.file 13 "Generated_Source\\PSoC6/ADC_INVERTING_AMP.h"
 563              		.file 14 "Generated_Source\\PSoC6\\pdl\\cmsis/include/core_cm4.h"
 564              		.file 15 "Generated_Source\\PSoC6/Timer.h"
 565              		.file 16 "Generated_Source\\PSoC6/Uart_Printf.h"
 566              		.file 17 "Generated_Source\\PSoC6/Timer_1.h"
 567              		.file 18 "Generated_Source\\PSoC6/Timer_FillBuffers.h"