ARM GAS  C:\Users\LOCALA~1\AppData\Local\Temp\ccAMVuTJ.s 			page 1


   1              		.syntax unified
   2              		.cpu cortex-m4
   3              		.eabi_attribute 27, 1
   4              		.fpu fpv4-sp-d16
   5              		.eabi_attribute 20, 1
   6              		.eabi_attribute 21, 1
   7              		.eabi_attribute 23, 3
   8              		.eabi_attribute 24, 1
   9              		.eabi_attribute 25, 1
  10              		.eabi_attribute 26, 1
  11              		.eabi_attribute 30, 6
  12              		.eabi_attribute 34, 1
  13              		.eabi_attribute 18, 4
  14              		.thumb
  15              		.syntax unified
  16              		.file	"heartRate.c"
  17              		.text
  18              	.Ltext0:
  19              		.cfi_sections	.debug_frame
  20              		.global	IR_AC_Max
  21              		.data
  22              		.align	1
  23              		.type	IR_AC_Max, %object
  24              		.size	IR_AC_Max, 2
  25              	IR_AC_Max:
  26 0000 1400     		.short	20
  27              		.global	IR_AC_Min
  28              		.align	1
  29              		.type	IR_AC_Min, %object
  30              		.size	IR_AC_Min, 2
  31              	IR_AC_Min:
  32 0002 ECFF     		.short	-20
  33              		.global	IR_AC_Signal_Current
  34              		.bss
  35              		.align	1
  36              		.type	IR_AC_Signal_Current, %object
  37              		.size	IR_AC_Signal_Current, 2
  38              	IR_AC_Signal_Current:
  39 0000 0000     		.space	2
  40              		.comm	IR_AC_Signal_Previous,2,2
  41              		.global	IR_AC_Signal_min
  42              		.align	1
  43              		.type	IR_AC_Signal_min, %object
  44              		.size	IR_AC_Signal_min, 2
  45              	IR_AC_Signal_min:
  46 0002 0000     		.space	2
  47              		.global	IR_AC_Signal_max
  48              		.align	1
  49              		.type	IR_AC_Signal_max, %object
  50              		.size	IR_AC_Signal_max, 2
  51              	IR_AC_Signal_max:
  52 0004 0000     		.space	2
  53              		.comm	IR_Average_Estimated,2,2
  54              		.global	positiveEdge
  55              		.align	1
  56              		.type	positiveEdge, %object
  57              		.size	positiveEdge, 2
ARM GAS  C:\Users\LOCALA~1\AppData\Local\Temp\ccAMVuTJ.s 			page 2


  58              	positiveEdge:
  59 0006 0000     		.space	2
  60              		.global	negativeEdge
  61              		.align	1
  62              		.type	negativeEdge, %object
  63              		.size	negativeEdge, 2
  64              	negativeEdge:
  65 0008 0000     		.space	2
  66              		.global	ir_avg_reg
  67 000a 0000     		.align	2
  68              		.type	ir_avg_reg, %object
  69              		.size	ir_avg_reg, 4
  70              	ir_avg_reg:
  71 000c 00000000 		.space	4
  72              		.comm	cbuf,64,4
  73              		.global	offset
  74              		.type	offset, %object
  75              		.size	offset, 1
  76              	offset:
  77 0010 00       		.space	1
  78              		.section	.rodata
  79              		.align	2
  80              		.type	FIRCoeffs, %object
  81              		.size	FIRCoeffs, 24
  82              	FIRCoeffs:
  83 0000 AC00     		.short	172
  84 0002 4101     		.short	321
  85 0004 4302     		.short	579
  86 0006 9F03     		.short	927
  87 0008 5005     		.short	1360
  88 000a 4207     		.short	1858
  89 000c 5609     		.short	2390
  90 000e 640B     		.short	2916
  91 0010 3F0D     		.short	3391
  92 0012 B80E     		.short	3768
  93 0014 AC0F     		.short	4012
  94 0016 0010     		.short	4096
  95              		.section	.text.checkForBeat,"ax",%progbits
  96              		.align	2
  97              		.global	checkForBeat
  98              		.thumb
  99              		.thumb_func
 100              		.type	checkForBeat, %function
 101              	checkForBeat:
 102              	.LFB0:
 103              		.file 1 "heartRate.c"
   1:heartRate.c   **** /* ========================================
   2:heartRate.c   ****  *
   3:heartRate.c   ****  * Copyright YOUR COMPANY, THE YEAR
   4:heartRate.c   ****  * All Rights Reserved
   5:heartRate.c   ****  * UNPUBLISHED, LICENSED SOFTWARE.
   6:heartRate.c   ****  *
   7:heartRate.c   ****  * CONFIDENTIAL AND PROPRIETARY INFORMATION
   8:heartRate.c   ****  * WHICH IS THE PROPERTY OF your company.
   9:heartRate.c   ****  *
  10:heartRate.c   ****  * ========================================
  11:heartRate.c   **** */
ARM GAS  C:\Users\LOCALA~1\AppData\Local\Temp\ccAMVuTJ.s 			page 3


  12:heartRate.c   **** #include "heartRate.h"
  13:heartRate.c   **** 
  14:heartRate.c   **** int16_t IR_AC_Max = 20;
  15:heartRate.c   **** int16_t IR_AC_Min = -20;
  16:heartRate.c   **** 
  17:heartRate.c   **** int16_t IR_AC_Signal_Current = 0;
  18:heartRate.c   **** int16_t IR_AC_Signal_Previous;
  19:heartRate.c   **** int16_t IR_AC_Signal_min = 0;
  20:heartRate.c   **** int16_t IR_AC_Signal_max = 0;
  21:heartRate.c   **** int16_t IR_Average_Estimated;
  22:heartRate.c   **** 
  23:heartRate.c   **** int16_t positiveEdge = 0;
  24:heartRate.c   **** int16_t negativeEdge = 0;
  25:heartRate.c   **** int32_t ir_avg_reg = 0;
  26:heartRate.c   **** 
  27:heartRate.c   **** int16_t cbuf[32];
  28:heartRate.c   **** uint8_t offset = 0;
  29:heartRate.c   **** 
  30:heartRate.c   **** static const uint16_t FIRCoeffs[12] = {172, 321, 579, 927, 1360, 1858, 2390, 2916, 3391, 3768, 4012
  31:heartRate.c   **** 
  32:heartRate.c   **** //  Heart Rate Monitor functions takes a sample value and the sample number
  33:heartRate.c   **** //  Returns true if a beat is detected
  34:heartRate.c   **** //  A running average of four samples is recommended for display on the screen.
  35:heartRate.c   **** bool checkForBeat(int32_t sample)
  36:heartRate.c   **** {
 104              		.loc 1 36 0
 105              		.cfi_startproc
 106              		@ args = 0, pretend = 0, frame = 16
 107              		@ frame_needed = 1, uses_anonymous_args = 0
 108 0000 80B5     		push	{r7, lr}
 109              		.cfi_def_cfa_offset 8
 110              		.cfi_offset 7, -8
 111              		.cfi_offset 14, -4
 112 0002 84B0     		sub	sp, sp, #16
 113              		.cfi_def_cfa_offset 24
 114 0004 00AF     		add	r7, sp, #0
 115              		.cfi_def_cfa_register 7
 116 0006 7860     		str	r0, [r7, #4]
  37:heartRate.c   ****   bool beatDetected = false;
 117              		.loc 1 37 0
 118 0008 0023     		movs	r3, #0
 119 000a FB73     		strb	r3, [r7, #15]
  38:heartRate.c   **** 
  39:heartRate.c   ****   //  Save current state
  40:heartRate.c   ****   IR_AC_Signal_Previous = IR_AC_Signal_Current;
 120              		.loc 1 40 0
 121 000c 5A4B     		ldr	r3, .L7
 122 000e B3F90020 		ldrsh	r2, [r3]
 123 0012 5A4B     		ldr	r3, .L7+4
 124 0014 1A80     		strh	r2, [r3]	@ movhi
  41:heartRate.c   ****   
  42:heartRate.c   ****   //This is good to view for debugging
  43:heartRate.c   ****   //Serial.print("Signal_Current: ");
  44:heartRate.c   ****   //Serial.println(IR_AC_Signal_Current);
  45:heartRate.c   **** 
  46:heartRate.c   ****   //  Process next data sample
  47:heartRate.c   ****   IR_Average_Estimated = averageDCEstimator(&ir_avg_reg, sample);
ARM GAS  C:\Users\LOCALA~1\AppData\Local\Temp\ccAMVuTJ.s 			page 4


 125              		.loc 1 47 0
 126 0016 7B68     		ldr	r3, [r7, #4]
 127 0018 9BB2     		uxth	r3, r3
 128 001a 1946     		mov	r1, r3
 129 001c 5848     		ldr	r0, .L7+8
 130 001e FFF7FEFF 		bl	averageDCEstimator
 131 0022 0346     		mov	r3, r0
 132 0024 1A46     		mov	r2, r3
 133 0026 574B     		ldr	r3, .L7+12
 134 0028 1A80     		strh	r2, [r3]	@ movhi
  48:heartRate.c   ****   IR_AC_Signal_Current = lowPassFIRFilter(sample - IR_Average_Estimated);
 135              		.loc 1 48 0
 136 002a 7B68     		ldr	r3, [r7, #4]
 137 002c 9AB2     		uxth	r2, r3
 138 002e 554B     		ldr	r3, .L7+12
 139 0030 B3F90030 		ldrsh	r3, [r3]
 140 0034 9BB2     		uxth	r3, r3
 141 0036 D31A     		subs	r3, r2, r3
 142 0038 9BB2     		uxth	r3, r3
 143 003a 1BB2     		sxth	r3, r3
 144 003c 1846     		mov	r0, r3
 145 003e FFF7FEFF 		bl	lowPassFIRFilter
 146 0042 0346     		mov	r3, r0
 147 0044 1A46     		mov	r2, r3
 148 0046 4C4B     		ldr	r3, .L7
 149 0048 1A80     		strh	r2, [r3]	@ movhi
  49:heartRate.c   **** 
  50:heartRate.c   ****   //  Detect positive zero crossing (rising edge)
  51:heartRate.c   ****   if ((IR_AC_Signal_Previous < 0) & (IR_AC_Signal_Current >= 0))
 150              		.loc 1 51 0
 151 004a 4C4B     		ldr	r3, .L7+4
 152 004c B3F90030 		ldrsh	r3, [r3]
 153 0050 9BB2     		uxth	r3, r3
 154 0052 DB0B     		lsrs	r3, r3, #15
 155 0054 DAB2     		uxtb	r2, r3
 156 0056 484B     		ldr	r3, .L7
 157 0058 B3F90030 		ldrsh	r3, [r3]
 158 005c DB43     		mvns	r3, r3
 159 005e 9BB2     		uxth	r3, r3
 160 0060 DB0B     		lsrs	r3, r3, #15
 161 0062 DBB2     		uxtb	r3, r3
 162 0064 1340     		ands	r3, r3, r2
 163 0066 DBB2     		uxtb	r3, r3
 164 0068 002B     		cmp	r3, #0
 165 006a 34D0     		beq	.L2
  52:heartRate.c   ****   {
  53:heartRate.c   ****   
  54:heartRate.c   ****     IR_AC_Max = IR_AC_Signal_max; //Adjust our AC max and min
 166              		.loc 1 54 0
 167 006c 464B     		ldr	r3, .L7+16
 168 006e B3F90020 		ldrsh	r2, [r3]
 169 0072 464B     		ldr	r3, .L7+20
 170 0074 1A80     		strh	r2, [r3]	@ movhi
  55:heartRate.c   ****     IR_AC_Min = IR_AC_Signal_min;
 171              		.loc 1 55 0
 172 0076 464B     		ldr	r3, .L7+24
 173 0078 B3F90020 		ldrsh	r2, [r3]
ARM GAS  C:\Users\LOCALA~1\AppData\Local\Temp\ccAMVuTJ.s 			page 5


 174 007c 454B     		ldr	r3, .L7+28
 175 007e 1A80     		strh	r2, [r3]	@ movhi
  56:heartRate.c   **** 
  57:heartRate.c   ****     positiveEdge = 1;
 176              		.loc 1 57 0
 177 0080 454B     		ldr	r3, .L7+32
 178 0082 0122     		movs	r2, #1
 179 0084 1A80     		strh	r2, [r3]	@ movhi
  58:heartRate.c   ****     negativeEdge = 0;
 180              		.loc 1 58 0
 181 0086 454B     		ldr	r3, .L7+36
 182 0088 0022     		movs	r2, #0
 183 008a 1A80     		strh	r2, [r3]	@ movhi
  59:heartRate.c   ****     IR_AC_Signal_max = 0;
 184              		.loc 1 59 0
 185 008c 3E4B     		ldr	r3, .L7+16
 186 008e 0022     		movs	r2, #0
 187 0090 1A80     		strh	r2, [r3]	@ movhi
  60:heartRate.c   **** 
  61:heartRate.c   ****     //if ((IR_AC_Max - IR_AC_Min) > 100 & (IR_AC_Max - IR_AC_Min) < 1000)
  62:heartRate.c   ****     if (((IR_AC_Max - IR_AC_Min) > 20) & ((IR_AC_Max - IR_AC_Min) < 1000))
 188              		.loc 1 62 0
 189 0092 3E4B     		ldr	r3, .L7+20
 190 0094 B3F90030 		ldrsh	r3, [r3]
 191 0098 1A46     		mov	r2, r3
 192 009a 3E4B     		ldr	r3, .L7+28
 193 009c B3F90030 		ldrsh	r3, [r3]
 194 00a0 D31A     		subs	r3, r2, r3
 195 00a2 142B     		cmp	r3, #20
 196 00a4 CCBF     		ite	gt
 197 00a6 0123     		movgt	r3, #1
 198 00a8 0023     		movle	r3, #0
 199 00aa DAB2     		uxtb	r2, r3
 200 00ac 374B     		ldr	r3, .L7+20
 201 00ae B3F90030 		ldrsh	r3, [r3]
 202 00b2 1946     		mov	r1, r3
 203 00b4 374B     		ldr	r3, .L7+28
 204 00b6 B3F90030 		ldrsh	r3, [r3]
 205 00ba CB1A     		subs	r3, r1, r3
 206 00bc 40F2E731 		movw	r1, #999
 207 00c0 8B42     		cmp	r3, r1
 208 00c2 D4BF     		ite	le
 209 00c4 0123     		movle	r3, #1
 210 00c6 0023     		movgt	r3, #0
 211 00c8 DBB2     		uxtb	r3, r3
 212 00ca 1340     		ands	r3, r3, r2
 213 00cc DBB2     		uxtb	r3, r3
 214 00ce 002B     		cmp	r3, #0
 215 00d0 01D0     		beq	.L2
  63:heartRate.c   ****     {
  64:heartRate.c   ****       //Heart beat!!!
  65:heartRate.c   ****       beatDetected = true;
 216              		.loc 1 65 0
 217 00d2 0123     		movs	r3, #1
 218 00d4 FB73     		strb	r3, [r7, #15]
 219              	.L2:
  66:heartRate.c   ****     }
ARM GAS  C:\Users\LOCALA~1\AppData\Local\Temp\ccAMVuTJ.s 			page 6


  67:heartRate.c   ****   }
  68:heartRate.c   **** 
  69:heartRate.c   ****   //  Detect negative zero crossing (falling edge)
  70:heartRate.c   ****   if ((IR_AC_Signal_Previous > 0) & (IR_AC_Signal_Current <= 0))
 220              		.loc 1 70 0
 221 00d6 294B     		ldr	r3, .L7+4
 222 00d8 B3F90030 		ldrsh	r3, [r3]
 223 00dc 002B     		cmp	r3, #0
 224 00de CCBF     		ite	gt
 225 00e0 0123     		movgt	r3, #1
 226 00e2 0023     		movle	r3, #0
 227 00e4 DAB2     		uxtb	r2, r3
 228 00e6 244B     		ldr	r3, .L7
 229 00e8 B3F90030 		ldrsh	r3, [r3]
 230 00ec 002B     		cmp	r3, #0
 231 00ee D4BF     		ite	le
 232 00f0 0123     		movle	r3, #1
 233 00f2 0023     		movgt	r3, #0
 234 00f4 DBB2     		uxtb	r3, r3
 235 00f6 1340     		ands	r3, r3, r2
 236 00f8 DBB2     		uxtb	r3, r3
 237 00fa 002B     		cmp	r3, #0
 238 00fc 08D0     		beq	.L3
  71:heartRate.c   ****   {
  72:heartRate.c   ****     positiveEdge = 0;
 239              		.loc 1 72 0
 240 00fe 264B     		ldr	r3, .L7+32
 241 0100 0022     		movs	r2, #0
 242 0102 1A80     		strh	r2, [r3]	@ movhi
  73:heartRate.c   ****     negativeEdge = 1;
 243              		.loc 1 73 0
 244 0104 254B     		ldr	r3, .L7+36
 245 0106 0122     		movs	r2, #1
 246 0108 1A80     		strh	r2, [r3]	@ movhi
  74:heartRate.c   ****     IR_AC_Signal_min = 0;
 247              		.loc 1 74 0
 248 010a 214B     		ldr	r3, .L7+24
 249 010c 0022     		movs	r2, #0
 250 010e 1A80     		strh	r2, [r3]	@ movhi
 251              	.L3:
  75:heartRate.c   ****   }
  76:heartRate.c   **** 
  77:heartRate.c   ****   //  Find Maximum value in positive cycle
  78:heartRate.c   ****   if (positiveEdge & (IR_AC_Signal_Current > IR_AC_Signal_Previous))
 252              		.loc 1 78 0
 253 0110 214B     		ldr	r3, .L7+32
 254 0112 B3F90030 		ldrsh	r3, [r3]
 255 0116 1946     		mov	r1, r3
 256 0118 174B     		ldr	r3, .L7
 257 011a B3F90020 		ldrsh	r2, [r3]
 258 011e 174B     		ldr	r3, .L7+4
 259 0120 B3F90030 		ldrsh	r3, [r3]
 260 0124 9A42     		cmp	r2, r3
 261 0126 CCBF     		ite	gt
 262 0128 0123     		movgt	r3, #1
 263 012a 0023     		movle	r3, #0
 264 012c DBB2     		uxtb	r3, r3
ARM GAS  C:\Users\LOCALA~1\AppData\Local\Temp\ccAMVuTJ.s 			page 7


 265 012e 0B40     		ands	r3, r3, r1
 266 0130 002B     		cmp	r3, #0
 267 0132 04D0     		beq	.L4
  79:heartRate.c   ****   {
  80:heartRate.c   ****     IR_AC_Signal_max = IR_AC_Signal_Current;
 268              		.loc 1 80 0
 269 0134 104B     		ldr	r3, .L7
 270 0136 B3F90020 		ldrsh	r2, [r3]
 271 013a 134B     		ldr	r3, .L7+16
 272 013c 1A80     		strh	r2, [r3]	@ movhi
 273              	.L4:
  81:heartRate.c   ****   }
  82:heartRate.c   **** 
  83:heartRate.c   ****   //  Find Minimum value in negative cycle
  84:heartRate.c   ****   if (negativeEdge & (IR_AC_Signal_Current < IR_AC_Signal_Previous))
 274              		.loc 1 84 0
 275 013e 174B     		ldr	r3, .L7+36
 276 0140 B3F90030 		ldrsh	r3, [r3]
 277 0144 1946     		mov	r1, r3
 278 0146 0C4B     		ldr	r3, .L7
 279 0148 B3F90020 		ldrsh	r2, [r3]
 280 014c 0B4B     		ldr	r3, .L7+4
 281 014e B3F90030 		ldrsh	r3, [r3]
 282 0152 9A42     		cmp	r2, r3
 283 0154 B4BF     		ite	lt
 284 0156 0123     		movlt	r3, #1
 285 0158 0023     		movge	r3, #0
 286 015a DBB2     		uxtb	r3, r3
 287 015c 0B40     		ands	r3, r3, r1
 288 015e 002B     		cmp	r3, #0
 289 0160 04D0     		beq	.L5
  85:heartRate.c   ****   {
  86:heartRate.c   ****     IR_AC_Signal_min = IR_AC_Signal_Current;
 290              		.loc 1 86 0
 291 0162 054B     		ldr	r3, .L7
 292 0164 B3F90020 		ldrsh	r2, [r3]
 293 0168 094B     		ldr	r3, .L7+24
 294 016a 1A80     		strh	r2, [r3]	@ movhi
 295              	.L5:
  87:heartRate.c   ****   }
  88:heartRate.c   ****   
  89:heartRate.c   ****   return(beatDetected);
 296              		.loc 1 89 0
 297 016c FB7B     		ldrb	r3, [r7, #15]	@ zero_extendqisi2
  90:heartRate.c   **** }
 298              		.loc 1 90 0
 299 016e 1846     		mov	r0, r3
 300 0170 1037     		adds	r7, r7, #16
 301              		.cfi_def_cfa_offset 8
 302 0172 BD46     		mov	sp, r7
 303              		.cfi_def_cfa_register 13
 304              		@ sp needed
 305 0174 80BD     		pop	{r7, pc}
 306              	.L8:
 307 0176 00BF     		.align	2
 308              	.L7:
 309 0178 00000000 		.word	IR_AC_Signal_Current
ARM GAS  C:\Users\LOCALA~1\AppData\Local\Temp\ccAMVuTJ.s 			page 8


 310 017c 00000000 		.word	IR_AC_Signal_Previous
 311 0180 00000000 		.word	ir_avg_reg
 312 0184 00000000 		.word	IR_Average_Estimated
 313 0188 00000000 		.word	IR_AC_Signal_max
 314 018c 00000000 		.word	IR_AC_Max
 315 0190 00000000 		.word	IR_AC_Signal_min
 316 0194 00000000 		.word	IR_AC_Min
 317 0198 00000000 		.word	positiveEdge
 318 019c 00000000 		.word	negativeEdge
 319              		.cfi_endproc
 320              	.LFE0:
 321              		.size	checkForBeat, .-checkForBeat
 322              		.section	.text.averageDCEstimator,"ax",%progbits
 323              		.align	2
 324              		.global	averageDCEstimator
 325              		.thumb
 326              		.thumb_func
 327              		.type	averageDCEstimator, %function
 328              	averageDCEstimator:
 329              	.LFB1:
  91:heartRate.c   **** 
  92:heartRate.c   **** //  Average DC Estimator
  93:heartRate.c   **** int16_t averageDCEstimator(int32_t *p, uint16_t x)
  94:heartRate.c   **** {
 330              		.loc 1 94 0
 331              		.cfi_startproc
 332              		@ args = 0, pretend = 0, frame = 8
 333              		@ frame_needed = 1, uses_anonymous_args = 0
 334              		@ link register save eliminated.
 335 0000 80B4     		push	{r7}
 336              		.cfi_def_cfa_offset 4
 337              		.cfi_offset 7, -4
 338 0002 83B0     		sub	sp, sp, #12
 339              		.cfi_def_cfa_offset 16
 340 0004 00AF     		add	r7, sp, #0
 341              		.cfi_def_cfa_register 7
 342 0006 7860     		str	r0, [r7, #4]
 343 0008 0B46     		mov	r3, r1
 344 000a 7B80     		strh	r3, [r7, #2]	@ movhi
  95:heartRate.c   ****   *p += ((((long) x << 15) - *p) >> 4);
 345              		.loc 1 95 0
 346 000c 7B68     		ldr	r3, [r7, #4]
 347 000e 1A68     		ldr	r2, [r3]
 348 0010 7B88     		ldrh	r3, [r7, #2]
 349 0012 D903     		lsls	r1, r3, #15
 350 0014 7B68     		ldr	r3, [r7, #4]
 351 0016 1B68     		ldr	r3, [r3]
 352 0018 CB1A     		subs	r3, r1, r3
 353 001a 1B11     		asrs	r3, r3, #4
 354 001c 1A44     		add	r2, r2, r3
 355 001e 7B68     		ldr	r3, [r7, #4]
 356 0020 1A60     		str	r2, [r3]
  96:heartRate.c   ****   return (*p >> 15);
 357              		.loc 1 96 0
 358 0022 7B68     		ldr	r3, [r7, #4]
 359 0024 1B68     		ldr	r3, [r3]
 360 0026 DB13     		asrs	r3, r3, #15
ARM GAS  C:\Users\LOCALA~1\AppData\Local\Temp\ccAMVuTJ.s 			page 9


 361 0028 1BB2     		sxth	r3, r3
  97:heartRate.c   **** }
 362              		.loc 1 97 0
 363 002a 1846     		mov	r0, r3
 364 002c 0C37     		adds	r7, r7, #12
 365              		.cfi_def_cfa_offset 4
 366 002e BD46     		mov	sp, r7
 367              		.cfi_def_cfa_register 13
 368              		@ sp needed
 369 0030 5DF8047B 		ldr	r7, [sp], #4
 370              		.cfi_restore 7
 371              		.cfi_def_cfa_offset 0
 372 0034 7047     		bx	lr
 373              		.cfi_endproc
 374              	.LFE1:
 375              		.size	averageDCEstimator, .-averageDCEstimator
 376 0036 00BF     		.section	.text.lowPassFIRFilter,"ax",%progbits
 377              		.align	2
 378              		.global	lowPassFIRFilter
 379              		.thumb
 380              		.thumb_func
 381              		.type	lowPassFIRFilter, %function
 382              	lowPassFIRFilter:
 383              	.LFB2:
  98:heartRate.c   **** 
  99:heartRate.c   **** //  Low Pass FIR Filter
 100:heartRate.c   **** int16_t lowPassFIRFilter(int16_t din)
 101:heartRate.c   **** {  
 384              		.loc 1 101 0
 385              		.cfi_startproc
 386              		@ args = 0, pretend = 0, frame = 16
 387              		@ frame_needed = 1, uses_anonymous_args = 0
 388 0000 80B5     		push	{r7, lr}
 389              		.cfi_def_cfa_offset 8
 390              		.cfi_offset 7, -8
 391              		.cfi_offset 14, -4
 392 0002 84B0     		sub	sp, sp, #16
 393              		.cfi_def_cfa_offset 24
 394 0004 00AF     		add	r7, sp, #0
 395              		.cfi_def_cfa_register 7
 396 0006 0346     		mov	r3, r0
 397 0008 FB80     		strh	r3, [r7, #6]	@ movhi
 102:heartRate.c   ****   cbuf[offset] = din;
 398              		.loc 1 102 0
 399 000a 2C4B     		ldr	r3, .L15
 400 000c 1B78     		ldrb	r3, [r3]	@ zero_extendqisi2
 401 000e 1946     		mov	r1, r3
 402 0010 2B4A     		ldr	r2, .L15+4
 403 0012 FB88     		ldrh	r3, [r7, #6]	@ movhi
 404 0014 22F81130 		strh	r3, [r2, r1, lsl #1]	@ movhi
 103:heartRate.c   **** 
 104:heartRate.c   ****   int32_t z = mul16(FIRCoeffs[11], cbuf[(offset - 11) & 0x1F]);
 405              		.loc 1 104 0
 406 0018 4FF48053 		mov	r3, #4096
 407 001c 18B2     		sxth	r0, r3
 408 001e 274B     		ldr	r3, .L15
 409 0020 1B78     		ldrb	r3, [r3]	@ zero_extendqisi2
ARM GAS  C:\Users\LOCALA~1\AppData\Local\Temp\ccAMVuTJ.s 			page 10


 410 0022 0B3B     		subs	r3, r3, #11
 411 0024 03F01F03 		and	r3, r3, #31
 412 0028 254A     		ldr	r2, .L15+4
 413 002a 32F91330 		ldrsh	r3, [r2, r3, lsl #1]
 414 002e 1946     		mov	r1, r3
 415 0030 FFF7FEFF 		bl	mul16
 416 0034 F860     		str	r0, [r7, #12]
 417              	.LBB2:
 105:heartRate.c   ****   
 106:heartRate.c   ****   for (uint8_t i = 0 ; i < 11 ; i++)
 418              		.loc 1 106 0
 419 0036 0023     		movs	r3, #0
 420 0038 FB72     		strb	r3, [r7, #11]
 421 003a 28E0     		b	.L12
 422              	.L13:
 107:heartRate.c   ****   {
 108:heartRate.c   ****     z += mul16(FIRCoeffs[i], cbuf[(offset - i) & 0x1F] + cbuf[(offset - 22 + i) & 0x1F]);
 423              		.loc 1 108 0 discriminator 3
 424 003c FB7A     		ldrb	r3, [r7, #11]	@ zero_extendqisi2
 425 003e 214A     		ldr	r2, .L15+8
 426 0040 32F81330 		ldrh	r3, [r2, r3, lsl #1]
 427 0044 18B2     		sxth	r0, r3
 428 0046 1D4B     		ldr	r3, .L15
 429 0048 1B78     		ldrb	r3, [r3]	@ zero_extendqisi2
 430 004a 1A46     		mov	r2, r3
 431 004c FB7A     		ldrb	r3, [r7, #11]	@ zero_extendqisi2
 432 004e D31A     		subs	r3, r2, r3
 433 0050 03F01F03 		and	r3, r3, #31
 434 0054 1A4A     		ldr	r2, .L15+4
 435 0056 32F91330 		ldrsh	r3, [r2, r3, lsl #1]
 436 005a 9AB2     		uxth	r2, r3
 437 005c 174B     		ldr	r3, .L15
 438 005e 1B78     		ldrb	r3, [r3]	@ zero_extendqisi2
 439 0060 A3F11601 		sub	r1, r3, #22
 440 0064 FB7A     		ldrb	r3, [r7, #11]	@ zero_extendqisi2
 441 0066 0B44     		add	r3, r3, r1
 442 0068 03F01F03 		and	r3, r3, #31
 443 006c 1449     		ldr	r1, .L15+4
 444 006e 31F91330 		ldrsh	r3, [r1, r3, lsl #1]
 445 0072 9BB2     		uxth	r3, r3
 446 0074 1344     		add	r3, r3, r2
 447 0076 9BB2     		uxth	r3, r3
 448 0078 1BB2     		sxth	r3, r3
 449 007a 1946     		mov	r1, r3
 450 007c FFF7FEFF 		bl	mul16
 451 0080 0246     		mov	r2, r0
 452 0082 FB68     		ldr	r3, [r7, #12]
 453 0084 1344     		add	r3, r3, r2
 454 0086 FB60     		str	r3, [r7, #12]
 106:heartRate.c   ****   {
 455              		.loc 1 106 0 discriminator 3
 456 0088 FB7A     		ldrb	r3, [r7, #11]	@ zero_extendqisi2
 457 008a 0133     		adds	r3, r3, #1
 458 008c FB72     		strb	r3, [r7, #11]
 459              	.L12:
 106:heartRate.c   ****   {
 460              		.loc 1 106 0 is_stmt 0 discriminator 1
ARM GAS  C:\Users\LOCALA~1\AppData\Local\Temp\ccAMVuTJ.s 			page 11


 461 008e FB7A     		ldrb	r3, [r7, #11]	@ zero_extendqisi2
 462 0090 0A2B     		cmp	r3, #10
 463 0092 D3D9     		bls	.L13
 464              	.LBE2:
 109:heartRate.c   ****   }
 110:heartRate.c   **** 
 111:heartRate.c   ****   offset++;
 465              		.loc 1 111 0 is_stmt 1
 466 0094 094B     		ldr	r3, .L15
 467 0096 1B78     		ldrb	r3, [r3]	@ zero_extendqisi2
 468 0098 0133     		adds	r3, r3, #1
 469 009a DAB2     		uxtb	r2, r3
 470 009c 074B     		ldr	r3, .L15
 471 009e 1A70     		strb	r2, [r3]
 112:heartRate.c   ****   offset %= 32; //Wrap condition
 472              		.loc 1 112 0
 473 00a0 064B     		ldr	r3, .L15
 474 00a2 1B78     		ldrb	r3, [r3]	@ zero_extendqisi2
 475 00a4 03F01F03 		and	r3, r3, #31
 476 00a8 DAB2     		uxtb	r2, r3
 477 00aa 044B     		ldr	r3, .L15
 478 00ac 1A70     		strb	r2, [r3]
 113:heartRate.c   **** 
 114:heartRate.c   ****   return(z >> 15);
 479              		.loc 1 114 0
 480 00ae FB68     		ldr	r3, [r7, #12]
 481 00b0 DB13     		asrs	r3, r3, #15
 482 00b2 1BB2     		sxth	r3, r3
 115:heartRate.c   **** }
 483              		.loc 1 115 0
 484 00b4 1846     		mov	r0, r3
 485 00b6 1037     		adds	r7, r7, #16
 486              		.cfi_def_cfa_offset 8
 487 00b8 BD46     		mov	sp, r7
 488              		.cfi_def_cfa_register 13
 489              		@ sp needed
 490 00ba 80BD     		pop	{r7, pc}
 491              	.L16:
 492              		.align	2
 493              	.L15:
 494 00bc 00000000 		.word	offset
 495 00c0 00000000 		.word	cbuf
 496 00c4 00000000 		.word	FIRCoeffs
 497              		.cfi_endproc
 498              	.LFE2:
 499              		.size	lowPassFIRFilter, .-lowPassFIRFilter
 500              		.section	.text.mul16,"ax",%progbits
 501              		.align	2
 502              		.global	mul16
 503              		.thumb
 504              		.thumb_func
 505              		.type	mul16, %function
 506              	mul16:
 507              	.LFB3:
 116:heartRate.c   **** 
 117:heartRate.c   **** //  Integer multiplier
 118:heartRate.c   **** int32_t mul16(int16_t x, int16_t y)
ARM GAS  C:\Users\LOCALA~1\AppData\Local\Temp\ccAMVuTJ.s 			page 12


 119:heartRate.c   **** {
 508              		.loc 1 119 0
 509              		.cfi_startproc
 510              		@ args = 0, pretend = 0, frame = 8
 511              		@ frame_needed = 1, uses_anonymous_args = 0
 512              		@ link register save eliminated.
 513 0000 80B4     		push	{r7}
 514              		.cfi_def_cfa_offset 4
 515              		.cfi_offset 7, -4
 516 0002 83B0     		sub	sp, sp, #12
 517              		.cfi_def_cfa_offset 16
 518 0004 00AF     		add	r7, sp, #0
 519              		.cfi_def_cfa_register 7
 520 0006 0346     		mov	r3, r0
 521 0008 0A46     		mov	r2, r1
 522 000a FB80     		strh	r3, [r7, #6]	@ movhi
 523 000c 1346     		mov	r3, r2	@ movhi
 524 000e BB80     		strh	r3, [r7, #4]	@ movhi
 120:heartRate.c   ****   return((long)x * (long)y);
 525              		.loc 1 120 0
 526 0010 B7F90630 		ldrsh	r3, [r7, #6]
 527 0014 B7F90420 		ldrsh	r2, [r7, #4]
 528 0018 02FB03F3 		mul	r3, r2, r3
 121:heartRate.c   **** }
 529              		.loc 1 121 0
 530 001c 1846     		mov	r0, r3
 531 001e 0C37     		adds	r7, r7, #12
 532              		.cfi_def_cfa_offset 4
 533 0020 BD46     		mov	sp, r7
 534              		.cfi_def_cfa_register 13
 535              		@ sp needed
 536 0022 5DF8047B 		ldr	r7, [sp], #4
 537              		.cfi_restore 7
 538              		.cfi_def_cfa_offset 0
 539 0026 7047     		bx	lr
 540              		.cfi_endproc
 541              	.LFE3:
 542              		.size	mul16, .-mul16
 543              		.text
 544              	.Letext0:
 545              		.file 2 "c:\\program files (x86)\\cypress\\psoc creator\\4.4\\psoc creator\\import\\gnu\\arm\\5.4.
 546              		.file 3 "c:\\program files (x86)\\cypress\\psoc creator\\4.4\\psoc creator\\import\\gnu\\arm\\5.4.