ARM GAS  C:\Users\LOCALA~1\AppData\Local\Temp\ccJ6EDbl.s 			page 1


   1              		.syntax unified
   2              		.cpu cortex-m4
   3              		.eabi_attribute 27, 1
   4              		.fpu fpv4-sp-d16
   5              		.eabi_attribute 20, 1
   6              		.eabi_attribute 21, 1
   7              		.eabi_attribute 23, 3
   8              		.eabi_attribute 24, 1
   9              		.eabi_attribute 25, 1
  10              		.eabi_attribute 26, 1
  11              		.eabi_attribute 30, 6
  12              		.eabi_attribute 34, 1
  13              		.eabi_attribute 18, 4
  14              		.thumb
  15              		.syntax unified
  16              		.file	"main_cm4.c"
  17              		.text
  18              	.Ltext0:
  19              		.cfi_sections	.debug_frame
  20              		.section	.text.Cy_SCB_UART_Enable,"ax",%progbits
  21              		.align	2
  22              		.thumb
  23              		.thumb_func
  24              		.type	Cy_SCB_UART_Enable, %function
  25              	Cy_SCB_UART_Enable:
  26              	.LFB359:
  27              		.file 1 "Generated_Source\\PSoC6\\pdl\\drivers/peripheral/scb/cy_scb_uart.h"
   1:Generated_Source\PSoC6\pdl\drivers/peripheral/scb/cy_scb_uart.h **** /***************************************************************************//**
   2:Generated_Source\PSoC6\pdl\drivers/peripheral/scb/cy_scb_uart.h **** * \file cy_scb_uart.h
   3:Generated_Source\PSoC6\pdl\drivers/peripheral/scb/cy_scb_uart.h **** * \version 2.30
   4:Generated_Source\PSoC6\pdl\drivers/peripheral/scb/cy_scb_uart.h **** *
   5:Generated_Source\PSoC6\pdl\drivers/peripheral/scb/cy_scb_uart.h **** * Provides UART API declarations of the SCB driver.
   6:Generated_Source\PSoC6\pdl\drivers/peripheral/scb/cy_scb_uart.h **** *
   7:Generated_Source\PSoC6\pdl\drivers/peripheral/scb/cy_scb_uart.h **** ********************************************************************************
   8:Generated_Source\PSoC6\pdl\drivers/peripheral/scb/cy_scb_uart.h **** * \copyright
   9:Generated_Source\PSoC6\pdl\drivers/peripheral/scb/cy_scb_uart.h **** * Copyright 2016-2021, Cypress Semiconductor Corporation.  All rights reserved.
  10:Generated_Source\PSoC6\pdl\drivers/peripheral/scb/cy_scb_uart.h **** * You may use this file only in accordance with the license, terms, conditions,
  11:Generated_Source\PSoC6\pdl\drivers/peripheral/scb/cy_scb_uart.h **** * disclaimers, and limitations in the end user license agreement accompanying
  12:Generated_Source\PSoC6\pdl\drivers/peripheral/scb/cy_scb_uart.h **** * the software package with which this file was provided.
  13:Generated_Source\PSoC6\pdl\drivers/peripheral/scb/cy_scb_uart.h **** *******************************************************************************/
  14:Generated_Source\PSoC6\pdl\drivers/peripheral/scb/cy_scb_uart.h **** 
  15:Generated_Source\PSoC6\pdl\drivers/peripheral/scb/cy_scb_uart.h **** /**
  16:Generated_Source\PSoC6\pdl\drivers/peripheral/scb/cy_scb_uart.h **** * \addtogroup group_scb_uart
  17:Generated_Source\PSoC6\pdl\drivers/peripheral/scb/cy_scb_uart.h **** * \{
  18:Generated_Source\PSoC6\pdl\drivers/peripheral/scb/cy_scb_uart.h **** * Driver API for UART
  19:Generated_Source\PSoC6\pdl\drivers/peripheral/scb/cy_scb_uart.h **** *
  20:Generated_Source\PSoC6\pdl\drivers/peripheral/scb/cy_scb_uart.h **** * The functions and other declarations used in this part of the driver are in
  21:Generated_Source\PSoC6\pdl\drivers/peripheral/scb/cy_scb_uart.h **** * cy_scb_uart.h. You can also include cy_pdl.h (ModusToolbox only) to get access
  22:Generated_Source\PSoC6\pdl\drivers/peripheral/scb/cy_scb_uart.h **** * to all functions and declarations in the PDL.
  23:Generated_Source\PSoC6\pdl\drivers/peripheral/scb/cy_scb_uart.h **** *
  24:Generated_Source\PSoC6\pdl\drivers/peripheral/scb/cy_scb_uart.h **** * The Universal Asynchronous Receiver/Transmitter (UART) protocol is an
  25:Generated_Source\PSoC6\pdl\drivers/peripheral/scb/cy_scb_uart.h **** * asynchronous serial interface protocol. UART communication is typically
  26:Generated_Source\PSoC6\pdl\drivers/peripheral/scb/cy_scb_uart.h **** * point-to-point. The UART interface consists of two signals:
  27:Generated_Source\PSoC6\pdl\drivers/peripheral/scb/cy_scb_uart.h **** * * TX: Transmitter output
  28:Generated_Source\PSoC6\pdl\drivers/peripheral/scb/cy_scb_uart.h **** * * RX: Receiver input
  29:Generated_Source\PSoC6\pdl\drivers/peripheral/scb/cy_scb_uart.h **** *
  30:Generated_Source\PSoC6\pdl\drivers/peripheral/scb/cy_scb_uart.h **** * Additionally, two side-band signals are used to implement flow control in
ARM GAS  C:\Users\LOCALA~1\AppData\Local\Temp\ccJ6EDbl.s 			page 2


  31:Generated_Source\PSoC6\pdl\drivers/peripheral/scb/cy_scb_uart.h **** * UART. Note that the flow control applies only to TX functionality.
  32:Generated_Source\PSoC6\pdl\drivers/peripheral/scb/cy_scb_uart.h **** * * Clear to Send (CTS): This is an input signal to the transmitter.
  33:Generated_Source\PSoC6\pdl\drivers/peripheral/scb/cy_scb_uart.h **** *   When active, it indicates that the slave is ready for the master to
  34:Generated_Source\PSoC6\pdl\drivers/peripheral/scb/cy_scb_uart.h **** *   transmit data.
  35:Generated_Source\PSoC6\pdl\drivers/peripheral/scb/cy_scb_uart.h **** * * Ready to Send (RTS): This is an output signal from the receiver. When
  36:Generated_Source\PSoC6\pdl\drivers/peripheral/scb/cy_scb_uart.h **** *   active, it indicates that the receiver is ready to receive data
  37:Generated_Source\PSoC6\pdl\drivers/peripheral/scb/cy_scb_uart.h **** *
  38:Generated_Source\PSoC6\pdl\drivers/peripheral/scb/cy_scb_uart.h **** * Features:
  39:Generated_Source\PSoC6\pdl\drivers/peripheral/scb/cy_scb_uart.h **** * * Supports UART protocol
  40:Generated_Source\PSoC6\pdl\drivers/peripheral/scb/cy_scb_uart.h **** *   * Standard UART
  41:Generated_Source\PSoC6\pdl\drivers/peripheral/scb/cy_scb_uart.h **** *   * Multi-processor mode
  42:Generated_Source\PSoC6\pdl\drivers/peripheral/scb/cy_scb_uart.h **** * * SmartCard (ISO7816) reader
  43:Generated_Source\PSoC6\pdl\drivers/peripheral/scb/cy_scb_uart.h **** * * IrDA
  44:Generated_Source\PSoC6\pdl\drivers/peripheral/scb/cy_scb_uart.h **** * * Data frame size programmable from 4 to 16 bits
  45:Generated_Source\PSoC6\pdl\drivers/peripheral/scb/cy_scb_uart.h **** * * Programmable number of STOP bits, which can be set in terms of half bit
  46:Generated_Source\PSoC6\pdl\drivers/peripheral/scb/cy_scb_uart.h **** *   periods between 1 and 4
  47:Generated_Source\PSoC6\pdl\drivers/peripheral/scb/cy_scb_uart.h **** * * Parity support (odd and even parity)
  48:Generated_Source\PSoC6\pdl\drivers/peripheral/scb/cy_scb_uart.h **** * * Median filter on Rx input
  49:Generated_Source\PSoC6\pdl\drivers/peripheral/scb/cy_scb_uart.h **** * * Programmable oversampling
  50:Generated_Source\PSoC6\pdl\drivers/peripheral/scb/cy_scb_uart.h **** * * Start skipping
  51:Generated_Source\PSoC6\pdl\drivers/peripheral/scb/cy_scb_uart.h **** *
  52:Generated_Source\PSoC6\pdl\drivers/peripheral/scb/cy_scb_uart.h **** ********************************************************************************
  53:Generated_Source\PSoC6\pdl\drivers/peripheral/scb/cy_scb_uart.h **** * \section group_scb_uart_configuration Configuration Considerations
  54:Generated_Source\PSoC6\pdl\drivers/peripheral/scb/cy_scb_uart.h **** ********************************************************************************
  55:Generated_Source\PSoC6\pdl\drivers/peripheral/scb/cy_scb_uart.h **** * The UART driver configuration can be divided to number of sequential
  56:Generated_Source\PSoC6\pdl\drivers/peripheral/scb/cy_scb_uart.h **** * steps listed below:
  57:Generated_Source\PSoC6\pdl\drivers/peripheral/scb/cy_scb_uart.h **** * * \ref group_scb_uart_config
  58:Generated_Source\PSoC6\pdl\drivers/peripheral/scb/cy_scb_uart.h **** * * \ref group_scb_uart_pins
  59:Generated_Source\PSoC6\pdl\drivers/peripheral/scb/cy_scb_uart.h **** * * \ref group_scb_uart_clock
  60:Generated_Source\PSoC6\pdl\drivers/peripheral/scb/cy_scb_uart.h **** * * \ref group_scb_uart_data_rate
  61:Generated_Source\PSoC6\pdl\drivers/peripheral/scb/cy_scb_uart.h **** * * \ref group_scb_uart_intr
  62:Generated_Source\PSoC6\pdl\drivers/peripheral/scb/cy_scb_uart.h **** * * \ref group_scb_uart_enable
  63:Generated_Source\PSoC6\pdl\drivers/peripheral/scb/cy_scb_uart.h **** *
  64:Generated_Source\PSoC6\pdl\drivers/peripheral/scb/cy_scb_uart.h **** * \note
  65:Generated_Source\PSoC6\pdl\drivers/peripheral/scb/cy_scb_uart.h **** * UART driver is built on top of the SCB hardware block. The SCB5 instance is
  66:Generated_Source\PSoC6\pdl\drivers/peripheral/scb/cy_scb_uart.h **** * used as an example for all code snippets. Modify the code to match your
  67:Generated_Source\PSoC6\pdl\drivers/peripheral/scb/cy_scb_uart.h **** * design.
  68:Generated_Source\PSoC6\pdl\drivers/peripheral/scb/cy_scb_uart.h **** *
  69:Generated_Source\PSoC6\pdl\drivers/peripheral/scb/cy_scb_uart.h **** ********************************************************************************
  70:Generated_Source\PSoC6\pdl\drivers/peripheral/scb/cy_scb_uart.h **** * \subsection group_scb_uart_config Configure UART
  71:Generated_Source\PSoC6\pdl\drivers/peripheral/scb/cy_scb_uart.h **** ********************************************************************************
  72:Generated_Source\PSoC6\pdl\drivers/peripheral/scb/cy_scb_uart.h **** * To set up the UART driver, provide the configuration parameters in the
  73:Generated_Source\PSoC6\pdl\drivers/peripheral/scb/cy_scb_uart.h **** * \ref cy_stc_scb_uart_config_t structure. For example: provide uartMode,
  74:Generated_Source\PSoC6\pdl\drivers/peripheral/scb/cy_scb_uart.h **** * oversample, dataWidth, enableMsbFirst, parity, and stopBits. The other
  75:Generated_Source\PSoC6\pdl\drivers/peripheral/scb/cy_scb_uart.h **** * parameters are optional. To initialize the driver, call \ref Cy_SCB_UART_Init
  76:Generated_Source\PSoC6\pdl\drivers/peripheral/scb/cy_scb_uart.h **** * function providing a pointer to the populated \ref cy_stc_scb_uart_config_t
  77:Generated_Source\PSoC6\pdl\drivers/peripheral/scb/cy_scb_uart.h **** * structure and the allocated \ref cy_stc_scb_uart_context_t structure.
  78:Generated_Source\PSoC6\pdl\drivers/peripheral/scb/cy_scb_uart.h **** *
  79:Generated_Source\PSoC6\pdl\drivers/peripheral/scb/cy_scb_uart.h **** * \snippet SCB_CompDatasheet_sut_01_revA.cydsn\uart_snippets.c UART_CFG
  80:Generated_Source\PSoC6\pdl\drivers/peripheral/scb/cy_scb_uart.h **** *
  81:Generated_Source\PSoC6\pdl\drivers/peripheral/scb/cy_scb_uart.h **** ********************************************************************************
  82:Generated_Source\PSoC6\pdl\drivers/peripheral/scb/cy_scb_uart.h **** * \subsection group_scb_uart_pins Assign and Configure Pins
  83:Generated_Source\PSoC6\pdl\drivers/peripheral/scb/cy_scb_uart.h **** ********************************************************************************
  84:Generated_Source\PSoC6\pdl\drivers/peripheral/scb/cy_scb_uart.h **** * Only dedicated SCB pins can be used for UART operation. The HSIOM
  85:Generated_Source\PSoC6\pdl\drivers/peripheral/scb/cy_scb_uart.h **** * register must be configured to connect dedicated SCB UART pins to the
  86:Generated_Source\PSoC6\pdl\drivers/peripheral/scb/cy_scb_uart.h **** * SCB block. Also, the UART output pins must be configured in Strong Drive
  87:Generated_Source\PSoC6\pdl\drivers/peripheral/scb/cy_scb_uart.h **** * Input Off mode and UART input pins in Digital High-Z:
ARM GAS  C:\Users\LOCALA~1\AppData\Local\Temp\ccJ6EDbl.s 			page 3


  88:Generated_Source\PSoC6\pdl\drivers/peripheral/scb/cy_scb_uart.h **** *
  89:Generated_Source\PSoC6\pdl\drivers/peripheral/scb/cy_scb_uart.h **** * \snippet SCB_CompDatasheet_sut_01_revA.cydsn\uart_snippets.c UART_CFG_PINS
  90:Generated_Source\PSoC6\pdl\drivers/peripheral/scb/cy_scb_uart.h **** *
  91:Generated_Source\PSoC6\pdl\drivers/peripheral/scb/cy_scb_uart.h **** ********************************************************************************
  92:Generated_Source\PSoC6\pdl\drivers/peripheral/scb/cy_scb_uart.h **** * \subsection group_scb_uart_clock Assign Clock Divider
  93:Generated_Source\PSoC6\pdl\drivers/peripheral/scb/cy_scb_uart.h **** ********************************************************************************
  94:Generated_Source\PSoC6\pdl\drivers/peripheral/scb/cy_scb_uart.h **** * A clock source must be connected to the SCB block to oversample input and
  95:Generated_Source\PSoC6\pdl\drivers/peripheral/scb/cy_scb_uart.h **** * output signals, in this document this clock will be referred as clk_scb.
  96:Generated_Source\PSoC6\pdl\drivers/peripheral/scb/cy_scb_uart.h **** * You must use one of available integer or fractional dividers. Use the
  97:Generated_Source\PSoC6\pdl\drivers/peripheral/scb/cy_scb_uart.h **** * \ref group_sysclk driver API to do this.
  98:Generated_Source\PSoC6\pdl\drivers/peripheral/scb/cy_scb_uart.h **** *
  99:Generated_Source\PSoC6\pdl\drivers/peripheral/scb/cy_scb_uart.h **** * \snippet SCB_CompDatasheet_sut_01_revA.cydsn\uart_snippets.c UART_CFG_ASSIGN_CLOCK
 100:Generated_Source\PSoC6\pdl\drivers/peripheral/scb/cy_scb_uart.h **** *
 101:Generated_Source\PSoC6\pdl\drivers/peripheral/scb/cy_scb_uart.h **** ********************************************************************************
 102:Generated_Source\PSoC6\pdl\drivers/peripheral/scb/cy_scb_uart.h **** * \subsection group_scb_uart_data_rate Configure Baud Rate
 103:Generated_Source\PSoC6\pdl\drivers/peripheral/scb/cy_scb_uart.h **** ********************************************************************************
 104:Generated_Source\PSoC6\pdl\drivers/peripheral/scb/cy_scb_uart.h **** * To get the UART to operate with the desired baud rate, the clk_scb frequency
 105:Generated_Source\PSoC6\pdl\drivers/peripheral/scb/cy_scb_uart.h **** * and the oversample must be configured. Use the \ref group_sysclk driver API
 106:Generated_Source\PSoC6\pdl\drivers/peripheral/scb/cy_scb_uart.h **** * to configure clk_scb frequency. Set the <em><b>oversample parameter
 107:Generated_Source\PSoC6\pdl\drivers/peripheral/scb/cy_scb_uart.h **** * in configuration structure</b></em> to define the number of the SCB clocks
 108:Generated_Source\PSoC6\pdl\drivers/peripheral/scb/cy_scb_uart.h **** * within one UART bit-time.
 109:Generated_Source\PSoC6\pdl\drivers/peripheral/scb/cy_scb_uart.h **** *
 110:Generated_Source\PSoC6\pdl\drivers/peripheral/scb/cy_scb_uart.h **** * \snippet SCB_CompDatasheet_sut_01_revA.cydsn\uart_snippets.c UART_CFG_DATA_RATE
 111:Generated_Source\PSoC6\pdl\drivers/peripheral/scb/cy_scb_uart.h **** *
 112:Generated_Source\PSoC6\pdl\drivers/peripheral/scb/cy_scb_uart.h **** * <b>Refer to the technical reference manual (TRM) section UART sub-section
 113:Generated_Source\PSoC6\pdl\drivers/peripheral/scb/cy_scb_uart.h **** * Clocking and Oversampling to get information about how to configure the UART to run with
 114:Generated_Source\PSoC6\pdl\drivers/peripheral/scb/cy_scb_uart.h **** * desired baud rate.</b>
 115:Generated_Source\PSoC6\pdl\drivers/peripheral/scb/cy_scb_uart.h **** *
 116:Generated_Source\PSoC6\pdl\drivers/peripheral/scb/cy_scb_uart.h **** ********************************************************************************
 117:Generated_Source\PSoC6\pdl\drivers/peripheral/scb/cy_scb_uart.h **** * \subsection group_scb_uart_intr Configure Interrupt
 118:Generated_Source\PSoC6\pdl\drivers/peripheral/scb/cy_scb_uart.h **** ********************************************************************************
 119:Generated_Source\PSoC6\pdl\drivers/peripheral/scb/cy_scb_uart.h **** * The interrupt is optional for the UART operation. To configure interrupt
 120:Generated_Source\PSoC6\pdl\drivers/peripheral/scb/cy_scb_uart.h **** * the \ref Cy_SCB_UART_Interrupt function must be called in the interrupt
 121:Generated_Source\PSoC6\pdl\drivers/peripheral/scb/cy_scb_uart.h **** * handler for the selected SCB instance. Also, this interrupt must be enabled
 122:Generated_Source\PSoC6\pdl\drivers/peripheral/scb/cy_scb_uart.h **** * in the NVIC.
 123:Generated_Source\PSoC6\pdl\drivers/peripheral/scb/cy_scb_uart.h **** * The interrupt must be configured when \ref group_scb_uart_hl will be used.
 124:Generated_Source\PSoC6\pdl\drivers/peripheral/scb/cy_scb_uart.h **** *
 125:Generated_Source\PSoC6\pdl\drivers/peripheral/scb/cy_scb_uart.h **** * \snippet SCB_CompDatasheet_sut_01_revA.cydsn\uart_snippets.c UART_INTR_A
 126:Generated_Source\PSoC6\pdl\drivers/peripheral/scb/cy_scb_uart.h **** * \snippet SCB_CompDatasheet_sut_01_revA.cydsn\uart_snippets.c UART_INTR_B
 127:Generated_Source\PSoC6\pdl\drivers/peripheral/scb/cy_scb_uart.h **** *
 128:Generated_Source\PSoC6\pdl\drivers/peripheral/scb/cy_scb_uart.h **** ********************************************************************************
 129:Generated_Source\PSoC6\pdl\drivers/peripheral/scb/cy_scb_uart.h **** * \subsection group_scb_uart_enable Enable UART
 130:Generated_Source\PSoC6\pdl\drivers/peripheral/scb/cy_scb_uart.h **** ********************************************************************************
 131:Generated_Source\PSoC6\pdl\drivers/peripheral/scb/cy_scb_uart.h **** * Finally, enable the UART operation by calling \ref Cy_SCB_UART_Enable.
 132:Generated_Source\PSoC6\pdl\drivers/peripheral/scb/cy_scb_uart.h **** *
 133:Generated_Source\PSoC6\pdl\drivers/peripheral/scb/cy_scb_uart.h **** * \snippet SCB_CompDatasheet_sut_01_revA.cydsn\uart_snippets.c UART_ENABLE
 134:Generated_Source\PSoC6\pdl\drivers/peripheral/scb/cy_scb_uart.h **** *
 135:Generated_Source\PSoC6\pdl\drivers/peripheral/scb/cy_scb_uart.h **** ********************************************************************************
 136:Generated_Source\PSoC6\pdl\drivers/peripheral/scb/cy_scb_uart.h **** * \section group_scb_uart_use_cases Common Use Cases
 137:Generated_Source\PSoC6\pdl\drivers/peripheral/scb/cy_scb_uart.h **** ********************************************************************************
 138:Generated_Source\PSoC6\pdl\drivers/peripheral/scb/cy_scb_uart.h **** * The UART API is divided into two categories: \ref group_scb_uart_low_level_functions
 139:Generated_Source\PSoC6\pdl\drivers/peripheral/scb/cy_scb_uart.h **** * and \ref group_scb_uart_high_level_functions. \n
 140:Generated_Source\PSoC6\pdl\drivers/peripheral/scb/cy_scb_uart.h **** * <em>Do not mix <b>High-Level</b> and <b>Low-Level</b> API because a Low-Level
 141:Generated_Source\PSoC6\pdl\drivers/peripheral/scb/cy_scb_uart.h **** * API can adversely affect the operation of a High-Level API.</em>
 142:Generated_Source\PSoC6\pdl\drivers/peripheral/scb/cy_scb_uart.h **** *
 143:Generated_Source\PSoC6\pdl\drivers/peripheral/scb/cy_scb_uart.h **** ********************************************************************************
 144:Generated_Source\PSoC6\pdl\drivers/peripheral/scb/cy_scb_uart.h **** * \subsection group_scb_uart_ll Low-Level API
ARM GAS  C:\Users\LOCALA~1\AppData\Local\Temp\ccJ6EDbl.s 			page 4


 145:Generated_Source\PSoC6\pdl\drivers/peripheral/scb/cy_scb_uart.h **** ********************************************************************************
 146:Generated_Source\PSoC6\pdl\drivers/peripheral/scb/cy_scb_uart.h **** * The \ref group_scb_uart_low_level_functions functions allow
 147:Generated_Source\PSoC6\pdl\drivers/peripheral/scb/cy_scb_uart.h **** * interacting directly with the hardware and do not use \ref Cy_SCB_UART_Interrupt.
 148:Generated_Source\PSoC6\pdl\drivers/peripheral/scb/cy_scb_uart.h **** * These functions do not require context for operation. Thus, NULL can be
 149:Generated_Source\PSoC6\pdl\drivers/peripheral/scb/cy_scb_uart.h **** * passed for context parameter in \ref Cy_SCB_UART_Init and \ref Cy_SCB_UART_Disable
 150:Generated_Source\PSoC6\pdl\drivers/peripheral/scb/cy_scb_uart.h **** * instead of a pointer to the context structure.
 151:Generated_Source\PSoC6\pdl\drivers/peripheral/scb/cy_scb_uart.h **** *
 152:Generated_Source\PSoC6\pdl\drivers/peripheral/scb/cy_scb_uart.h **** * * To write data into the TX FIFO, use one of the provided functions:
 153:Generated_Source\PSoC6\pdl\drivers/peripheral/scb/cy_scb_uart.h **** *   \ref Cy_SCB_UART_Put, \ref Cy_SCB_UART_PutArray,
 154:Generated_Source\PSoC6\pdl\drivers/peripheral/scb/cy_scb_uart.h **** *   \ref Cy_SCB_UART_PutArrayBlocking or \ref Cy_SCB_UART_PutString.
 155:Generated_Source\PSoC6\pdl\drivers/peripheral/scb/cy_scb_uart.h **** *   Note that putting data into the TX FIFO starts data transfer.
 156:Generated_Source\PSoC6\pdl\drivers/peripheral/scb/cy_scb_uart.h **** *
 157:Generated_Source\PSoC6\pdl\drivers/peripheral/scb/cy_scb_uart.h **** * * To read data from the RX FIFO, use one of the provided functions:
 158:Generated_Source\PSoC6\pdl\drivers/peripheral/scb/cy_scb_uart.h **** *   \ref Cy_SCB_UART_Get, \ref Cy_SCB_UART_GetArray or
 159:Generated_Source\PSoC6\pdl\drivers/peripheral/scb/cy_scb_uart.h **** *   \ref Cy_SCB_UART_GetArrayBlocking.
 160:Generated_Source\PSoC6\pdl\drivers/peripheral/scb/cy_scb_uart.h **** *
 161:Generated_Source\PSoC6\pdl\drivers/peripheral/scb/cy_scb_uart.h **** * * The statuses can be polled using: \ref Cy_SCB_UART_GetRxFifoStatus and
 162:Generated_Source\PSoC6\pdl\drivers/peripheral/scb/cy_scb_uart.h **** *   \ref Cy_SCB_UART_GetTxFifoStatus.
 163:Generated_Source\PSoC6\pdl\drivers/peripheral/scb/cy_scb_uart.h **** *   <em>The statuses are <b>W1C (Write 1 to Clear)</b> and after a status
 164:Generated_Source\PSoC6\pdl\drivers/peripheral/scb/cy_scb_uart.h **** *   is set, it must be cleared.</em> Note that there are statuses evaluated as level.
 165:Generated_Source\PSoC6\pdl\drivers/peripheral/scb/cy_scb_uart.h **** *   These statuses remain set until an event is true. Therefore, after the clear
 166:Generated_Source\PSoC6\pdl\drivers/peripheral/scb/cy_scb_uart.h **** *   operation, the status is cleared but then it is restored (if event is still
 167:Generated_Source\PSoC6\pdl\drivers/peripheral/scb/cy_scb_uart.h **** *   true).
 168:Generated_Source\PSoC6\pdl\drivers/peripheral/scb/cy_scb_uart.h **** *   Also, the following functions can be used for polling as well
 169:Generated_Source\PSoC6\pdl\drivers/peripheral/scb/cy_scb_uart.h **** *   \ref Cy_SCB_UART_IsTxComplete, \ref Cy_SCB_UART_GetNumInRxFifo and
 170:Generated_Source\PSoC6\pdl\drivers/peripheral/scb/cy_scb_uart.h **** *   \ref Cy_SCB_UART_GetNumInTxFifo.
 171:Generated_Source\PSoC6\pdl\drivers/peripheral/scb/cy_scb_uart.h **** *
 172:Generated_Source\PSoC6\pdl\drivers/peripheral/scb/cy_scb_uart.h **** * \snippet SCB_CompDatasheet_sut_01_revA.cydsn\uart_snippets.c UART_TRANSMIT_DATA_LL
 173:Generated_Source\PSoC6\pdl\drivers/peripheral/scb/cy_scb_uart.h **** *
 174:Generated_Source\PSoC6\pdl\drivers/peripheral/scb/cy_scb_uart.h **** ********************************************************************************
 175:Generated_Source\PSoC6\pdl\drivers/peripheral/scb/cy_scb_uart.h **** * \subsection group_scb_uart_hl High-Level API
 176:Generated_Source\PSoC6\pdl\drivers/peripheral/scb/cy_scb_uart.h **** ********************************************************************************
 177:Generated_Source\PSoC6\pdl\drivers/peripheral/scb/cy_scb_uart.h **** * The \ref group_scb_uart_high_level_functions API use \ref Cy_SCB_UART_Interrupt
 178:Generated_Source\PSoC6\pdl\drivers/peripheral/scb/cy_scb_uart.h **** * to execute the transfer. Call \ref Cy_SCB_UART_Transmit to start transmission.
 179:Generated_Source\PSoC6\pdl\drivers/peripheral/scb/cy_scb_uart.h **** * Call \ref Cy_SCB_UART_Receive to start receive operation. After the
 180:Generated_Source\PSoC6\pdl\drivers/peripheral/scb/cy_scb_uart.h **** * operation is started the \ref Cy_SCB_UART_Interrupt handles the data
 181:Generated_Source\PSoC6\pdl\drivers/peripheral/scb/cy_scb_uart.h **** * transfer until its completion.
 182:Generated_Source\PSoC6\pdl\drivers/peripheral/scb/cy_scb_uart.h **** * Therefore \ref Cy_SCB_UART_Interrupt must be called inside the user
 183:Generated_Source\PSoC6\pdl\drivers/peripheral/scb/cy_scb_uart.h **** * interrupt handler to make the High-Level API work. To monitor status
 184:Generated_Source\PSoC6\pdl\drivers/peripheral/scb/cy_scb_uart.h **** * of transmit operation, use \ref Cy_SCB_UART_GetTransmitStatus and
 185:Generated_Source\PSoC6\pdl\drivers/peripheral/scb/cy_scb_uart.h **** * \ref Cy_SCB_UART_GetReceiveStatus to monitor receive status appropriately.
 186:Generated_Source\PSoC6\pdl\drivers/peripheral/scb/cy_scb_uart.h **** * Alternatively use \ref Cy_SCB_UART_RegisterCallback to register callback
 187:Generated_Source\PSoC6\pdl\drivers/peripheral/scb/cy_scb_uart.h **** * function to be notified about \ref group_scb_uart_macros_callback_events.
 188:Generated_Source\PSoC6\pdl\drivers/peripheral/scb/cy_scb_uart.h **** *
 189:Generated_Source\PSoC6\pdl\drivers/peripheral/scb/cy_scb_uart.h **** * <b>Receive Operation</b>
 190:Generated_Source\PSoC6\pdl\drivers/peripheral/scb/cy_scb_uart.h **** * \snippet SCB_CompDatasheet_sut_01_revA.cydsn\uart_snippets.c UART_RECEIVE_DATA_HL
 191:Generated_Source\PSoC6\pdl\drivers/peripheral/scb/cy_scb_uart.h **** *
 192:Generated_Source\PSoC6\pdl\drivers/peripheral/scb/cy_scb_uart.h **** * <b>Transmit Operation</b>
 193:Generated_Source\PSoC6\pdl\drivers/peripheral/scb/cy_scb_uart.h **** * \snippet SCB_CompDatasheet_sut_01_revA.cydsn\uart_snippets.c UART_TRANSMIT_DATA_HL
 194:Generated_Source\PSoC6\pdl\drivers/peripheral/scb/cy_scb_uart.h **** *
 195:Generated_Source\PSoC6\pdl\drivers/peripheral/scb/cy_scb_uart.h **** * There is also capability to insert a receive ring buffer that operates between
 196:Generated_Source\PSoC6\pdl\drivers/peripheral/scb/cy_scb_uart.h **** * the RX FIFO and the user buffer. The received data is copied into the ring
 197:Generated_Source\PSoC6\pdl\drivers/peripheral/scb/cy_scb_uart.h **** * buffer from the RX FIFO. This process runs in the background after the ring
 198:Generated_Source\PSoC6\pdl\drivers/peripheral/scb/cy_scb_uart.h **** * buffer operation is started by \ref Cy_SCB_UART_StartRingBuffer.
 199:Generated_Source\PSoC6\pdl\drivers/peripheral/scb/cy_scb_uart.h **** * When \ref Cy_SCB_UART_Receive is called, it first reads data from the ring
 200:Generated_Source\PSoC6\pdl\drivers/peripheral/scb/cy_scb_uart.h **** * buffer and then sets up an interrupt to receive more data if the required
 201:Generated_Source\PSoC6\pdl\drivers/peripheral/scb/cy_scb_uart.h **** * amount has not yet been read.
ARM GAS  C:\Users\LOCALA~1\AppData\Local\Temp\ccJ6EDbl.s 			page 5


 202:Generated_Source\PSoC6\pdl\drivers/peripheral/scb/cy_scb_uart.h **** *
 203:Generated_Source\PSoC6\pdl\drivers/peripheral/scb/cy_scb_uart.h **** ********************************************************************************
 204:Generated_Source\PSoC6\pdl\drivers/peripheral/scb/cy_scb_uart.h **** * \section group_scb_uart_dma_trig DMA Trigger
 205:Generated_Source\PSoC6\pdl\drivers/peripheral/scb/cy_scb_uart.h **** ********************************************************************************
 206:Generated_Source\PSoC6\pdl\drivers/peripheral/scb/cy_scb_uart.h **** * The SCB provides TX and RX output trigger signals that can be routed to the
 207:Generated_Source\PSoC6\pdl\drivers/peripheral/scb/cy_scb_uart.h **** * DMA controller inputs. These signals are assigned based on the data availability
 208:Generated_Source\PSoC6\pdl\drivers/peripheral/scb/cy_scb_uart.h **** * in the TX and RX FIFOs appropriately.
 209:Generated_Source\PSoC6\pdl\drivers/peripheral/scb/cy_scb_uart.h **** *
 210:Generated_Source\PSoC6\pdl\drivers/peripheral/scb/cy_scb_uart.h **** * * The RX trigger signal is active while the number of data
 211:Generated_Source\PSoC6\pdl\drivers/peripheral/scb/cy_scb_uart.h **** *   elements in the RX FIFO is greater than the value of RX FIFO level. Use
 212:Generated_Source\PSoC6\pdl\drivers/peripheral/scb/cy_scb_uart.h **** *   function \ref Cy_SCB_SetRxFifoLevel or set configuration structure
 213:Generated_Source\PSoC6\pdl\drivers/peripheral/scb/cy_scb_uart.h **** *   rxFifoTriggerLevel parameter to configure RX FIFO level value. \n
 214:Generated_Source\PSoC6\pdl\drivers/peripheral/scb/cy_scb_uart.h **** *   <em>For example, the RX FIFO has 8 data elements and the RX FIFO level is 0.
 215:Generated_Source\PSoC6\pdl\drivers/peripheral/scb/cy_scb_uart.h **** *   The RX trigger signal is active until DMA reads all data from
 216:Generated_Source\PSoC6\pdl\drivers/peripheral/scb/cy_scb_uart.h **** *   the RX FIFO.</em>
 217:Generated_Source\PSoC6\pdl\drivers/peripheral/scb/cy_scb_uart.h **** *
 218:Generated_Source\PSoC6\pdl\drivers/peripheral/scb/cy_scb_uart.h **** * * The TX trigger signal is active while the number of data elements
 219:Generated_Source\PSoC6\pdl\drivers/peripheral/scb/cy_scb_uart.h **** *   in the TX FIFO is less than the value of TX FIFO level. Use function
 220:Generated_Source\PSoC6\pdl\drivers/peripheral/scb/cy_scb_uart.h **** *   \ref Cy_SCB_SetTxFifoLevel or set configuration structure txFifoTriggerLevel
 221:Generated_Source\PSoC6\pdl\drivers/peripheral/scb/cy_scb_uart.h **** *   parameter to configure TX FIFO level value. \n
 222:Generated_Source\PSoC6\pdl\drivers/peripheral/scb/cy_scb_uart.h **** *   <em>For example, the TX FIFO has 0 data elements (empty) and the TX FIFO level
 223:Generated_Source\PSoC6\pdl\drivers/peripheral/scb/cy_scb_uart.h **** *   is 7. The TX trigger signal is active until DMA loads TX FIFO
 224:Generated_Source\PSoC6\pdl\drivers/peripheral/scb/cy_scb_uart.h **** *   with 8 data elements (note that after the first TX load operation, the data
 225:Generated_Source\PSoC6\pdl\drivers/peripheral/scb/cy_scb_uart.h **** *   element goes to the shift register and TX FIFO is empty).</em>
 226:Generated_Source\PSoC6\pdl\drivers/peripheral/scb/cy_scb_uart.h **** *
 227:Generated_Source\PSoC6\pdl\drivers/peripheral/scb/cy_scb_uart.h **** * To route SCB TX or RX trigger signals to DMA controller use \ref group_trigmux
 228:Generated_Source\PSoC6\pdl\drivers/peripheral/scb/cy_scb_uart.h **** * driver API.
 229:Generated_Source\PSoC6\pdl\drivers/peripheral/scb/cy_scb_uart.h **** *
 230:Generated_Source\PSoC6\pdl\drivers/peripheral/scb/cy_scb_uart.h **** * \note
 231:Generated_Source\PSoC6\pdl\drivers/peripheral/scb/cy_scb_uart.h **** * To properly handle DMA level request signal activation and de-activation from the SCB
 232:Generated_Source\PSoC6\pdl\drivers/peripheral/scb/cy_scb_uart.h **** * peripheral block the DMA Descriptor typically must be configured to re-trigger
 233:Generated_Source\PSoC6\pdl\drivers/peripheral/scb/cy_scb_uart.h **** * after 16 Clk_Slow cycles.
 234:Generated_Source\PSoC6\pdl\drivers/peripheral/scb/cy_scb_uart.h **** *
 235:Generated_Source\PSoC6\pdl\drivers/peripheral/scb/cy_scb_uart.h **** ********************************************************************************
 236:Generated_Source\PSoC6\pdl\drivers/peripheral/scb/cy_scb_uart.h **** * \section group_scb_uart_lp Low Power Support
 237:Generated_Source\PSoC6\pdl\drivers/peripheral/scb/cy_scb_uart.h **** ********************************************************************************
 238:Generated_Source\PSoC6\pdl\drivers/peripheral/scb/cy_scb_uart.h **** * The UART driver provides callback functions to handle power mode
 239:Generated_Source\PSoC6\pdl\drivers/peripheral/scb/cy_scb_uart.h **** * transition. The callback \ref Cy_SCB_UART_DeepSleepCallback must be called
 240:Generated_Source\PSoC6\pdl\drivers/peripheral/scb/cy_scb_uart.h **** * during execution of \ref Cy_SysPm_CpuEnterDeepSleep \ref Cy_SCB_UART_HibernateCallback
 241:Generated_Source\PSoC6\pdl\drivers/peripheral/scb/cy_scb_uart.h **** * must be called during execution of \ref Cy_SysPm_SystemEnterHibernate. To trigger the
 242:Generated_Source\PSoC6\pdl\drivers/peripheral/scb/cy_scb_uart.h **** * callback execution, the callback must be registered before calling the
 243:Generated_Source\PSoC6\pdl\drivers/peripheral/scb/cy_scb_uart.h **** * power mode transition function. Refer to \ref group_syspm driver for more
 244:Generated_Source\PSoC6\pdl\drivers/peripheral/scb/cy_scb_uart.h **** * information about power mode transitions and callback registration.
 245:Generated_Source\PSoC6\pdl\drivers/peripheral/scb/cy_scb_uart.h **** *
 246:Generated_Source\PSoC6\pdl\drivers/peripheral/scb/cy_scb_uart.h **** * The UART is disabled during Deep Sleep and Hibernate and stops driving
 247:Generated_Source\PSoC6\pdl\drivers/peripheral/scb/cy_scb_uart.h **** * the output pins. The state of the UART output pins TX and RTS is High-Z,
 248:Generated_Source\PSoC6\pdl\drivers/peripheral/scb/cy_scb_uart.h **** * which can cause unexpected behavior of the UART receiver due to possible
 249:Generated_Source\PSoC6\pdl\drivers/peripheral/scb/cy_scb_uart.h **** * glitches on these lines. These pins must be set to the inactive state before
 250:Generated_Source\PSoC6\pdl\drivers/peripheral/scb/cy_scb_uart.h **** * entering Deep Sleep or Hibernate mode.
 251:Generated_Source\PSoC6\pdl\drivers/peripheral/scb/cy_scb_uart.h **** * These pins must keep the inactive level (the same state
 252:Generated_Source\PSoC6\pdl\drivers/peripheral/scb/cy_scb_uart.h **** * when UART TX is enabled and does not transfer data) before entering Deep
 253:Generated_Source\PSoC6\pdl\drivers/peripheral/scb/cy_scb_uart.h **** * Sleep or Hibernate mode. To do that, write the GPIO data register of each pin
 254:Generated_Source\PSoC6\pdl\drivers/peripheral/scb/cy_scb_uart.h **** * to the inactive level for each output pin. Then configure High-Speed Input
 255:Generated_Source\PSoC6\pdl\drivers/peripheral/scb/cy_scb_uart.h **** * Output Multiplexer (HSIOM) of each pin to be controlled by the GPIO (use
 256:Generated_Source\PSoC6\pdl\drivers/peripheral/scb/cy_scb_uart.h **** * \ref group_gpio driver API). After exiting Deep Sleep mode the UART
 257:Generated_Source\PSoC6\pdl\drivers/peripheral/scb/cy_scb_uart.h **** * must be enabled and the pins configuration restored to return the
 258:Generated_Source\PSoC6\pdl\drivers/peripheral/scb/cy_scb_uart.h **** * UART control of the pins (after exiting Hibernate mode, the
ARM GAS  C:\Users\LOCALA~1\AppData\Local\Temp\ccJ6EDbl.s 			page 6


 259:Generated_Source\PSoC6\pdl\drivers/peripheral/scb/cy_scb_uart.h **** * system initialization code does the same). Copy either or
 260:Generated_Source\PSoC6\pdl\drivers/peripheral/scb/cy_scb_uart.h **** * both \ref Cy_SCB_UART_DeepSleepCallback and \ref Cy_SCB_UART_HibernateCallback
 261:Generated_Source\PSoC6\pdl\drivers/peripheral/scb/cy_scb_uart.h **** * as appropriate, and make the changes described above inside the function.
 262:Generated_Source\PSoC6\pdl\drivers/peripheral/scb/cy_scb_uart.h **** * Alternately, external pull-up or pull-down resistors can be connected
 263:Generated_Source\PSoC6\pdl\drivers/peripheral/scb/cy_scb_uart.h **** * to the appropriate UART lines to keep them inactive during Deep-Sleep or
 264:Generated_Source\PSoC6\pdl\drivers/peripheral/scb/cy_scb_uart.h **** * Hibernate.
 265:Generated_Source\PSoC6\pdl\drivers/peripheral/scb/cy_scb_uart.h **** *
 266:Generated_Source\PSoC6\pdl\drivers/peripheral/scb/cy_scb_uart.h **** ********************************************************************************
 267:Generated_Source\PSoC6\pdl\drivers/peripheral/scb/cy_scb_uart.h **** * \section group_scb_uart_more_information More Information
 268:Generated_Source\PSoC6\pdl\drivers/peripheral/scb/cy_scb_uart.h **** ********************************************************************************
 269:Generated_Source\PSoC6\pdl\drivers/peripheral/scb/cy_scb_uart.h **** * For more information on the SCB peripheral, refer to the technical reference
 270:Generated_Source\PSoC6\pdl\drivers/peripheral/scb/cy_scb_uart.h **** * manual (TRM).
 271:Generated_Source\PSoC6\pdl\drivers/peripheral/scb/cy_scb_uart.h **** *
 272:Generated_Source\PSoC6\pdl\drivers/peripheral/scb/cy_scb_uart.h **** ********************************************************************************
 273:Generated_Source\PSoC6\pdl\drivers/peripheral/scb/cy_scb_uart.h **** * \section group_scb_uart_MISRA MISRA-C Compliance
 274:Generated_Source\PSoC6\pdl\drivers/peripheral/scb/cy_scb_uart.h **** ********************************************************************************
 275:Generated_Source\PSoC6\pdl\drivers/peripheral/scb/cy_scb_uart.h **** * <table class="doxtable">
 276:Generated_Source\PSoC6\pdl\drivers/peripheral/scb/cy_scb_uart.h **** *   <tr>
 277:Generated_Source\PSoC6\pdl\drivers/peripheral/scb/cy_scb_uart.h **** *     <th>MISRA Rule</th>
 278:Generated_Source\PSoC6\pdl\drivers/peripheral/scb/cy_scb_uart.h **** *     <th>Rule Class (Required/Advisory)</th>
 279:Generated_Source\PSoC6\pdl\drivers/peripheral/scb/cy_scb_uart.h **** *     <th>Rule Description</th>
 280:Generated_Source\PSoC6\pdl\drivers/peripheral/scb/cy_scb_uart.h **** *     <th>Description of Deviation(s)</th>
 281:Generated_Source\PSoC6\pdl\drivers/peripheral/scb/cy_scb_uart.h **** *   </tr>
 282:Generated_Source\PSoC6\pdl\drivers/peripheral/scb/cy_scb_uart.h **** *   <tr>
 283:Generated_Source\PSoC6\pdl\drivers/peripheral/scb/cy_scb_uart.h **** *     <td>11.4</td>
 284:Generated_Source\PSoC6\pdl\drivers/peripheral/scb/cy_scb_uart.h **** *     <td>A</td>
 285:Generated_Source\PSoC6\pdl\drivers/peripheral/scb/cy_scb_uart.h **** *     <td>A cast should not be performed between a pointer to object type and
 286:Generated_Source\PSoC6\pdl\drivers/peripheral/scb/cy_scb_uart.h **** *         a different pointer to object type.</td>
 287:Generated_Source\PSoC6\pdl\drivers/peripheral/scb/cy_scb_uart.h **** *     <td>
 288:Generated_Source\PSoC6\pdl\drivers/peripheral/scb/cy_scb_uart.h **** *         * The pointer to the buffer memory is void to allow handling different
 289:Generated_Source\PSoC6\pdl\drivers/peripheral/scb/cy_scb_uart.h **** *         different data types: uint8_t (4-8 bits) or uint16_t (9-16 bits).
 290:Generated_Source\PSoC6\pdl\drivers/peripheral/scb/cy_scb_uart.h **** *         The cast operation is safe because the configuration is verified
 291:Generated_Source\PSoC6\pdl\drivers/peripheral/scb/cy_scb_uart.h **** *         before operation is performed.
 292:Generated_Source\PSoC6\pdl\drivers/peripheral/scb/cy_scb_uart.h **** *         * The functions \ref Cy_SCB_UART_DeepSleepCallback and
 293:Generated_Source\PSoC6\pdl\drivers/peripheral/scb/cy_scb_uart.h **** *         \ref Cy_SCB_UART_HibernateCallback are callback of
 294:Generated_Source\PSoC6\pdl\drivers/peripheral/scb/cy_scb_uart.h **** *         \ref cy_en_syspm_status_t type. The cast operation safety in these
 295:Generated_Source\PSoC6\pdl\drivers/peripheral/scb/cy_scb_uart.h **** *         functions becomes the user's responsibility because pointers are
 296:Generated_Source\PSoC6\pdl\drivers/peripheral/scb/cy_scb_uart.h **** *         initialized when callback is registered in SysPm driver.</td>
 297:Generated_Source\PSoC6\pdl\drivers/peripheral/scb/cy_scb_uart.h **** *   </tr>
 298:Generated_Source\PSoC6\pdl\drivers/peripheral/scb/cy_scb_uart.h **** *   <tr>
 299:Generated_Source\PSoC6\pdl\drivers/peripheral/scb/cy_scb_uart.h **** *     <td>14.2</td>
 300:Generated_Source\PSoC6\pdl\drivers/peripheral/scb/cy_scb_uart.h **** *     <td>R</td>
 301:Generated_Source\PSoC6\pdl\drivers/peripheral/scb/cy_scb_uart.h **** *     <td>All non-null statements shall either: a) have at least one side-effect
 302:Generated_Source\PSoC6\pdl\drivers/peripheral/scb/cy_scb_uart.h **** *         however executed, or b) cause control flow to change.</td>
 303:Generated_Source\PSoC6\pdl\drivers/peripheral/scb/cy_scb_uart.h **** *     <td>The unused function parameters are cast to void. This statement
 304:Generated_Source\PSoC6\pdl\drivers/peripheral/scb/cy_scb_uart.h **** *         has no side-effect and is used to suppress a compiler warning.</td>
 305:Generated_Source\PSoC6\pdl\drivers/peripheral/scb/cy_scb_uart.h **** *   </tr>
 306:Generated_Source\PSoC6\pdl\drivers/peripheral/scb/cy_scb_uart.h **** *   <tr>
 307:Generated_Source\PSoC6\pdl\drivers/peripheral/scb/cy_scb_uart.h **** *     <td>14.7</td>
 308:Generated_Source\PSoC6\pdl\drivers/peripheral/scb/cy_scb_uart.h **** *     <td>R</td>
 309:Generated_Source\PSoC6\pdl\drivers/peripheral/scb/cy_scb_uart.h **** *     <td>A function shall have a single point of exit at the end of the
 310:Generated_Source\PSoC6\pdl\drivers/peripheral/scb/cy_scb_uart.h **** *         function.</td>
 311:Generated_Source\PSoC6\pdl\drivers/peripheral/scb/cy_scb_uart.h **** *     <td>The functions can return from several points. This is done to improve
 312:Generated_Source\PSoC6\pdl\drivers/peripheral/scb/cy_scb_uart.h **** *         code clarity when returning error status code if input parameters
 313:Generated_Source\PSoC6\pdl\drivers/peripheral/scb/cy_scb_uart.h **** *         validation fails.</td>
 314:Generated_Source\PSoC6\pdl\drivers/peripheral/scb/cy_scb_uart.h **** *   </tr>
 315:Generated_Source\PSoC6\pdl\drivers/peripheral/scb/cy_scb_uart.h **** * </table>
ARM GAS  C:\Users\LOCALA~1\AppData\Local\Temp\ccJ6EDbl.s 			page 7


 316:Generated_Source\PSoC6\pdl\drivers/peripheral/scb/cy_scb_uart.h **** *
 317:Generated_Source\PSoC6\pdl\drivers/peripheral/scb/cy_scb_uart.h **** * \section group_scb_uart_changelog Changelog
 318:Generated_Source\PSoC6\pdl\drivers/peripheral/scb/cy_scb_uart.h **** * <table class="doxtable">
 319:Generated_Source\PSoC6\pdl\drivers/peripheral/scb/cy_scb_uart.h **** *   <tr><th>Version</th><th>Changes</th><th>Reason for Change</th></tr>
 320:Generated_Source\PSoC6\pdl\drivers/peripheral/scb/cy_scb_uart.h **** *   <tr>
 321:Generated_Source\PSoC6\pdl\drivers/peripheral/scb/cy_scb_uart.h **** *     <td rowspan="2">2.20</td>
 322:Generated_Source\PSoC6\pdl\drivers/peripheral/scb/cy_scb_uart.h **** *     <td>Flattened the organization of the driver source code into the single
 323:Generated_Source\PSoC6\pdl\drivers/peripheral/scb/cy_scb_uart.h **** *         source directory and the single include directory.
 324:Generated_Source\PSoC6\pdl\drivers/peripheral/scb/cy_scb_uart.h **** *     </td>
 325:Generated_Source\PSoC6\pdl\drivers/peripheral/scb/cy_scb_uart.h **** *     <td>Driver library directory-structure simplification.</td>
 326:Generated_Source\PSoC6\pdl\drivers/peripheral/scb/cy_scb_uart.h **** *   </tr>
 327:Generated_Source\PSoC6\pdl\drivers/peripheral/scb/cy_scb_uart.h **** *   <tr>
 328:Generated_Source\PSoC6\pdl\drivers/peripheral/scb/cy_scb_uart.h **** *     <td>Added register access layer. Use register access macros instead
 329:Generated_Source\PSoC6\pdl\drivers/peripheral/scb/cy_scb_uart.h **** *         of direct register access using dereferenced pointers.</td>
 330:Generated_Source\PSoC6\pdl\drivers/peripheral/scb/cy_scb_uart.h **** *     <td>Makes register access device-independent, so that the PDL does
 331:Generated_Source\PSoC6\pdl\drivers/peripheral/scb/cy_scb_uart.h **** *         not need to be recompiled for each supported part number.</td>
 332:Generated_Source\PSoC6\pdl\drivers/peripheral/scb/cy_scb_uart.h **** *   </tr>
 333:Generated_Source\PSoC6\pdl\drivers/peripheral/scb/cy_scb_uart.h **** *   <tr>
 334:Generated_Source\PSoC6\pdl\drivers/peripheral/scb/cy_scb_uart.h **** *     <td>2.10</td>
 335:Generated_Source\PSoC6\pdl\drivers/peripheral/scb/cy_scb_uart.h **** *     <td>None.</td>
 336:Generated_Source\PSoC6\pdl\drivers/peripheral/scb/cy_scb_uart.h **** *     <td>SCB I2C driver updated.</td>
 337:Generated_Source\PSoC6\pdl\drivers/peripheral/scb/cy_scb_uart.h **** *   </tr>
 338:Generated_Source\PSoC6\pdl\drivers/peripheral/scb/cy_scb_uart.h **** *   <tr>
 339:Generated_Source\PSoC6\pdl\drivers/peripheral/scb/cy_scb_uart.h **** *     <td rowspan="5">2.0</td>
 340:Generated_Source\PSoC6\pdl\drivers/peripheral/scb/cy_scb_uart.h **** *     <td>Added parameters validation for public API.</td>
 341:Generated_Source\PSoC6\pdl\drivers/peripheral/scb/cy_scb_uart.h **** *     <td></td>
 342:Generated_Source\PSoC6\pdl\drivers/peripheral/scb/cy_scb_uart.h **** *   </tr>
 343:Generated_Source\PSoC6\pdl\drivers/peripheral/scb/cy_scb_uart.h **** *   <tr>
 344:Generated_Source\PSoC6\pdl\drivers/peripheral/scb/cy_scb_uart.h **** *     <td>Replaced variables that have limited range of values with enumerated
 345:Generated_Source\PSoC6\pdl\drivers/peripheral/scb/cy_scb_uart.h **** *         types.</td>
 346:Generated_Source\PSoC6\pdl\drivers/peripheral/scb/cy_scb_uart.h **** *     <td></td>
 347:Generated_Source\PSoC6\pdl\drivers/peripheral/scb/cy_scb_uart.h **** *   </tr>
 348:Generated_Source\PSoC6\pdl\drivers/peripheral/scb/cy_scb_uart.h **** *   <tr>
 349:Generated_Source\PSoC6\pdl\drivers/peripheral/scb/cy_scb_uart.h **** *     <td>Added missing "cy_cb_" to the callback function type names.</td>
 350:Generated_Source\PSoC6\pdl\drivers/peripheral/scb/cy_scb_uart.h **** *     <td></td>
 351:Generated_Source\PSoC6\pdl\drivers/peripheral/scb/cy_scb_uart.h **** *   </tr>
 352:Generated_Source\PSoC6\pdl\drivers/peripheral/scb/cy_scb_uart.h **** *   <tr>
 353:Generated_Source\PSoC6\pdl\drivers/peripheral/scb/cy_scb_uart.h **** *     <td>Added function \ref Cy_SCB_UART_SendBreakBlocking for break condition
 354:Generated_Source\PSoC6\pdl\drivers/peripheral/scb/cy_scb_uart.h **** *         generation.</td>
 355:Generated_Source\PSoC6\pdl\drivers/peripheral/scb/cy_scb_uart.h **** *     <td></td>
 356:Generated_Source\PSoC6\pdl\drivers/peripheral/scb/cy_scb_uart.h **** *   </tr>
 357:Generated_Source\PSoC6\pdl\drivers/peripheral/scb/cy_scb_uart.h **** *   <tr>
 358:Generated_Source\PSoC6\pdl\drivers/peripheral/scb/cy_scb_uart.h **** *     <td>Fixed low power callbacks \ref Cy_SCB_UART_DeepSleepCallback and
 359:Generated_Source\PSoC6\pdl\drivers/peripheral/scb/cy_scb_uart.h **** *         \ref Cy_SCB_UART_HibernateCallback to prevent the device from entering
 360:Generated_Source\PSoC6\pdl\drivers/peripheral/scb/cy_scb_uart.h **** *         low power mode when RX FIFO is not empty.</td>
 361:Generated_Source\PSoC6\pdl\drivers/peripheral/scb/cy_scb_uart.h **** *     <td>The callbacks allowed entering device into low power mode when RX FIFO
 362:Generated_Source\PSoC6\pdl\drivers/peripheral/scb/cy_scb_uart.h **** *         had data.</td>
 363:Generated_Source\PSoC6\pdl\drivers/peripheral/scb/cy_scb_uart.h **** *   </tr>
 364:Generated_Source\PSoC6\pdl\drivers/peripheral/scb/cy_scb_uart.h **** *   <tr>
 365:Generated_Source\PSoC6\pdl\drivers/peripheral/scb/cy_scb_uart.h **** *     <td>1.0</td>
 366:Generated_Source\PSoC6\pdl\drivers/peripheral/scb/cy_scb_uart.h **** *     <td>Initial version.</td>
 367:Generated_Source\PSoC6\pdl\drivers/peripheral/scb/cy_scb_uart.h **** *     <td></td>
 368:Generated_Source\PSoC6\pdl\drivers/peripheral/scb/cy_scb_uart.h **** *   </tr>
 369:Generated_Source\PSoC6\pdl\drivers/peripheral/scb/cy_scb_uart.h **** * </table>
 370:Generated_Source\PSoC6\pdl\drivers/peripheral/scb/cy_scb_uart.h **** *
 371:Generated_Source\PSoC6\pdl\drivers/peripheral/scb/cy_scb_uart.h **** * \defgroup group_scb_uart_macros Macros
 372:Generated_Source\PSoC6\pdl\drivers/peripheral/scb/cy_scb_uart.h **** * \defgroup group_scb_uart_functions Functions
ARM GAS  C:\Users\LOCALA~1\AppData\Local\Temp\ccJ6EDbl.s 			page 8


 373:Generated_Source\PSoC6\pdl\drivers/peripheral/scb/cy_scb_uart.h **** * \{
 374:Generated_Source\PSoC6\pdl\drivers/peripheral/scb/cy_scb_uart.h **** * \defgroup group_scb_uart_general_functions General
 375:Generated_Source\PSoC6\pdl\drivers/peripheral/scb/cy_scb_uart.h **** * \defgroup group_scb_uart_high_level_functions High-Level
 376:Generated_Source\PSoC6\pdl\drivers/peripheral/scb/cy_scb_uart.h **** * \defgroup group_scb_uart_low_level_functions Low-Level
 377:Generated_Source\PSoC6\pdl\drivers/peripheral/scb/cy_scb_uart.h **** * \defgroup group_scb_uart_interrupt_functions Interrupt
 378:Generated_Source\PSoC6\pdl\drivers/peripheral/scb/cy_scb_uart.h **** * \defgroup group_scb_uart_low_power_functions Low Power Callbacks
 379:Generated_Source\PSoC6\pdl\drivers/peripheral/scb/cy_scb_uart.h **** * \}
 380:Generated_Source\PSoC6\pdl\drivers/peripheral/scb/cy_scb_uart.h **** * \defgroup group_scb_uart_data_structures Data Structures
 381:Generated_Source\PSoC6\pdl\drivers/peripheral/scb/cy_scb_uart.h **** * \defgroup group_scb_uart_enums Enumerated Types
 382:Generated_Source\PSoC6\pdl\drivers/peripheral/scb/cy_scb_uart.h **** */
 383:Generated_Source\PSoC6\pdl\drivers/peripheral/scb/cy_scb_uart.h **** 
 384:Generated_Source\PSoC6\pdl\drivers/peripheral/scb/cy_scb_uart.h **** #if !defined(CY_SCB_UART_H)
 385:Generated_Source\PSoC6\pdl\drivers/peripheral/scb/cy_scb_uart.h **** #define CY_SCB_UART_H
 386:Generated_Source\PSoC6\pdl\drivers/peripheral/scb/cy_scb_uart.h **** 
 387:Generated_Source\PSoC6\pdl\drivers/peripheral/scb/cy_scb_uart.h **** #include "cy_scb_common.h"
 388:Generated_Source\PSoC6\pdl\drivers/peripheral/scb/cy_scb_uart.h **** 
 389:Generated_Source\PSoC6\pdl\drivers/peripheral/scb/cy_scb_uart.h **** #if defined(__cplusplus)
 390:Generated_Source\PSoC6\pdl\drivers/peripheral/scb/cy_scb_uart.h **** extern "C" {
 391:Generated_Source\PSoC6\pdl\drivers/peripheral/scb/cy_scb_uart.h **** #endif
 392:Generated_Source\PSoC6\pdl\drivers/peripheral/scb/cy_scb_uart.h **** 
 393:Generated_Source\PSoC6\pdl\drivers/peripheral/scb/cy_scb_uart.h **** /***************************************
 394:Generated_Source\PSoC6\pdl\drivers/peripheral/scb/cy_scb_uart.h **** *          Enumerated Types
 395:Generated_Source\PSoC6\pdl\drivers/peripheral/scb/cy_scb_uart.h **** ***************************************/
 396:Generated_Source\PSoC6\pdl\drivers/peripheral/scb/cy_scb_uart.h **** 
 397:Generated_Source\PSoC6\pdl\drivers/peripheral/scb/cy_scb_uart.h **** /**
 398:Generated_Source\PSoC6\pdl\drivers/peripheral/scb/cy_scb_uart.h **** * \addtogroup group_scb_uart_enums
 399:Generated_Source\PSoC6\pdl\drivers/peripheral/scb/cy_scb_uart.h **** * \{
 400:Generated_Source\PSoC6\pdl\drivers/peripheral/scb/cy_scb_uart.h **** */
 401:Generated_Source\PSoC6\pdl\drivers/peripheral/scb/cy_scb_uart.h **** 
 402:Generated_Source\PSoC6\pdl\drivers/peripheral/scb/cy_scb_uart.h **** /** UART status codes */
 403:Generated_Source\PSoC6\pdl\drivers/peripheral/scb/cy_scb_uart.h **** typedef enum
 404:Generated_Source\PSoC6\pdl\drivers/peripheral/scb/cy_scb_uart.h **** {
 405:Generated_Source\PSoC6\pdl\drivers/peripheral/scb/cy_scb_uart.h ****     /** Operation completed successfully */
 406:Generated_Source\PSoC6\pdl\drivers/peripheral/scb/cy_scb_uart.h ****     CY_SCB_UART_SUCCESS = 0U,
 407:Generated_Source\PSoC6\pdl\drivers/peripheral/scb/cy_scb_uart.h **** 
 408:Generated_Source\PSoC6\pdl\drivers/peripheral/scb/cy_scb_uart.h ****     /** One or more of input parameters are invalid */
 409:Generated_Source\PSoC6\pdl\drivers/peripheral/scb/cy_scb_uart.h ****     CY_SCB_UART_BAD_PARAM = (CY_SCB_ID | CY_PDL_STATUS_ERROR | CY_SCB_UART_ID | 1U),
 410:Generated_Source\PSoC6\pdl\drivers/peripheral/scb/cy_scb_uart.h **** 
 411:Generated_Source\PSoC6\pdl\drivers/peripheral/scb/cy_scb_uart.h ****     /**
 412:Generated_Source\PSoC6\pdl\drivers/peripheral/scb/cy_scb_uart.h ****     * The UART is busy processing a receive operation.
 413:Generated_Source\PSoC6\pdl\drivers/peripheral/scb/cy_scb_uart.h ****     */
 414:Generated_Source\PSoC6\pdl\drivers/peripheral/scb/cy_scb_uart.h ****     CY_SCB_UART_RECEIVE_BUSY = (CY_SCB_ID | CY_PDL_STATUS_ERROR | CY_SCB_UART_ID | 2U),
 415:Generated_Source\PSoC6\pdl\drivers/peripheral/scb/cy_scb_uart.h **** 
 416:Generated_Source\PSoC6\pdl\drivers/peripheral/scb/cy_scb_uart.h ****     /**
 417:Generated_Source\PSoC6\pdl\drivers/peripheral/scb/cy_scb_uart.h ****     * The UART is busy processing a transmit operation.
 418:Generated_Source\PSoC6\pdl\drivers/peripheral/scb/cy_scb_uart.h ****     */
 419:Generated_Source\PSoC6\pdl\drivers/peripheral/scb/cy_scb_uart.h ****     CY_SCB_UART_TRANSMIT_BUSY = (CY_SCB_ID | CY_PDL_STATUS_ERROR | CY_SCB_UART_ID | 3U)
 420:Generated_Source\PSoC6\pdl\drivers/peripheral/scb/cy_scb_uart.h **** } cy_en_scb_uart_status_t;
 421:Generated_Source\PSoC6\pdl\drivers/peripheral/scb/cy_scb_uart.h **** 
 422:Generated_Source\PSoC6\pdl\drivers/peripheral/scb/cy_scb_uart.h **** /** UART Mode */
 423:Generated_Source\PSoC6\pdl\drivers/peripheral/scb/cy_scb_uart.h **** typedef enum
 424:Generated_Source\PSoC6\pdl\drivers/peripheral/scb/cy_scb_uart.h **** {
 425:Generated_Source\PSoC6\pdl\drivers/peripheral/scb/cy_scb_uart.h ****     CY_SCB_UART_STANDARD  = 0U, /**< Configures the SCB for Standard UART operation */
 426:Generated_Source\PSoC6\pdl\drivers/peripheral/scb/cy_scb_uart.h ****     CY_SCB_UART_SMARTCARD = 1U, /**< Configures the SCB for SmartCard operation */
 427:Generated_Source\PSoC6\pdl\drivers/peripheral/scb/cy_scb_uart.h ****     CY_SCB_UART_IRDA      = 2U, /**< Configures the SCB for IrDA operation */
 428:Generated_Source\PSoC6\pdl\drivers/peripheral/scb/cy_scb_uart.h **** } cy_en_scb_uart_mode_t;
 429:Generated_Source\PSoC6\pdl\drivers/peripheral/scb/cy_scb_uart.h **** 
ARM GAS  C:\Users\LOCALA~1\AppData\Local\Temp\ccJ6EDbl.s 			page 9


 430:Generated_Source\PSoC6\pdl\drivers/peripheral/scb/cy_scb_uart.h **** /** UART Stop Bits */
 431:Generated_Source\PSoC6\pdl\drivers/peripheral/scb/cy_scb_uart.h **** typedef enum
 432:Generated_Source\PSoC6\pdl\drivers/peripheral/scb/cy_scb_uart.h **** {
 433:Generated_Source\PSoC6\pdl\drivers/peripheral/scb/cy_scb_uart.h ****     CY_SCB_UART_STOP_BITS_1   = 2U,  /**< UART looks for 1 Stop Bit    */
 434:Generated_Source\PSoC6\pdl\drivers/peripheral/scb/cy_scb_uart.h ****     CY_SCB_UART_STOP_BITS_1_5 = 3U,  /**< UART looks for 1.5 Stop Bits */
 435:Generated_Source\PSoC6\pdl\drivers/peripheral/scb/cy_scb_uart.h ****     CY_SCB_UART_STOP_BITS_2   = 4U,  /**< UART looks for 2 Stop Bits   */
 436:Generated_Source\PSoC6\pdl\drivers/peripheral/scb/cy_scb_uart.h ****     CY_SCB_UART_STOP_BITS_2_5 = 5U,  /**< UART looks for 2.5 Stop Bits */
 437:Generated_Source\PSoC6\pdl\drivers/peripheral/scb/cy_scb_uart.h ****     CY_SCB_UART_STOP_BITS_3   = 6U,  /**< UART looks for 3 Stop Bits   */
 438:Generated_Source\PSoC6\pdl\drivers/peripheral/scb/cy_scb_uart.h ****     CY_SCB_UART_STOP_BITS_3_5 = 7U,  /**< UART looks for 3.5 Stop Bits */
 439:Generated_Source\PSoC6\pdl\drivers/peripheral/scb/cy_scb_uart.h ****     CY_SCB_UART_STOP_BITS_4   = 8U,  /**< UART looks for 4 Stop Bits   */
 440:Generated_Source\PSoC6\pdl\drivers/peripheral/scb/cy_scb_uart.h **** } cy_en_scb_uart_stop_bits_t;
 441:Generated_Source\PSoC6\pdl\drivers/peripheral/scb/cy_scb_uart.h **** 
 442:Generated_Source\PSoC6\pdl\drivers/peripheral/scb/cy_scb_uart.h **** /** UART Parity */
 443:Generated_Source\PSoC6\pdl\drivers/peripheral/scb/cy_scb_uart.h **** typedef enum
 444:Generated_Source\PSoC6\pdl\drivers/peripheral/scb/cy_scb_uart.h **** {
 445:Generated_Source\PSoC6\pdl\drivers/peripheral/scb/cy_scb_uart.h ****     CY_SCB_UART_PARITY_NONE = 0U,    /**< UART has no parity check   */
 446:Generated_Source\PSoC6\pdl\drivers/peripheral/scb/cy_scb_uart.h ****     CY_SCB_UART_PARITY_EVEN = 2U,    /**< UART has even parity check */
 447:Generated_Source\PSoC6\pdl\drivers/peripheral/scb/cy_scb_uart.h ****     CY_SCB_UART_PARITY_ODD  = 3U,    /**< UART has odd parity check  */
 448:Generated_Source\PSoC6\pdl\drivers/peripheral/scb/cy_scb_uart.h **** } cy_en_scb_uart_parity_t;
 449:Generated_Source\PSoC6\pdl\drivers/peripheral/scb/cy_scb_uart.h **** 
 450:Generated_Source\PSoC6\pdl\drivers/peripheral/scb/cy_scb_uart.h **** /** UART Polarity */
 451:Generated_Source\PSoC6\pdl\drivers/peripheral/scb/cy_scb_uart.h **** typedef enum
 452:Generated_Source\PSoC6\pdl\drivers/peripheral/scb/cy_scb_uart.h **** {
 453:Generated_Source\PSoC6\pdl\drivers/peripheral/scb/cy_scb_uart.h ****     CY_SCB_UART_ACTIVE_LOW  = 0U,   /**< Signal is active low */
 454:Generated_Source\PSoC6\pdl\drivers/peripheral/scb/cy_scb_uart.h ****     CY_SCB_UART_ACTIVE_HIGH = 1U,   /**< Signal is active high */
 455:Generated_Source\PSoC6\pdl\drivers/peripheral/scb/cy_scb_uart.h **** } cy_en_scb_uart_polarity_t;
 456:Generated_Source\PSoC6\pdl\drivers/peripheral/scb/cy_scb_uart.h **** /** \} group_scb_uart_enums */
 457:Generated_Source\PSoC6\pdl\drivers/peripheral/scb/cy_scb_uart.h **** 
 458:Generated_Source\PSoC6\pdl\drivers/peripheral/scb/cy_scb_uart.h **** 
 459:Generated_Source\PSoC6\pdl\drivers/peripheral/scb/cy_scb_uart.h **** /*******************************************************************************
 460:Generated_Source\PSoC6\pdl\drivers/peripheral/scb/cy_scb_uart.h **** *                           Type Definitions
 461:Generated_Source\PSoC6\pdl\drivers/peripheral/scb/cy_scb_uart.h **** *******************************************************************************/
 462:Generated_Source\PSoC6\pdl\drivers/peripheral/scb/cy_scb_uart.h **** 
 463:Generated_Source\PSoC6\pdl\drivers/peripheral/scb/cy_scb_uart.h **** /**
 464:Generated_Source\PSoC6\pdl\drivers/peripheral/scb/cy_scb_uart.h **** * \addtogroup group_scb_uart_data_structures
 465:Generated_Source\PSoC6\pdl\drivers/peripheral/scb/cy_scb_uart.h **** * \{
 466:Generated_Source\PSoC6\pdl\drivers/peripheral/scb/cy_scb_uart.h **** */
 467:Generated_Source\PSoC6\pdl\drivers/peripheral/scb/cy_scb_uart.h **** 
 468:Generated_Source\PSoC6\pdl\drivers/peripheral/scb/cy_scb_uart.h **** /**
 469:Generated_Source\PSoC6\pdl\drivers/peripheral/scb/cy_scb_uart.h **** * Provides the typedef for the callback function called in the
 470:Generated_Source\PSoC6\pdl\drivers/peripheral/scb/cy_scb_uart.h **** * \ref Cy_SCB_UART_Interrupt to notify the user about occurrences of
 471:Generated_Source\PSoC6\pdl\drivers/peripheral/scb/cy_scb_uart.h **** * \ref group_scb_uart_macros_callback_events.
 472:Generated_Source\PSoC6\pdl\drivers/peripheral/scb/cy_scb_uart.h **** */
 473:Generated_Source\PSoC6\pdl\drivers/peripheral/scb/cy_scb_uart.h **** typedef void (* cy_cb_scb_uart_handle_events_t)(uint32_t event);
 474:Generated_Source\PSoC6\pdl\drivers/peripheral/scb/cy_scb_uart.h **** 
 475:Generated_Source\PSoC6\pdl\drivers/peripheral/scb/cy_scb_uart.h **** /** UART configuration structure */
 476:Generated_Source\PSoC6\pdl\drivers/peripheral/scb/cy_scb_uart.h **** typedef struct stc_scb_uart_config
 477:Generated_Source\PSoC6\pdl\drivers/peripheral/scb/cy_scb_uart.h **** {
 478:Generated_Source\PSoC6\pdl\drivers/peripheral/scb/cy_scb_uart.h ****     /** Specifies the UART's mode of operation */
 479:Generated_Source\PSoC6\pdl\drivers/peripheral/scb/cy_scb_uart.h ****     cy_en_scb_uart_mode_t    uartMode;
 480:Generated_Source\PSoC6\pdl\drivers/peripheral/scb/cy_scb_uart.h **** 
 481:Generated_Source\PSoC6\pdl\drivers/peripheral/scb/cy_scb_uart.h ****     /**
 482:Generated_Source\PSoC6\pdl\drivers/peripheral/scb/cy_scb_uart.h ****     * Oversample factor for UART.
 483:Generated_Source\PSoC6\pdl\drivers/peripheral/scb/cy_scb_uart.h ****     * * The UART baud rate is the SCB Clock frequency / oversample
 484:Generated_Source\PSoC6\pdl\drivers/peripheral/scb/cy_scb_uart.h ****     *  (valid range is 8-16).
 485:Generated_Source\PSoC6\pdl\drivers/peripheral/scb/cy_scb_uart.h ****     * * For IrDA, the oversample is always 16, unless
 486:Generated_Source\PSoC6\pdl\drivers/peripheral/scb/cy_scb_uart.h ****     * \ref irdaEnableLowPowerReceiver is enabled. Then the oversample is
ARM GAS  C:\Users\LOCALA~1\AppData\Local\Temp\ccJ6EDbl.s 			page 10


 487:Generated_Source\PSoC6\pdl\drivers/peripheral/scb/cy_scb_uart.h ****     * reduced to the \ref group_scb_uart_macros_irda_lp_ovs set.
 488:Generated_Source\PSoC6\pdl\drivers/peripheral/scb/cy_scb_uart.h ****     */
 489:Generated_Source\PSoC6\pdl\drivers/peripheral/scb/cy_scb_uart.h ****     uint32_t    oversample;
 490:Generated_Source\PSoC6\pdl\drivers/peripheral/scb/cy_scb_uart.h **** 
 491:Generated_Source\PSoC6\pdl\drivers/peripheral/scb/cy_scb_uart.h ****     /** The width of UART data (valid range is 5 to 9) */
 492:Generated_Source\PSoC6\pdl\drivers/peripheral/scb/cy_scb_uart.h ****     uint32_t    dataWidth;
 493:Generated_Source\PSoC6\pdl\drivers/peripheral/scb/cy_scb_uart.h **** 
 494:Generated_Source\PSoC6\pdl\drivers/peripheral/scb/cy_scb_uart.h ****     /**
 495:Generated_Source\PSoC6\pdl\drivers/peripheral/scb/cy_scb_uart.h ****     * Enables the hardware to shift out data element MSB first; otherwise,
 496:Generated_Source\PSoC6\pdl\drivers/peripheral/scb/cy_scb_uart.h ****     * LSB first
 497:Generated_Source\PSoC6\pdl\drivers/peripheral/scb/cy_scb_uart.h ****     */
 498:Generated_Source\PSoC6\pdl\drivers/peripheral/scb/cy_scb_uart.h ****     bool        enableMsbFirst;
 499:Generated_Source\PSoC6\pdl\drivers/peripheral/scb/cy_scb_uart.h **** 
 500:Generated_Source\PSoC6\pdl\drivers/peripheral/scb/cy_scb_uart.h ****     /**
 501:Generated_Source\PSoC6\pdl\drivers/peripheral/scb/cy_scb_uart.h ****     * Specifies the number of stop bits in the UART transaction, in half-bit
 502:Generated_Source\PSoC6\pdl\drivers/peripheral/scb/cy_scb_uart.h ****     * increments
 503:Generated_Source\PSoC6\pdl\drivers/peripheral/scb/cy_scb_uart.h ****     */
 504:Generated_Source\PSoC6\pdl\drivers/peripheral/scb/cy_scb_uart.h ****     cy_en_scb_uart_stop_bits_t    stopBits;
 505:Generated_Source\PSoC6\pdl\drivers/peripheral/scb/cy_scb_uart.h **** 
 506:Generated_Source\PSoC6\pdl\drivers/peripheral/scb/cy_scb_uart.h ****     /** Configures the UART parity */
 507:Generated_Source\PSoC6\pdl\drivers/peripheral/scb/cy_scb_uart.h ****     cy_en_scb_uart_parity_t    parity;
 508:Generated_Source\PSoC6\pdl\drivers/peripheral/scb/cy_scb_uart.h **** 
 509:Generated_Source\PSoC6\pdl\drivers/peripheral/scb/cy_scb_uart.h ****     /**
 510:Generated_Source\PSoC6\pdl\drivers/peripheral/scb/cy_scb_uart.h ****     * Enables a digital 3-tap median filter (2 out of 3 voting) to be applied
 511:Generated_Source\PSoC6\pdl\drivers/peripheral/scb/cy_scb_uart.h ****     * to the input of the RX FIFO to filter glitches on the line (for IrDA,
 512:Generated_Source\PSoC6\pdl\drivers/peripheral/scb/cy_scb_uart.h ****     * this parameter is ignored)
 513:Generated_Source\PSoC6\pdl\drivers/peripheral/scb/cy_scb_uart.h ****     *
 514:Generated_Source\PSoC6\pdl\drivers/peripheral/scb/cy_scb_uart.h ****     */
 515:Generated_Source\PSoC6\pdl\drivers/peripheral/scb/cy_scb_uart.h ****     bool        enableInputFilter;
 516:Generated_Source\PSoC6\pdl\drivers/peripheral/scb/cy_scb_uart.h **** 
 517:Generated_Source\PSoC6\pdl\drivers/peripheral/scb/cy_scb_uart.h ****     /**
 518:Generated_Source\PSoC6\pdl\drivers/peripheral/scb/cy_scb_uart.h ****     * Enables the hardware to drop data in the RX FIFO when a parity error is
 519:Generated_Source\PSoC6\pdl\drivers/peripheral/scb/cy_scb_uart.h ****     * detected
 520:Generated_Source\PSoC6\pdl\drivers/peripheral/scb/cy_scb_uart.h ****     */
 521:Generated_Source\PSoC6\pdl\drivers/peripheral/scb/cy_scb_uart.h ****     bool        dropOnParityError;
 522:Generated_Source\PSoC6\pdl\drivers/peripheral/scb/cy_scb_uart.h **** 
 523:Generated_Source\PSoC6\pdl\drivers/peripheral/scb/cy_scb_uart.h ****     /**
 524:Generated_Source\PSoC6\pdl\drivers/peripheral/scb/cy_scb_uart.h ****     * Enables the hardware to drop data in the RX FIFO when a frame error is
 525:Generated_Source\PSoC6\pdl\drivers/peripheral/scb/cy_scb_uart.h ****     * detected
 526:Generated_Source\PSoC6\pdl\drivers/peripheral/scb/cy_scb_uart.h ****     */
 527:Generated_Source\PSoC6\pdl\drivers/peripheral/scb/cy_scb_uart.h ****     bool        dropOnFrameError;
 528:Generated_Source\PSoC6\pdl\drivers/peripheral/scb/cy_scb_uart.h **** 
 529:Generated_Source\PSoC6\pdl\drivers/peripheral/scb/cy_scb_uart.h ****     /**
 530:Generated_Source\PSoC6\pdl\drivers/peripheral/scb/cy_scb_uart.h ****     * Enables the UART operation in Multi-Processor mode which requires
 531:Generated_Source\PSoC6\pdl\drivers/peripheral/scb/cy_scb_uart.h ****     * dataWidth to be 9 bits (the 9th bit is used to indicate address byte)
 532:Generated_Source\PSoC6\pdl\drivers/peripheral/scb/cy_scb_uart.h ****     */
 533:Generated_Source\PSoC6\pdl\drivers/peripheral/scb/cy_scb_uart.h ****     bool        enableMutliProcessorMode;
 534:Generated_Source\PSoC6\pdl\drivers/peripheral/scb/cy_scb_uart.h **** 
 535:Generated_Source\PSoC6\pdl\drivers/peripheral/scb/cy_scb_uart.h ****     /**
 536:Generated_Source\PSoC6\pdl\drivers/peripheral/scb/cy_scb_uart.h ****     * If Multi Processor mode is enabled, this is the address of the RX
 537:Generated_Source\PSoC6\pdl\drivers/peripheral/scb/cy_scb_uart.h ****     * FIFO. If the address matches, data is accepted into the FIFO. If
 538:Generated_Source\PSoC6\pdl\drivers/peripheral/scb/cy_scb_uart.h ****     * it does not match, the data is ignored.
 539:Generated_Source\PSoC6\pdl\drivers/peripheral/scb/cy_scb_uart.h ****     */
 540:Generated_Source\PSoC6\pdl\drivers/peripheral/scb/cy_scb_uart.h ****     uint32_t    receiverAddress;
 541:Generated_Source\PSoC6\pdl\drivers/peripheral/scb/cy_scb_uart.h **** 
 542:Generated_Source\PSoC6\pdl\drivers/peripheral/scb/cy_scb_uart.h ****     /**
 543:Generated_Source\PSoC6\pdl\drivers/peripheral/scb/cy_scb_uart.h ****     * This is the address mask for the Multi Processor address. 1 indicates
ARM GAS  C:\Users\LOCALA~1\AppData\Local\Temp\ccJ6EDbl.s 			page 11


 544:Generated_Source\PSoC6\pdl\drivers/peripheral/scb/cy_scb_uart.h ****     * that the incoming address must match the corresponding bit in the slave
 545:Generated_Source\PSoC6\pdl\drivers/peripheral/scb/cy_scb_uart.h ****     * address. A 0 in the mask indicates that the incoming address does
 546:Generated_Source\PSoC6\pdl\drivers/peripheral/scb/cy_scb_uart.h ****     * not need to match.
 547:Generated_Source\PSoC6\pdl\drivers/peripheral/scb/cy_scb_uart.h ****     */
 548:Generated_Source\PSoC6\pdl\drivers/peripheral/scb/cy_scb_uart.h ****     uint32_t    receiverAddressMask;
 549:Generated_Source\PSoC6\pdl\drivers/peripheral/scb/cy_scb_uart.h **** 
 550:Generated_Source\PSoC6\pdl\drivers/peripheral/scb/cy_scb_uart.h ****     /**
 551:Generated_Source\PSoC6\pdl\drivers/peripheral/scb/cy_scb_uart.h ****     * Enables the hardware to accept the matching address in the RX FIFO.
 552:Generated_Source\PSoC6\pdl\drivers/peripheral/scb/cy_scb_uart.h ****     * This is useful when the device supports more than one address.
 553:Generated_Source\PSoC6\pdl\drivers/peripheral/scb/cy_scb_uart.h ****     */
 554:Generated_Source\PSoC6\pdl\drivers/peripheral/scb/cy_scb_uart.h ****     bool        acceptAddrInFifo;
 555:Generated_Source\PSoC6\pdl\drivers/peripheral/scb/cy_scb_uart.h **** 
 556:Generated_Source\PSoC6\pdl\drivers/peripheral/scb/cy_scb_uart.h ****     /** Inverts the IrDA RX input */
 557:Generated_Source\PSoC6\pdl\drivers/peripheral/scb/cy_scb_uart.h ****     bool        irdaInvertRx;
 558:Generated_Source\PSoC6\pdl\drivers/peripheral/scb/cy_scb_uart.h **** 
 559:Generated_Source\PSoC6\pdl\drivers/peripheral/scb/cy_scb_uart.h ****     /**
 560:Generated_Source\PSoC6\pdl\drivers/peripheral/scb/cy_scb_uart.h ****     * Enables the low-power receive for IrDA mode.
 561:Generated_Source\PSoC6\pdl\drivers/peripheral/scb/cy_scb_uart.h ****     * Note that the transmission must be disabled if this mode is enabled.
 562:Generated_Source\PSoC6\pdl\drivers/peripheral/scb/cy_scb_uart.h ****     */
 563:Generated_Source\PSoC6\pdl\drivers/peripheral/scb/cy_scb_uart.h ****     bool        irdaEnableLowPowerReceiver;
 564:Generated_Source\PSoC6\pdl\drivers/peripheral/scb/cy_scb_uart.h **** 
 565:Generated_Source\PSoC6\pdl\drivers/peripheral/scb/cy_scb_uart.h ****     /**
 566:Generated_Source\PSoC6\pdl\drivers/peripheral/scb/cy_scb_uart.h ****     * Enables retransmission of the frame placed in the TX FIFO when
 567:Generated_Source\PSoC6\pdl\drivers/peripheral/scb/cy_scb_uart.h ****     * NACK is received in SmartCard mode (for Standard and IrDA , this parameter
 568:Generated_Source\PSoC6\pdl\drivers/peripheral/scb/cy_scb_uart.h ****     * is ignored)
 569:Generated_Source\PSoC6\pdl\drivers/peripheral/scb/cy_scb_uart.h ****     */
 570:Generated_Source\PSoC6\pdl\drivers/peripheral/scb/cy_scb_uart.h ****     bool        smartCardRetryOnNack;
 571:Generated_Source\PSoC6\pdl\drivers/peripheral/scb/cy_scb_uart.h **** 
 572:Generated_Source\PSoC6\pdl\drivers/peripheral/scb/cy_scb_uart.h ****     /**
 573:Generated_Source\PSoC6\pdl\drivers/peripheral/scb/cy_scb_uart.h ****     * Enables the usage of the CTS input signal for the transmitter. The
 574:Generated_Source\PSoC6\pdl\drivers/peripheral/scb/cy_scb_uart.h ****     * transmitter waits for CTS to be active before sending data
 575:Generated_Source\PSoC6\pdl\drivers/peripheral/scb/cy_scb_uart.h ****     */
 576:Generated_Source\PSoC6\pdl\drivers/peripheral/scb/cy_scb_uart.h ****     bool        enableCts;
 577:Generated_Source\PSoC6\pdl\drivers/peripheral/scb/cy_scb_uart.h **** 
 578:Generated_Source\PSoC6\pdl\drivers/peripheral/scb/cy_scb_uart.h ****     /** Sets the CTS Polarity */
 579:Generated_Source\PSoC6\pdl\drivers/peripheral/scb/cy_scb_uart.h ****     cy_en_scb_uart_polarity_t    ctsPolarity;
 580:Generated_Source\PSoC6\pdl\drivers/peripheral/scb/cy_scb_uart.h **** 
 581:Generated_Source\PSoC6\pdl\drivers/peripheral/scb/cy_scb_uart.h ****     /**
 582:Generated_Source\PSoC6\pdl\drivers/peripheral/scb/cy_scb_uart.h ****     * When the RX FIFO has fewer entries than rtsRxFifoLevel, the
 583:Generated_Source\PSoC6\pdl\drivers/peripheral/scb/cy_scb_uart.h ****     * RTS signal is active (note to disable RTS, set this field to zero)
 584:Generated_Source\PSoC6\pdl\drivers/peripheral/scb/cy_scb_uart.h ****     */
 585:Generated_Source\PSoC6\pdl\drivers/peripheral/scb/cy_scb_uart.h ****     uint32_t    rtsRxFifoLevel;
 586:Generated_Source\PSoC6\pdl\drivers/peripheral/scb/cy_scb_uart.h **** 
 587:Generated_Source\PSoC6\pdl\drivers/peripheral/scb/cy_scb_uart.h ****     /** Sets the RTS Polarity */
 588:Generated_Source\PSoC6\pdl\drivers/peripheral/scb/cy_scb_uart.h ****     cy_en_scb_uart_polarity_t    rtsPolarity;
 589:Generated_Source\PSoC6\pdl\drivers/peripheral/scb/cy_scb_uart.h **** 
 590:Generated_Source\PSoC6\pdl\drivers/peripheral/scb/cy_scb_uart.h ****     /** Specifies the number of bits to detect a break condition */
 591:Generated_Source\PSoC6\pdl\drivers/peripheral/scb/cy_scb_uart.h ****     uint32_t    breakWidth;
 592:Generated_Source\PSoC6\pdl\drivers/peripheral/scb/cy_scb_uart.h **** 
 593:Generated_Source\PSoC6\pdl\drivers/peripheral/scb/cy_scb_uart.h ****     /**
 594:Generated_Source\PSoC6\pdl\drivers/peripheral/scb/cy_scb_uart.h ****     * When there are more entries in the RX FIFO than this level
 595:Generated_Source\PSoC6\pdl\drivers/peripheral/scb/cy_scb_uart.h ****     * the RX trigger output goes high. This output can be connected
 596:Generated_Source\PSoC6\pdl\drivers/peripheral/scb/cy_scb_uart.h ****     * to a DMA channel through a trigger mux.
 597:Generated_Source\PSoC6\pdl\drivers/peripheral/scb/cy_scb_uart.h ****     * Also, it controls the \ref CY_SCB_UART_RX_TRIGGER interrupt source.
 598:Generated_Source\PSoC6\pdl\drivers/peripheral/scb/cy_scb_uart.h ****     */
 599:Generated_Source\PSoC6\pdl\drivers/peripheral/scb/cy_scb_uart.h ****     uint32_t    rxFifoTriggerLevel;
 600:Generated_Source\PSoC6\pdl\drivers/peripheral/scb/cy_scb_uart.h **** 
ARM GAS  C:\Users\LOCALA~1\AppData\Local\Temp\ccJ6EDbl.s 			page 12


 601:Generated_Source\PSoC6\pdl\drivers/peripheral/scb/cy_scb_uart.h ****     /**
 602:Generated_Source\PSoC6\pdl\drivers/peripheral/scb/cy_scb_uart.h ****     * The bits set in this mask allow the event to cause an interrupt
 603:Generated_Source\PSoC6\pdl\drivers/peripheral/scb/cy_scb_uart.h ****     * (See \ref group_scb_uart_macros_rx_fifo_status for the set of constants)
 604:Generated_Source\PSoC6\pdl\drivers/peripheral/scb/cy_scb_uart.h ****     */
 605:Generated_Source\PSoC6\pdl\drivers/peripheral/scb/cy_scb_uart.h ****     uint32_t    rxFifoIntEnableMask;
 606:Generated_Source\PSoC6\pdl\drivers/peripheral/scb/cy_scb_uart.h **** 
 607:Generated_Source\PSoC6\pdl\drivers/peripheral/scb/cy_scb_uart.h ****     /**
 608:Generated_Source\PSoC6\pdl\drivers/peripheral/scb/cy_scb_uart.h ****     * When there are fewer entries in the TX FIFO then this level
 609:Generated_Source\PSoC6\pdl\drivers/peripheral/scb/cy_scb_uart.h ****     * the TX trigger output goes high. This output can be connected
 610:Generated_Source\PSoC6\pdl\drivers/peripheral/scb/cy_scb_uart.h ****     * to a DMA channel through a trigger mux.
 611:Generated_Source\PSoC6\pdl\drivers/peripheral/scb/cy_scb_uart.h ****     * Also, it controls \ref CY_SCB_UART_TX_TRIGGER interrupt source.
 612:Generated_Source\PSoC6\pdl\drivers/peripheral/scb/cy_scb_uart.h ****     */
 613:Generated_Source\PSoC6\pdl\drivers/peripheral/scb/cy_scb_uart.h ****     uint32_t    txFifoTriggerLevel;
 614:Generated_Source\PSoC6\pdl\drivers/peripheral/scb/cy_scb_uart.h **** 
 615:Generated_Source\PSoC6\pdl\drivers/peripheral/scb/cy_scb_uart.h ****     /**
 616:Generated_Source\PSoC6\pdl\drivers/peripheral/scb/cy_scb_uart.h ****     * Bits set in this mask allows the event to cause an interrupt
 617:Generated_Source\PSoC6\pdl\drivers/peripheral/scb/cy_scb_uart.h ****     * (See \ref group_scb_uart_macros_tx_fifo_status for the set of constants)
 618:Generated_Source\PSoC6\pdl\drivers/peripheral/scb/cy_scb_uart.h ****     */
 619:Generated_Source\PSoC6\pdl\drivers/peripheral/scb/cy_scb_uart.h ****     uint32_t    txFifoIntEnableMask;
 620:Generated_Source\PSoC6\pdl\drivers/peripheral/scb/cy_scb_uart.h **** } cy_stc_scb_uart_config_t;
 621:Generated_Source\PSoC6\pdl\drivers/peripheral/scb/cy_scb_uart.h **** 
 622:Generated_Source\PSoC6\pdl\drivers/peripheral/scb/cy_scb_uart.h **** /** UART context structure.
 623:Generated_Source\PSoC6\pdl\drivers/peripheral/scb/cy_scb_uart.h **** * All fields for the context structure are internal. Firmware never reads or
 624:Generated_Source\PSoC6\pdl\drivers/peripheral/scb/cy_scb_uart.h **** * writes these values. Firmware allocates the structure and provides the
 625:Generated_Source\PSoC6\pdl\drivers/peripheral/scb/cy_scb_uart.h **** * address of the structure to the driver in function calls. Firmware must
 626:Generated_Source\PSoC6\pdl\drivers/peripheral/scb/cy_scb_uart.h **** * ensure that the defined instance of this structure remains in scope
 627:Generated_Source\PSoC6\pdl\drivers/peripheral/scb/cy_scb_uart.h **** * while the drive is in use.
 628:Generated_Source\PSoC6\pdl\drivers/peripheral/scb/cy_scb_uart.h **** */
 629:Generated_Source\PSoC6\pdl\drivers/peripheral/scb/cy_scb_uart.h **** typedef struct cy_stc_scb_uart_context
 630:Generated_Source\PSoC6\pdl\drivers/peripheral/scb/cy_scb_uart.h **** {
 631:Generated_Source\PSoC6\pdl\drivers/peripheral/scb/cy_scb_uart.h ****     /** \cond INTERNAL */
 632:Generated_Source\PSoC6\pdl\drivers/peripheral/scb/cy_scb_uart.h ****     uint32_t volatile txStatus;         /**< The transmit status */
 633:Generated_Source\PSoC6\pdl\drivers/peripheral/scb/cy_scb_uart.h ****     uint32_t volatile rxStatus;         /**< The receive status */
 634:Generated_Source\PSoC6\pdl\drivers/peripheral/scb/cy_scb_uart.h **** 
 635:Generated_Source\PSoC6\pdl\drivers/peripheral/scb/cy_scb_uart.h ****     void     *rxRingBuf;                /**< The pointer to the ring buffer */
 636:Generated_Source\PSoC6\pdl\drivers/peripheral/scb/cy_scb_uart.h ****     uint32_t  rxRingBufSize;            /**< The ring buffer size */
 637:Generated_Source\PSoC6\pdl\drivers/peripheral/scb/cy_scb_uart.h ****     uint32_t volatile rxRingBufHead;    /**< The ring buffer head index */
 638:Generated_Source\PSoC6\pdl\drivers/peripheral/scb/cy_scb_uart.h ****     uint32_t volatile rxRingBufTail;    /**< The ring buffer tail index */
 639:Generated_Source\PSoC6\pdl\drivers/peripheral/scb/cy_scb_uart.h **** 
 640:Generated_Source\PSoC6\pdl\drivers/peripheral/scb/cy_scb_uart.h ****     void     *rxBuf;                    /**< The pointer to the receive buffer */
 641:Generated_Source\PSoC6\pdl\drivers/peripheral/scb/cy_scb_uart.h ****     uint32_t  rxBufSize;                /**< The receive buffer size */
 642:Generated_Source\PSoC6\pdl\drivers/peripheral/scb/cy_scb_uart.h ****     uint32_t volatile rxBufIdx;         /**< The current location in the receive buffer */
 643:Generated_Source\PSoC6\pdl\drivers/peripheral/scb/cy_scb_uart.h **** 
 644:Generated_Source\PSoC6\pdl\drivers/peripheral/scb/cy_scb_uart.h ****     void     *txBuf;                    /**< The pointer to the transmit buffer */
 645:Generated_Source\PSoC6\pdl\drivers/peripheral/scb/cy_scb_uart.h ****     uint32_t  txBufSize;                /**< The transmit buffer size */
 646:Generated_Source\PSoC6\pdl\drivers/peripheral/scb/cy_scb_uart.h ****     uint32_t volatile txLeftToTransmit; /**< The number of data elements left to be transmitted */
 647:Generated_Source\PSoC6\pdl\drivers/peripheral/scb/cy_scb_uart.h **** 
 648:Generated_Source\PSoC6\pdl\drivers/peripheral/scb/cy_scb_uart.h ****     /** The pointer to an event callback that is called when any of
 649:Generated_Source\PSoC6\pdl\drivers/peripheral/scb/cy_scb_uart.h ****     * \ref group_scb_uart_macros_callback_events occurs
 650:Generated_Source\PSoC6\pdl\drivers/peripheral/scb/cy_scb_uart.h ****     */
 651:Generated_Source\PSoC6\pdl\drivers/peripheral/scb/cy_scb_uart.h ****     cy_cb_scb_uart_handle_events_t cbEvents;
 652:Generated_Source\PSoC6\pdl\drivers/peripheral/scb/cy_scb_uart.h **** 
 653:Generated_Source\PSoC6\pdl\drivers/peripheral/scb/cy_scb_uart.h **** #if !defined(NDEBUG)
 654:Generated_Source\PSoC6\pdl\drivers/peripheral/scb/cy_scb_uart.h ****     uint32_t initKey;               /**< Tracks the context initialization */
 655:Generated_Source\PSoC6\pdl\drivers/peripheral/scb/cy_scb_uart.h **** #endif /* !(NDEBUG) */
 656:Generated_Source\PSoC6\pdl\drivers/peripheral/scb/cy_scb_uart.h ****     /** \endcond */
 657:Generated_Source\PSoC6\pdl\drivers/peripheral/scb/cy_scb_uart.h **** } cy_stc_scb_uart_context_t;
ARM GAS  C:\Users\LOCALA~1\AppData\Local\Temp\ccJ6EDbl.s 			page 13


 658:Generated_Source\PSoC6\pdl\drivers/peripheral/scb/cy_scb_uart.h **** /** \} group_scb_uart_data_structures */
 659:Generated_Source\PSoC6\pdl\drivers/peripheral/scb/cy_scb_uart.h **** 
 660:Generated_Source\PSoC6\pdl\drivers/peripheral/scb/cy_scb_uart.h **** 
 661:Generated_Source\PSoC6\pdl\drivers/peripheral/scb/cy_scb_uart.h **** /*******************************************************************************
 662:Generated_Source\PSoC6\pdl\drivers/peripheral/scb/cy_scb_uart.h **** *                           Function Prototypes
 663:Generated_Source\PSoC6\pdl\drivers/peripheral/scb/cy_scb_uart.h **** *******************************************************************************/
 664:Generated_Source\PSoC6\pdl\drivers/peripheral/scb/cy_scb_uart.h **** 
 665:Generated_Source\PSoC6\pdl\drivers/peripheral/scb/cy_scb_uart.h **** /**
 666:Generated_Source\PSoC6\pdl\drivers/peripheral/scb/cy_scb_uart.h **** * \addtogroup group_scb_uart_general_functions
 667:Generated_Source\PSoC6\pdl\drivers/peripheral/scb/cy_scb_uart.h **** * \{
 668:Generated_Source\PSoC6\pdl\drivers/peripheral/scb/cy_scb_uart.h **** */
 669:Generated_Source\PSoC6\pdl\drivers/peripheral/scb/cy_scb_uart.h **** cy_en_scb_uart_status_t Cy_SCB_UART_Init(CySCB_Type *base, cy_stc_scb_uart_config_t const *config,
 670:Generated_Source\PSoC6\pdl\drivers/peripheral/scb/cy_scb_uart.h ****                                          cy_stc_scb_uart_context_t *context);
 671:Generated_Source\PSoC6\pdl\drivers/peripheral/scb/cy_scb_uart.h **** void Cy_SCB_UART_DeInit (CySCB_Type *base);
 672:Generated_Source\PSoC6\pdl\drivers/peripheral/scb/cy_scb_uart.h **** __STATIC_INLINE void Cy_SCB_UART_Enable(CySCB_Type *base);
 673:Generated_Source\PSoC6\pdl\drivers/peripheral/scb/cy_scb_uart.h **** void Cy_SCB_UART_Disable(CySCB_Type *base, cy_stc_scb_uart_context_t *context);
 674:Generated_Source\PSoC6\pdl\drivers/peripheral/scb/cy_scb_uart.h **** 
 675:Generated_Source\PSoC6\pdl\drivers/peripheral/scb/cy_scb_uart.h **** __STATIC_INLINE void     Cy_SCB_UART_EnableCts      (CySCB_Type *base);
 676:Generated_Source\PSoC6\pdl\drivers/peripheral/scb/cy_scb_uart.h **** __STATIC_INLINE void     Cy_SCB_UART_DisableCts     (CySCB_Type *base);
 677:Generated_Source\PSoC6\pdl\drivers/peripheral/scb/cy_scb_uart.h **** __STATIC_INLINE void     Cy_SCB_UART_SetRtsFifoLevel(CySCB_Type *base, uint32_t level);
 678:Generated_Source\PSoC6\pdl\drivers/peripheral/scb/cy_scb_uart.h **** __STATIC_INLINE uint32_t Cy_SCB_UART_GetRtsFifoLevel(CySCB_Type const *base);
 679:Generated_Source\PSoC6\pdl\drivers/peripheral/scb/cy_scb_uart.h **** 
 680:Generated_Source\PSoC6\pdl\drivers/peripheral/scb/cy_scb_uart.h **** __STATIC_INLINE void Cy_SCB_UART_EnableSkipStart (CySCB_Type *base);
 681:Generated_Source\PSoC6\pdl\drivers/peripheral/scb/cy_scb_uart.h **** __STATIC_INLINE void Cy_SCB_UART_DisableSkipStart(CySCB_Type *base);
 682:Generated_Source\PSoC6\pdl\drivers/peripheral/scb/cy_scb_uart.h **** /** \} group_scb_uart_general_functions */
 683:Generated_Source\PSoC6\pdl\drivers/peripheral/scb/cy_scb_uart.h **** 
 684:Generated_Source\PSoC6\pdl\drivers/peripheral/scb/cy_scb_uart.h **** /**
 685:Generated_Source\PSoC6\pdl\drivers/peripheral/scb/cy_scb_uart.h **** * \addtogroup group_scb_uart_high_level_functions
 686:Generated_Source\PSoC6\pdl\drivers/peripheral/scb/cy_scb_uart.h **** * \{
 687:Generated_Source\PSoC6\pdl\drivers/peripheral/scb/cy_scb_uart.h **** */
 688:Generated_Source\PSoC6\pdl\drivers/peripheral/scb/cy_scb_uart.h **** void     Cy_SCB_UART_StartRingBuffer   (CySCB_Type *base, void *buffer, uint32_t size,
 689:Generated_Source\PSoC6\pdl\drivers/peripheral/scb/cy_scb_uart.h ****                                         cy_stc_scb_uart_context_t *context);
 690:Generated_Source\PSoC6\pdl\drivers/peripheral/scb/cy_scb_uart.h **** void     Cy_SCB_UART_StopRingBuffer    (CySCB_Type *base, cy_stc_scb_uart_context_t *context);
 691:Generated_Source\PSoC6\pdl\drivers/peripheral/scb/cy_scb_uart.h **** uint32_t Cy_SCB_UART_GetNumInRingBuffer(CySCB_Type const *base, cy_stc_scb_uart_context_t const *co
 692:Generated_Source\PSoC6\pdl\drivers/peripheral/scb/cy_scb_uart.h **** void     Cy_SCB_UART_ClearRingBuffer   (CySCB_Type const *base, cy_stc_scb_uart_context_t *context)
 693:Generated_Source\PSoC6\pdl\drivers/peripheral/scb/cy_scb_uart.h **** 
 694:Generated_Source\PSoC6\pdl\drivers/peripheral/scb/cy_scb_uart.h **** cy_en_scb_uart_status_t Cy_SCB_UART_Receive(CySCB_Type *base, void *buffer, uint32_t size,
 695:Generated_Source\PSoC6\pdl\drivers/peripheral/scb/cy_scb_uart.h ****                                             cy_stc_scb_uart_context_t *context);
 696:Generated_Source\PSoC6\pdl\drivers/peripheral/scb/cy_scb_uart.h **** void     Cy_SCB_UART_AbortReceive    (CySCB_Type *base, cy_stc_scb_uart_context_t *context);
 697:Generated_Source\PSoC6\pdl\drivers/peripheral/scb/cy_scb_uart.h **** uint32_t Cy_SCB_UART_GetReceiveStatus(CySCB_Type const *base, cy_stc_scb_uart_context_t const *cont
 698:Generated_Source\PSoC6\pdl\drivers/peripheral/scb/cy_scb_uart.h **** uint32_t Cy_SCB_UART_GetNumReceived  (CySCB_Type const *base, cy_stc_scb_uart_context_t const *cont
 699:Generated_Source\PSoC6\pdl\drivers/peripheral/scb/cy_scb_uart.h **** 
 700:Generated_Source\PSoC6\pdl\drivers/peripheral/scb/cy_scb_uart.h **** cy_en_scb_uart_status_t Cy_SCB_UART_Transmit(CySCB_Type *base, void *buffer, uint32_t size,
 701:Generated_Source\PSoC6\pdl\drivers/peripheral/scb/cy_scb_uart.h ****                                              cy_stc_scb_uart_context_t *context);
 702:Generated_Source\PSoC6\pdl\drivers/peripheral/scb/cy_scb_uart.h **** void     Cy_SCB_UART_AbortTransmit       (CySCB_Type *base, cy_stc_scb_uart_context_t *context);
 703:Generated_Source\PSoC6\pdl\drivers/peripheral/scb/cy_scb_uart.h **** uint32_t Cy_SCB_UART_GetTransmitStatus   (CySCB_Type const *base, cy_stc_scb_uart_context_t const *
 704:Generated_Source\PSoC6\pdl\drivers/peripheral/scb/cy_scb_uart.h **** uint32_t Cy_SCB_UART_GetNumLeftToTransmit(CySCB_Type const *base, cy_stc_scb_uart_context_t const *
 705:Generated_Source\PSoC6\pdl\drivers/peripheral/scb/cy_scb_uart.h **** /** \} group_scb_uart_high_level_functions */
 706:Generated_Source\PSoC6\pdl\drivers/peripheral/scb/cy_scb_uart.h **** 
 707:Generated_Source\PSoC6\pdl\drivers/peripheral/scb/cy_scb_uart.h **** /**
 708:Generated_Source\PSoC6\pdl\drivers/peripheral/scb/cy_scb_uart.h **** * \addtogroup group_scb_uart_low_level_functions
 709:Generated_Source\PSoC6\pdl\drivers/peripheral/scb/cy_scb_uart.h **** * \{
 710:Generated_Source\PSoC6\pdl\drivers/peripheral/scb/cy_scb_uart.h **** */
 711:Generated_Source\PSoC6\pdl\drivers/peripheral/scb/cy_scb_uart.h **** __STATIC_INLINE uint32_t Cy_SCB_UART_Put             (CySCB_Type *base, uint32_t data);
 712:Generated_Source\PSoC6\pdl\drivers/peripheral/scb/cy_scb_uart.h **** __STATIC_INLINE uint32_t Cy_SCB_UART_PutArray        (CySCB_Type *base, void *buffer, uint32_t size
 713:Generated_Source\PSoC6\pdl\drivers/peripheral/scb/cy_scb_uart.h **** __STATIC_INLINE void     Cy_SCB_UART_PutArrayBlocking(CySCB_Type *base, void *buffer, uint32_t size
 714:Generated_Source\PSoC6\pdl\drivers/peripheral/scb/cy_scb_uart.h **** __STATIC_INLINE void     Cy_SCB_UART_PutString       (CySCB_Type *base, char_t const string[]);
ARM GAS  C:\Users\LOCALA~1\AppData\Local\Temp\ccJ6EDbl.s 			page 14


 715:Generated_Source\PSoC6\pdl\drivers/peripheral/scb/cy_scb_uart.h **** void Cy_SCB_UART_SendBreakBlocking(CySCB_Type *base, uint32_t breakWidth);
 716:Generated_Source\PSoC6\pdl\drivers/peripheral/scb/cy_scb_uart.h **** 
 717:Generated_Source\PSoC6\pdl\drivers/peripheral/scb/cy_scb_uart.h **** __STATIC_INLINE uint32_t Cy_SCB_UART_Get             (CySCB_Type const *base);
 718:Generated_Source\PSoC6\pdl\drivers/peripheral/scb/cy_scb_uart.h **** __STATIC_INLINE uint32_t Cy_SCB_UART_GetArray        (CySCB_Type const *base, void *buffer, uint32_
 719:Generated_Source\PSoC6\pdl\drivers/peripheral/scb/cy_scb_uart.h **** __STATIC_INLINE void     Cy_SCB_UART_GetArrayBlocking(CySCB_Type const *base, void *buffer, uint32_
 720:Generated_Source\PSoC6\pdl\drivers/peripheral/scb/cy_scb_uart.h **** 
 721:Generated_Source\PSoC6\pdl\drivers/peripheral/scb/cy_scb_uart.h **** __STATIC_INLINE uint32_t Cy_SCB_UART_GetTxFifoStatus  (CySCB_Type const *base);
 722:Generated_Source\PSoC6\pdl\drivers/peripheral/scb/cy_scb_uart.h **** __STATIC_INLINE void     Cy_SCB_UART_ClearTxFifoStatus(CySCB_Type *base, uint32_t clearMask);
 723:Generated_Source\PSoC6\pdl\drivers/peripheral/scb/cy_scb_uart.h **** 
 724:Generated_Source\PSoC6\pdl\drivers/peripheral/scb/cy_scb_uart.h **** __STATIC_INLINE uint32_t Cy_SCB_UART_GetRxFifoStatus  (CySCB_Type const *base);
 725:Generated_Source\PSoC6\pdl\drivers/peripheral/scb/cy_scb_uart.h **** __STATIC_INLINE void     Cy_SCB_UART_ClearRxFifoStatus(CySCB_Type *base, uint32_t clearMask);
 726:Generated_Source\PSoC6\pdl\drivers/peripheral/scb/cy_scb_uart.h **** 
 727:Generated_Source\PSoC6\pdl\drivers/peripheral/scb/cy_scb_uart.h **** __STATIC_INLINE uint32_t Cy_SCB_UART_GetNumInTxFifo   (CySCB_Type const *base);
 728:Generated_Source\PSoC6\pdl\drivers/peripheral/scb/cy_scb_uart.h **** __STATIC_INLINE bool     Cy_SCB_UART_IsTxComplete     (CySCB_Type const *base);
 729:Generated_Source\PSoC6\pdl\drivers/peripheral/scb/cy_scb_uart.h **** 
 730:Generated_Source\PSoC6\pdl\drivers/peripheral/scb/cy_scb_uart.h **** __STATIC_INLINE uint32_t Cy_SCB_UART_GetNumInRxFifo   (CySCB_Type const *base);
 731:Generated_Source\PSoC6\pdl\drivers/peripheral/scb/cy_scb_uart.h **** 
 732:Generated_Source\PSoC6\pdl\drivers/peripheral/scb/cy_scb_uart.h **** __STATIC_INLINE void     Cy_SCB_UART_ClearRxFifo      (CySCB_Type *base);
 733:Generated_Source\PSoC6\pdl\drivers/peripheral/scb/cy_scb_uart.h **** __STATIC_INLINE void     Cy_SCB_UART_ClearTxFifo      (CySCB_Type *base);
 734:Generated_Source\PSoC6\pdl\drivers/peripheral/scb/cy_scb_uart.h **** /** \} group_scb_uart_low_level_functions */
 735:Generated_Source\PSoC6\pdl\drivers/peripheral/scb/cy_scb_uart.h **** 
 736:Generated_Source\PSoC6\pdl\drivers/peripheral/scb/cy_scb_uart.h **** /**
 737:Generated_Source\PSoC6\pdl\drivers/peripheral/scb/cy_scb_uart.h **** * \addtogroup group_scb_uart_interrupt_functions
 738:Generated_Source\PSoC6\pdl\drivers/peripheral/scb/cy_scb_uart.h **** * \{
 739:Generated_Source\PSoC6\pdl\drivers/peripheral/scb/cy_scb_uart.h **** */
 740:Generated_Source\PSoC6\pdl\drivers/peripheral/scb/cy_scb_uart.h **** void Cy_SCB_UART_Interrupt(CySCB_Type *base, cy_stc_scb_uart_context_t *context);
 741:Generated_Source\PSoC6\pdl\drivers/peripheral/scb/cy_scb_uart.h **** 
 742:Generated_Source\PSoC6\pdl\drivers/peripheral/scb/cy_scb_uart.h **** __STATIC_INLINE void Cy_SCB_UART_RegisterCallback(CySCB_Type const *base, cy_cb_scb_uart_handle_eve
 743:Generated_Source\PSoC6\pdl\drivers/peripheral/scb/cy_scb_uart.h ****                                                   cy_stc_scb_uart_context_t *context);
 744:Generated_Source\PSoC6\pdl\drivers/peripheral/scb/cy_scb_uart.h **** /** \} group_scb_uart_interrupt_functions */
 745:Generated_Source\PSoC6\pdl\drivers/peripheral/scb/cy_scb_uart.h **** 
 746:Generated_Source\PSoC6\pdl\drivers/peripheral/scb/cy_scb_uart.h **** /**
 747:Generated_Source\PSoC6\pdl\drivers/peripheral/scb/cy_scb_uart.h **** * \addtogroup group_scb_uart_low_power_functions
 748:Generated_Source\PSoC6\pdl\drivers/peripheral/scb/cy_scb_uart.h **** * \{
 749:Generated_Source\PSoC6\pdl\drivers/peripheral/scb/cy_scb_uart.h **** */
 750:Generated_Source\PSoC6\pdl\drivers/peripheral/scb/cy_scb_uart.h **** cy_en_syspm_status_t Cy_SCB_UART_DeepSleepCallback(cy_stc_syspm_callback_params_t *callbackParams, 
 751:Generated_Source\PSoC6\pdl\drivers/peripheral/scb/cy_scb_uart.h **** cy_en_syspm_status_t Cy_SCB_UART_HibernateCallback(cy_stc_syspm_callback_params_t *callbackParams, 
 752:Generated_Source\PSoC6\pdl\drivers/peripheral/scb/cy_scb_uart.h **** /** \} group_scb_uart_low_power_functions */
 753:Generated_Source\PSoC6\pdl\drivers/peripheral/scb/cy_scb_uart.h **** 
 754:Generated_Source\PSoC6\pdl\drivers/peripheral/scb/cy_scb_uart.h **** 
 755:Generated_Source\PSoC6\pdl\drivers/peripheral/scb/cy_scb_uart.h **** /*******************************************************************************
 756:Generated_Source\PSoC6\pdl\drivers/peripheral/scb/cy_scb_uart.h **** *                               API Constants
 757:Generated_Source\PSoC6\pdl\drivers/peripheral/scb/cy_scb_uart.h **** *******************************************************************************/
 758:Generated_Source\PSoC6\pdl\drivers/peripheral/scb/cy_scb_uart.h **** 
 759:Generated_Source\PSoC6\pdl\drivers/peripheral/scb/cy_scb_uart.h **** /**
 760:Generated_Source\PSoC6\pdl\drivers/peripheral/scb/cy_scb_uart.h **** * \addtogroup group_scb_uart_macros
 761:Generated_Source\PSoC6\pdl\drivers/peripheral/scb/cy_scb_uart.h **** * \{
 762:Generated_Source\PSoC6\pdl\drivers/peripheral/scb/cy_scb_uart.h **** */
 763:Generated_Source\PSoC6\pdl\drivers/peripheral/scb/cy_scb_uart.h **** 
 764:Generated_Source\PSoC6\pdl\drivers/peripheral/scb/cy_scb_uart.h **** /**
 765:Generated_Source\PSoC6\pdl\drivers/peripheral/scb/cy_scb_uart.h **** * \defgroup group_scb_uart_macros_irda_lp_ovs UART IRDA Low Power Oversample factors
 766:Generated_Source\PSoC6\pdl\drivers/peripheral/scb/cy_scb_uart.h **** * \{
 767:Generated_Source\PSoC6\pdl\drivers/peripheral/scb/cy_scb_uart.h **** */
 768:Generated_Source\PSoC6\pdl\drivers/peripheral/scb/cy_scb_uart.h **** #define CY_SCB_UART_IRDA_LP_OVS16      (1UL)   /**< IrDA in low-power mode oversampled by 16   */
 769:Generated_Source\PSoC6\pdl\drivers/peripheral/scb/cy_scb_uart.h **** #define CY_SCB_UART_IRDA_LP_OVS32      (2UL)   /**< IrDA in low-power mode oversampled by 32   */
 770:Generated_Source\PSoC6\pdl\drivers/peripheral/scb/cy_scb_uart.h **** #define CY_SCB_UART_IRDA_LP_OVS48      (3UL)   /**< IrDA in low-power mode oversampled by 48   */
 771:Generated_Source\PSoC6\pdl\drivers/peripheral/scb/cy_scb_uart.h **** #define CY_SCB_UART_IRDA_LP_OVS96      (4UL)   /**< IrDA in low-power mode oversampled by 96   */
ARM GAS  C:\Users\LOCALA~1\AppData\Local\Temp\ccJ6EDbl.s 			page 15


 772:Generated_Source\PSoC6\pdl\drivers/peripheral/scb/cy_scb_uart.h **** #define CY_SCB_UART_IRDA_LP_OVS192     (5UL)   /**< IrDA in low-power mode oversampled by 192  */
 773:Generated_Source\PSoC6\pdl\drivers/peripheral/scb/cy_scb_uart.h **** #define CY_SCB_UART_IRDA_LP_OVS768     (6UL)   /**< IrDA in low-power mode oversampled by 768  */
 774:Generated_Source\PSoC6\pdl\drivers/peripheral/scb/cy_scb_uart.h **** #define CY_SCB_UART_IRDA_LP_OVS1536    (7UL)   /**< IrDA in low-power mode oversampled by 1536 */
 775:Generated_Source\PSoC6\pdl\drivers/peripheral/scb/cy_scb_uart.h **** /** \} group_scb_uart_macros_irda_lp_ovs */
 776:Generated_Source\PSoC6\pdl\drivers/peripheral/scb/cy_scb_uart.h **** 
 777:Generated_Source\PSoC6\pdl\drivers/peripheral/scb/cy_scb_uart.h **** /**
 778:Generated_Source\PSoC6\pdl\drivers/peripheral/scb/cy_scb_uart.h **** * \defgroup group_scb_uart_macros_rx_fifo_status UART RX FIFO status.
 779:Generated_Source\PSoC6\pdl\drivers/peripheral/scb/cy_scb_uart.h **** * \{
 780:Generated_Source\PSoC6\pdl\drivers/peripheral/scb/cy_scb_uart.h **** * Macros to check UART RX FIFO status returned by \ref Cy_SCB_UART_GetRxFifoStatus
 781:Generated_Source\PSoC6\pdl\drivers/peripheral/scb/cy_scb_uart.h **** * function or assign mask for \ref Cy_SCB_UART_ClearRxFifoStatus function.
 782:Generated_Source\PSoC6\pdl\drivers/peripheral/scb/cy_scb_uart.h **** * Each UART RX FIFO status is encoded in a separate bit, therefore multiple
 783:Generated_Source\PSoC6\pdl\drivers/peripheral/scb/cy_scb_uart.h **** * bits may be set to indicate the current status.
 784:Generated_Source\PSoC6\pdl\drivers/peripheral/scb/cy_scb_uart.h **** */
 785:Generated_Source\PSoC6\pdl\drivers/peripheral/scb/cy_scb_uart.h **** 
 786:Generated_Source\PSoC6\pdl\drivers/peripheral/scb/cy_scb_uart.h **** /** The number of entries in the RX FIFO is more than the RX FIFO trigger level
 787:Generated_Source\PSoC6\pdl\drivers/peripheral/scb/cy_scb_uart.h **** * value
 788:Generated_Source\PSoC6\pdl\drivers/peripheral/scb/cy_scb_uart.h **** */
 789:Generated_Source\PSoC6\pdl\drivers/peripheral/scb/cy_scb_uart.h **** #define CY_SCB_UART_RX_TRIGGER         (SCB_INTR_RX_TRIGGER_Msk)
 790:Generated_Source\PSoC6\pdl\drivers/peripheral/scb/cy_scb_uart.h **** 
 791:Generated_Source\PSoC6\pdl\drivers/peripheral/scb/cy_scb_uart.h **** /** The RX FIFO is not empty, there is data to read */
 792:Generated_Source\PSoC6\pdl\drivers/peripheral/scb/cy_scb_uart.h **** #define CY_SCB_UART_RX_NOT_EMPTY       (SCB_INTR_RX_NOT_EMPTY_Msk)
 793:Generated_Source\PSoC6\pdl\drivers/peripheral/scb/cy_scb_uart.h **** 
 794:Generated_Source\PSoC6\pdl\drivers/peripheral/scb/cy_scb_uart.h **** /**
 795:Generated_Source\PSoC6\pdl\drivers/peripheral/scb/cy_scb_uart.h **** * The RX FIFO is full, there is no more space for additional data, and
 796:Generated_Source\PSoC6\pdl\drivers/peripheral/scb/cy_scb_uart.h **** * any additional data will be dropped
 797:Generated_Source\PSoC6\pdl\drivers/peripheral/scb/cy_scb_uart.h **** */
 798:Generated_Source\PSoC6\pdl\drivers/peripheral/scb/cy_scb_uart.h **** #define CY_SCB_UART_RX_FULL            (SCB_INTR_RX_FULL_Msk)
 799:Generated_Source\PSoC6\pdl\drivers/peripheral/scb/cy_scb_uart.h **** 
 800:Generated_Source\PSoC6\pdl\drivers/peripheral/scb/cy_scb_uart.h **** /**
 801:Generated_Source\PSoC6\pdl\drivers/peripheral/scb/cy_scb_uart.h **** * The RX FIFO was full and there was an attempt to write to it.
 802:Generated_Source\PSoC6\pdl\drivers/peripheral/scb/cy_scb_uart.h **** * That additional data was dropped.
 803:Generated_Source\PSoC6\pdl\drivers/peripheral/scb/cy_scb_uart.h **** */
 804:Generated_Source\PSoC6\pdl\drivers/peripheral/scb/cy_scb_uart.h **** #define CY_SCB_UART_RX_OVERFLOW        (SCB_INTR_RX_OVERFLOW_Msk)
 805:Generated_Source\PSoC6\pdl\drivers/peripheral/scb/cy_scb_uart.h **** 
 806:Generated_Source\PSoC6\pdl\drivers/peripheral/scb/cy_scb_uart.h **** /** An attempt to read from an empty RX FIFO */
 807:Generated_Source\PSoC6\pdl\drivers/peripheral/scb/cy_scb_uart.h **** #define CY_SCB_UART_RX_UNDERFLOW       (SCB_INTR_RX_UNDERFLOW_Msk)
 808:Generated_Source\PSoC6\pdl\drivers/peripheral/scb/cy_scb_uart.h **** 
 809:Generated_Source\PSoC6\pdl\drivers/peripheral/scb/cy_scb_uart.h **** /** The RX FIFO detected a frame error, either a stop or stop-bit error */
 810:Generated_Source\PSoC6\pdl\drivers/peripheral/scb/cy_scb_uart.h **** #define CY_SCB_UART_RX_ERR_FRAME       (SCB_INTR_RX_FRAME_ERROR_Msk)
 811:Generated_Source\PSoC6\pdl\drivers/peripheral/scb/cy_scb_uart.h **** 
 812:Generated_Source\PSoC6\pdl\drivers/peripheral/scb/cy_scb_uart.h **** /** The RX FIFO detected a parity error */
 813:Generated_Source\PSoC6\pdl\drivers/peripheral/scb/cy_scb_uart.h **** #define CY_SCB_UART_RX_ERR_PARITY      (SCB_INTR_RX_PARITY_ERROR_Msk)
 814:Generated_Source\PSoC6\pdl\drivers/peripheral/scb/cy_scb_uart.h **** 
 815:Generated_Source\PSoC6\pdl\drivers/peripheral/scb/cy_scb_uart.h **** /** The RX FIFO detected a break transmission from the transmitter */
 816:Generated_Source\PSoC6\pdl\drivers/peripheral/scb/cy_scb_uart.h **** #define CY_SCB_UART_RX_BREAK_DETECT    (SCB_INTR_RX_BREAK_DETECT_Msk)
 817:Generated_Source\PSoC6\pdl\drivers/peripheral/scb/cy_scb_uart.h **** /** \} group_scb_uart_macros_rx_fifo_status */
 818:Generated_Source\PSoC6\pdl\drivers/peripheral/scb/cy_scb_uart.h **** 
 819:Generated_Source\PSoC6\pdl\drivers/peripheral/scb/cy_scb_uart.h **** /**
 820:Generated_Source\PSoC6\pdl\drivers/peripheral/scb/cy_scb_uart.h **** * \defgroup group_scb_uart_macros_tx_fifo_status UART TX FIFO Statuses
 821:Generated_Source\PSoC6\pdl\drivers/peripheral/scb/cy_scb_uart.h **** * \{
 822:Generated_Source\PSoC6\pdl\drivers/peripheral/scb/cy_scb_uart.h **** * Macros to check UART TX FIFO status returned by \ref Cy_SCB_UART_GetTxFifoStatus
 823:Generated_Source\PSoC6\pdl\drivers/peripheral/scb/cy_scb_uart.h **** * function or assign mask for \ref Cy_SCB_UART_ClearTxFifoStatus function.
 824:Generated_Source\PSoC6\pdl\drivers/peripheral/scb/cy_scb_uart.h **** * Each UART TX FIFO status is encoded in a separate bit, therefore multiple bits
 825:Generated_Source\PSoC6\pdl\drivers/peripheral/scb/cy_scb_uart.h **** * may be set to indicate the current status.
 826:Generated_Source\PSoC6\pdl\drivers/peripheral/scb/cy_scb_uart.h **** */
 827:Generated_Source\PSoC6\pdl\drivers/peripheral/scb/cy_scb_uart.h **** 
 828:Generated_Source\PSoC6\pdl\drivers/peripheral/scb/cy_scb_uart.h **** /** The number of entries in the TX FIFO is less than the TX FIFO trigger level
ARM GAS  C:\Users\LOCALA~1\AppData\Local\Temp\ccJ6EDbl.s 			page 16


 829:Generated_Source\PSoC6\pdl\drivers/peripheral/scb/cy_scb_uart.h **** * value
 830:Generated_Source\PSoC6\pdl\drivers/peripheral/scb/cy_scb_uart.h **** */
 831:Generated_Source\PSoC6\pdl\drivers/peripheral/scb/cy_scb_uart.h **** #define CY_SCB_UART_TX_TRIGGER     (SCB_INTR_TX_TRIGGER_Msk)
 832:Generated_Source\PSoC6\pdl\drivers/peripheral/scb/cy_scb_uart.h **** 
 833:Generated_Source\PSoC6\pdl\drivers/peripheral/scb/cy_scb_uart.h **** /** The TX FIFO is not full, there is a space for more data */
 834:Generated_Source\PSoC6\pdl\drivers/peripheral/scb/cy_scb_uart.h **** #define CY_SCB_UART_TX_NOT_FULL    (SCB_INTR_TX_NOT_FULL_Msk)
 835:Generated_Source\PSoC6\pdl\drivers/peripheral/scb/cy_scb_uart.h **** 
 836:Generated_Source\PSoC6\pdl\drivers/peripheral/scb/cy_scb_uart.h **** /** The TX FIFO is empty, note there may still be data in the shift register.*/
 837:Generated_Source\PSoC6\pdl\drivers/peripheral/scb/cy_scb_uart.h **** #define CY_SCB_UART_TX_EMPTY       (SCB_INTR_TX_EMPTY_Msk)
 838:Generated_Source\PSoC6\pdl\drivers/peripheral/scb/cy_scb_uart.h **** 
 839:Generated_Source\PSoC6\pdl\drivers/peripheral/scb/cy_scb_uart.h **** /** An attempt to write to the full TX FIFO */
 840:Generated_Source\PSoC6\pdl\drivers/peripheral/scb/cy_scb_uart.h **** #define CY_SCB_UART_TX_OVERFLOW    (SCB_INTR_TX_OVERFLOW_Msk)
 841:Generated_Source\PSoC6\pdl\drivers/peripheral/scb/cy_scb_uart.h **** 
 842:Generated_Source\PSoC6\pdl\drivers/peripheral/scb/cy_scb_uart.h **** /** An attempt to read from an empty transmitter FIFO (hardware reads). */
 843:Generated_Source\PSoC6\pdl\drivers/peripheral/scb/cy_scb_uart.h **** #define CY_SCB_UART_TX_UNDERFLOW (SCB_INTR_TX_UNDERFLOW_Msk)
 844:Generated_Source\PSoC6\pdl\drivers/peripheral/scb/cy_scb_uart.h **** 
 845:Generated_Source\PSoC6\pdl\drivers/peripheral/scb/cy_scb_uart.h **** /** All data has been transmitted out of the FIFO, including shifter */
 846:Generated_Source\PSoC6\pdl\drivers/peripheral/scb/cy_scb_uart.h **** #define CY_SCB_UART_TX_DONE        (SCB_INTR_TX_UART_DONE_Msk)
 847:Generated_Source\PSoC6\pdl\drivers/peripheral/scb/cy_scb_uart.h **** 
 848:Generated_Source\PSoC6\pdl\drivers/peripheral/scb/cy_scb_uart.h **** /** SmartCard only: the transmitter received a NACK */
 849:Generated_Source\PSoC6\pdl\drivers/peripheral/scb/cy_scb_uart.h **** #define CY_SCB_UART_TX_NACK        (SCB_INTR_TX_UART_NACK_Msk)
 850:Generated_Source\PSoC6\pdl\drivers/peripheral/scb/cy_scb_uart.h **** 
 851:Generated_Source\PSoC6\pdl\drivers/peripheral/scb/cy_scb_uart.h **** /** SmartCard only: the transmitter lost arbitration */
 852:Generated_Source\PSoC6\pdl\drivers/peripheral/scb/cy_scb_uart.h **** #define CY_SCB_UART_TX_ARB_LOST    (SCB_INTR_TX_UART_ARB_LOST_Msk)
 853:Generated_Source\PSoC6\pdl\drivers/peripheral/scb/cy_scb_uart.h **** /** \} group_scb_uart_macros_tx_fifo_status */
 854:Generated_Source\PSoC6\pdl\drivers/peripheral/scb/cy_scb_uart.h **** 
 855:Generated_Source\PSoC6\pdl\drivers/peripheral/scb/cy_scb_uart.h **** /**
 856:Generated_Source\PSoC6\pdl\drivers/peripheral/scb/cy_scb_uart.h **** * \defgroup group_scb_uart_macros_receive_status UART Receive Statuses
 857:Generated_Source\PSoC6\pdl\drivers/peripheral/scb/cy_scb_uart.h **** * \{
 858:Generated_Source\PSoC6\pdl\drivers/peripheral/scb/cy_scb_uart.h **** * Macros to check current UART receive status returned by
 859:Generated_Source\PSoC6\pdl\drivers/peripheral/scb/cy_scb_uart.h **** * \ref Cy_SCB_UART_GetReceiveStatus function.
 860:Generated_Source\PSoC6\pdl\drivers/peripheral/scb/cy_scb_uart.h **** * Each UART receive status is encoded in a separate bit, therefore multiple bits
 861:Generated_Source\PSoC6\pdl\drivers/peripheral/scb/cy_scb_uart.h **** * may be set to indicate the current status.
 862:Generated_Source\PSoC6\pdl\drivers/peripheral/scb/cy_scb_uart.h **** */
 863:Generated_Source\PSoC6\pdl\drivers/peripheral/scb/cy_scb_uart.h **** /** The receive operation started by \ref Cy_SCB_UART_Receive is in progress */
 864:Generated_Source\PSoC6\pdl\drivers/peripheral/scb/cy_scb_uart.h **** #define CY_SCB_UART_RECEIVE_ACTIVE         (0x01UL)
 865:Generated_Source\PSoC6\pdl\drivers/peripheral/scb/cy_scb_uart.h **** 
 866:Generated_Source\PSoC6\pdl\drivers/peripheral/scb/cy_scb_uart.h **** /**
 867:Generated_Source\PSoC6\pdl\drivers/peripheral/scb/cy_scb_uart.h **** * The hardware RX FIFO was full and there was an attempt to write to it.
 868:Generated_Source\PSoC6\pdl\drivers/peripheral/scb/cy_scb_uart.h **** * That additional data was dropped.
 869:Generated_Source\PSoC6\pdl\drivers/peripheral/scb/cy_scb_uart.h **** */
 870:Generated_Source\PSoC6\pdl\drivers/peripheral/scb/cy_scb_uart.h **** #define CY_SCB_UART_RECEIVE_OVERFLOW       (SCB_INTR_RX_OVERFLOW_Msk)
 871:Generated_Source\PSoC6\pdl\drivers/peripheral/scb/cy_scb_uart.h **** 
 872:Generated_Source\PSoC6\pdl\drivers/peripheral/scb/cy_scb_uart.h **** /** The receive hardware detected a frame error, either a start or
 873:Generated_Source\PSoC6\pdl\drivers/peripheral/scb/cy_scb_uart.h **** * stop bit error
 874:Generated_Source\PSoC6\pdl\drivers/peripheral/scb/cy_scb_uart.h **** */
 875:Generated_Source\PSoC6\pdl\drivers/peripheral/scb/cy_scb_uart.h **** #define CY_SCB_UART_RECEIVE_ERR_FRAME      (SCB_INTR_RX_FRAME_ERROR_Msk)
 876:Generated_Source\PSoC6\pdl\drivers/peripheral/scb/cy_scb_uart.h **** 
 877:Generated_Source\PSoC6\pdl\drivers/peripheral/scb/cy_scb_uart.h **** /** The receive hardware detected a parity error */
 878:Generated_Source\PSoC6\pdl\drivers/peripheral/scb/cy_scb_uart.h **** #define CY_SCB_UART_RECEIVE_ERR_PARITY     (SCB_INTR_RX_PARITY_ERROR_Msk)
 879:Generated_Source\PSoC6\pdl\drivers/peripheral/scb/cy_scb_uart.h **** 
 880:Generated_Source\PSoC6\pdl\drivers/peripheral/scb/cy_scb_uart.h **** /** The receive hardware detected a break transmission from transmitter */
 881:Generated_Source\PSoC6\pdl\drivers/peripheral/scb/cy_scb_uart.h **** #define CY_SCB_UART_RECEIVE_BREAK_DETECT   (SCB_INTR_RX_BREAK_DETECT_Msk)
 882:Generated_Source\PSoC6\pdl\drivers/peripheral/scb/cy_scb_uart.h **** /** \} group_scb_uart_macros_receive_status */
 883:Generated_Source\PSoC6\pdl\drivers/peripheral/scb/cy_scb_uart.h **** 
 884:Generated_Source\PSoC6\pdl\drivers/peripheral/scb/cy_scb_uart.h **** /**
 885:Generated_Source\PSoC6\pdl\drivers/peripheral/scb/cy_scb_uart.h **** * \defgroup group_scb_uart_macros_transmit_status UART Transmit Status
ARM GAS  C:\Users\LOCALA~1\AppData\Local\Temp\ccJ6EDbl.s 			page 17


 886:Generated_Source\PSoC6\pdl\drivers/peripheral/scb/cy_scb_uart.h **** * \{
 887:Generated_Source\PSoC6\pdl\drivers/peripheral/scb/cy_scb_uart.h **** * Macros to check current UART transmit status returned by
 888:Generated_Source\PSoC6\pdl\drivers/peripheral/scb/cy_scb_uart.h **** * \ref Cy_SCB_UART_GetTransmitStatus function.
 889:Generated_Source\PSoC6\pdl\drivers/peripheral/scb/cy_scb_uart.h **** * Each UART transmit status is encoded in a separate bit, therefore multiple bits
 890:Generated_Source\PSoC6\pdl\drivers/peripheral/scb/cy_scb_uart.h **** * may be set to indicate the current status.
 891:Generated_Source\PSoC6\pdl\drivers/peripheral/scb/cy_scb_uart.h **** */
 892:Generated_Source\PSoC6\pdl\drivers/peripheral/scb/cy_scb_uart.h **** 
 893:Generated_Source\PSoC6\pdl\drivers/peripheral/scb/cy_scb_uart.h **** /** The transmit operation started by \ref Cy_SCB_UART_Transmit is in progress */
 894:Generated_Source\PSoC6\pdl\drivers/peripheral/scb/cy_scb_uart.h **** #define CY_SCB_UART_TRANSMIT_ACTIVE    (0x01UL)
 895:Generated_Source\PSoC6\pdl\drivers/peripheral/scb/cy_scb_uart.h **** 
 896:Generated_Source\PSoC6\pdl\drivers/peripheral/scb/cy_scb_uart.h **** /**
 897:Generated_Source\PSoC6\pdl\drivers/peripheral/scb/cy_scb_uart.h **** * All data elements specified by \ref Cy_SCB_UART_Transmit have been loaded
 898:Generated_Source\PSoC6\pdl\drivers/peripheral/scb/cy_scb_uart.h **** * into the TX FIFO
 899:Generated_Source\PSoC6\pdl\drivers/peripheral/scb/cy_scb_uart.h **** */
 900:Generated_Source\PSoC6\pdl\drivers/peripheral/scb/cy_scb_uart.h **** #define CY_SCB_UART_TRANSMIT_IN_FIFO   (0x02UL)
 901:Generated_Source\PSoC6\pdl\drivers/peripheral/scb/cy_scb_uart.h **** 
 902:Generated_Source\PSoC6\pdl\drivers/peripheral/scb/cy_scb_uart.h **** /** SmartCard only: the transmitter received a NACK */
 903:Generated_Source\PSoC6\pdl\drivers/peripheral/scb/cy_scb_uart.h **** #define CY_SCB_UART_TRANSMIT_NACK      (SCB_INTR_TX_UART_NACK_Msk)
 904:Generated_Source\PSoC6\pdl\drivers/peripheral/scb/cy_scb_uart.h **** 
 905:Generated_Source\PSoC6\pdl\drivers/peripheral/scb/cy_scb_uart.h **** /** SmartCard only: the transmitter lost arbitration */
 906:Generated_Source\PSoC6\pdl\drivers/peripheral/scb/cy_scb_uart.h **** #define CY_SCB_UART_TRANSMIT_ARB_LOST  (SCB_INTR_TX_UART_ARB_LOST_Msk)
 907:Generated_Source\PSoC6\pdl\drivers/peripheral/scb/cy_scb_uart.h **** /** \} group_scb_uart_macros_transmit_status */
 908:Generated_Source\PSoC6\pdl\drivers/peripheral/scb/cy_scb_uart.h **** 
 909:Generated_Source\PSoC6\pdl\drivers/peripheral/scb/cy_scb_uart.h **** /**
 910:Generated_Source\PSoC6\pdl\drivers/peripheral/scb/cy_scb_uart.h **** * \defgroup group_scb_uart_macros_callback_events UART Callback Events
 911:Generated_Source\PSoC6\pdl\drivers/peripheral/scb/cy_scb_uart.h **** * \{
 912:Generated_Source\PSoC6\pdl\drivers/peripheral/scb/cy_scb_uart.h **** * Macros to check UART events passed by \ref cy_cb_scb_uart_handle_events_t callback.
 913:Generated_Source\PSoC6\pdl\drivers/peripheral/scb/cy_scb_uart.h **** * Note that only single event is notified by the callback when it is called.
 914:Generated_Source\PSoC6\pdl\drivers/peripheral/scb/cy_scb_uart.h **** */
 915:Generated_Source\PSoC6\pdl\drivers/peripheral/scb/cy_scb_uart.h **** 
 916:Generated_Source\PSoC6\pdl\drivers/peripheral/scb/cy_scb_uart.h **** /**
 917:Generated_Source\PSoC6\pdl\drivers/peripheral/scb/cy_scb_uart.h **** * All data elements specified by \ref Cy_SCB_UART_Transmit have been loaded
 918:Generated_Source\PSoC6\pdl\drivers/peripheral/scb/cy_scb_uart.h **** * into the TX FIFO
 919:Generated_Source\PSoC6\pdl\drivers/peripheral/scb/cy_scb_uart.h **** */
 920:Generated_Source\PSoC6\pdl\drivers/peripheral/scb/cy_scb_uart.h **** #define CY_SCB_UART_TRANSMIT_IN_FIFO_EVENT (0x01UL)
 921:Generated_Source\PSoC6\pdl\drivers/peripheral/scb/cy_scb_uart.h **** 
 922:Generated_Source\PSoC6\pdl\drivers/peripheral/scb/cy_scb_uart.h **** /** The transmit operation started by \ref Cy_SCB_UART_Transmit is complete */
 923:Generated_Source\PSoC6\pdl\drivers/peripheral/scb/cy_scb_uart.h **** #define CY_SCB_UART_TRANSMIT_DONE_EVENT    (0x02UL)
 924:Generated_Source\PSoC6\pdl\drivers/peripheral/scb/cy_scb_uart.h **** 
 925:Generated_Source\PSoC6\pdl\drivers/peripheral/scb/cy_scb_uart.h **** /** The receive operation started by \ref Cy_SCB_UART_Receive is complete */
 926:Generated_Source\PSoC6\pdl\drivers/peripheral/scb/cy_scb_uart.h **** #define CY_SCB_UART_RECEIVE_DONE_EVENT     (0x04UL)
 927:Generated_Source\PSoC6\pdl\drivers/peripheral/scb/cy_scb_uart.h **** 
 928:Generated_Source\PSoC6\pdl\drivers/peripheral/scb/cy_scb_uart.h **** /**
 929:Generated_Source\PSoC6\pdl\drivers/peripheral/scb/cy_scb_uart.h **** * The ring buffer is full, there is no more space for additional data.
 930:Generated_Source\PSoC6\pdl\drivers/peripheral/scb/cy_scb_uart.h **** * Additional data is stored in the RX FIFO until it becomes full, at which
 931:Generated_Source\PSoC6\pdl\drivers/peripheral/scb/cy_scb_uart.h **** * point data is dropped.
 932:Generated_Source\PSoC6\pdl\drivers/peripheral/scb/cy_scb_uart.h **** */
 933:Generated_Source\PSoC6\pdl\drivers/peripheral/scb/cy_scb_uart.h **** #define CY_SCB_UART_RB_FULL_EVENT          (0x08UL)
 934:Generated_Source\PSoC6\pdl\drivers/peripheral/scb/cy_scb_uart.h **** 
 935:Generated_Source\PSoC6\pdl\drivers/peripheral/scb/cy_scb_uart.h **** /**
 936:Generated_Source\PSoC6\pdl\drivers/peripheral/scb/cy_scb_uart.h **** * An error was detected during the receive operation. This includes overflow,
 937:Generated_Source\PSoC6\pdl\drivers/peripheral/scb/cy_scb_uart.h **** * frame error, or parity error. Check \ref Cy_SCB_UART_GetReceiveStatus to
 938:Generated_Source\PSoC6\pdl\drivers/peripheral/scb/cy_scb_uart.h **** * determine the source of the error.
 939:Generated_Source\PSoC6\pdl\drivers/peripheral/scb/cy_scb_uart.h **** */
 940:Generated_Source\PSoC6\pdl\drivers/peripheral/scb/cy_scb_uart.h **** #define CY_SCB_UART_RECEIVE_ERR_EVENT      (0x10UL)
 941:Generated_Source\PSoC6\pdl\drivers/peripheral/scb/cy_scb_uart.h **** 
 942:Generated_Source\PSoC6\pdl\drivers/peripheral/scb/cy_scb_uart.h **** /**
ARM GAS  C:\Users\LOCALA~1\AppData\Local\Temp\ccJ6EDbl.s 			page 18


 943:Generated_Source\PSoC6\pdl\drivers/peripheral/scb/cy_scb_uart.h **** * An error was detected during the transmit operation. This includes a NACK
 944:Generated_Source\PSoC6\pdl\drivers/peripheral/scb/cy_scb_uart.h **** * or lost arbitration. Check \ref Cy_SCB_UART_GetTransmitStatus to determine
 945:Generated_Source\PSoC6\pdl\drivers/peripheral/scb/cy_scb_uart.h **** * the source of the error
 946:Generated_Source\PSoC6\pdl\drivers/peripheral/scb/cy_scb_uart.h **** */
 947:Generated_Source\PSoC6\pdl\drivers/peripheral/scb/cy_scb_uart.h **** #define CY_SCB_UART_TRANSMIT_ERR_EVENT     (0x20UL)
 948:Generated_Source\PSoC6\pdl\drivers/peripheral/scb/cy_scb_uart.h **** /** \} group_scb_uart_macros_callback_events */
 949:Generated_Source\PSoC6\pdl\drivers/peripheral/scb/cy_scb_uart.h **** 
 950:Generated_Source\PSoC6\pdl\drivers/peripheral/scb/cy_scb_uart.h **** /** Data returned by the hardware when an empty RX FIFO is read */
 951:Generated_Source\PSoC6\pdl\drivers/peripheral/scb/cy_scb_uart.h **** #define CY_SCB_UART_RX_NO_DATA         (0xFFFFFFFFUL)
 952:Generated_Source\PSoC6\pdl\drivers/peripheral/scb/cy_scb_uart.h **** 
 953:Generated_Source\PSoC6\pdl\drivers/peripheral/scb/cy_scb_uart.h **** 
 954:Generated_Source\PSoC6\pdl\drivers/peripheral/scb/cy_scb_uart.h **** /*******************************************************************************
 955:Generated_Source\PSoC6\pdl\drivers/peripheral/scb/cy_scb_uart.h **** *                            Internal Constants
 956:Generated_Source\PSoC6\pdl\drivers/peripheral/scb/cy_scb_uart.h **** *******************************************************************************/
 957:Generated_Source\PSoC6\pdl\drivers/peripheral/scb/cy_scb_uart.h **** 
 958:Generated_Source\PSoC6\pdl\drivers/peripheral/scb/cy_scb_uart.h **** /** \cond INTERNAL */
 959:Generated_Source\PSoC6\pdl\drivers/peripheral/scb/cy_scb_uart.h **** #define CY_SCB_UART_TX_INTR_MASK    (CY_SCB_UART_TX_TRIGGER  | CY_SCB_UART_TX_NOT_FULL  | CY_SCB_UA
 960:Generated_Source\PSoC6\pdl\drivers/peripheral/scb/cy_scb_uart.h ****                                      CY_SCB_UART_TX_OVERFLOW | CY_SCB_UART_TX_UNDERFLOW | CY_SCB_UA
 961:Generated_Source\PSoC6\pdl\drivers/peripheral/scb/cy_scb_uart.h ****                                      CY_SCB_UART_TX_NACK     | CY_SCB_UART_TX_ARB_LOST)
 962:Generated_Source\PSoC6\pdl\drivers/peripheral/scb/cy_scb_uart.h **** 
 963:Generated_Source\PSoC6\pdl\drivers/peripheral/scb/cy_scb_uart.h **** #define CY_SCB_UART_RX_INTR_MASK    (CY_SCB_UART_RX_TRIGGER    | CY_SCB_UART_RX_NOT_EMPTY | CY_SCB_
 964:Generated_Source\PSoC6\pdl\drivers/peripheral/scb/cy_scb_uart.h ****                                      CY_SCB_UART_RX_OVERFLOW   | CY_SCB_UART_RX_UNDERFLOW | CY_SCB_
 965:Generated_Source\PSoC6\pdl\drivers/peripheral/scb/cy_scb_uart.h ****                                      CY_SCB_UART_RX_ERR_PARITY | CY_SCB_UART_RX_BREAK_DETECT)
 966:Generated_Source\PSoC6\pdl\drivers/peripheral/scb/cy_scb_uart.h **** 
 967:Generated_Source\PSoC6\pdl\drivers/peripheral/scb/cy_scb_uart.h **** #define CY_SCB_UART_TX_INTR        (CY_SCB_TX_INTR_LEVEL | CY_SCB_TX_INTR_UART_NACK | CY_SCB_TX_INT
 968:Generated_Source\PSoC6\pdl\drivers/peripheral/scb/cy_scb_uart.h **** 
 969:Generated_Source\PSoC6\pdl\drivers/peripheral/scb/cy_scb_uart.h **** #define CY_SCB_UART_RX_INTR        (CY_SCB_RX_INTR_LEVEL | CY_SCB_RX_INTR_OVERFLOW | CY_SCB_RX_INTR
 970:Generated_Source\PSoC6\pdl\drivers/peripheral/scb/cy_scb_uart.h ****                                     CY_SCB_RX_INTR_UART_PARITY_ERROR | CY_SCB_RX_INTR_UART_BREAK_DE
 971:Generated_Source\PSoC6\pdl\drivers/peripheral/scb/cy_scb_uart.h **** 
 972:Generated_Source\PSoC6\pdl\drivers/peripheral/scb/cy_scb_uart.h **** #define CY_SCB_UART_RECEIVE_ERR    (CY_SCB_RX_INTR_OVERFLOW | CY_SCB_RX_INTR_UART_FRAME_ERROR | \
 973:Generated_Source\PSoC6\pdl\drivers/peripheral/scb/cy_scb_uart.h ****                                     CY_SCB_RX_INTR_UART_PARITY_ERROR)
 974:Generated_Source\PSoC6\pdl\drivers/peripheral/scb/cy_scb_uart.h **** 
 975:Generated_Source\PSoC6\pdl\drivers/peripheral/scb/cy_scb_uart.h **** #define CY_SCB_UART_TRANSMIT_ERR   (CY_SCB_TX_INTR_UART_NACK | CY_SCB_TX_INTR_UART_ARB_LOST)
 976:Generated_Source\PSoC6\pdl\drivers/peripheral/scb/cy_scb_uart.h **** 
 977:Generated_Source\PSoC6\pdl\drivers/peripheral/scb/cy_scb_uart.h **** #define CY_SCB_UART_INIT_KEY       (0x00ABCDEFUL)
 978:Generated_Source\PSoC6\pdl\drivers/peripheral/scb/cy_scb_uart.h **** 
 979:Generated_Source\PSoC6\pdl\drivers/peripheral/scb/cy_scb_uart.h **** #define CY_SCB_UART_IS_MODE_VALID(mode)     ( (CY_SCB_UART_STANDARD  == (mode)) || \
 980:Generated_Source\PSoC6\pdl\drivers/peripheral/scb/cy_scb_uart.h ****                                               (CY_SCB_UART_SMARTCARD == (mode)) || \
 981:Generated_Source\PSoC6\pdl\drivers/peripheral/scb/cy_scb_uart.h ****                                               (CY_SCB_UART_IRDA      == (mode)) )
 982:Generated_Source\PSoC6\pdl\drivers/peripheral/scb/cy_scb_uart.h **** 
 983:Generated_Source\PSoC6\pdl\drivers/peripheral/scb/cy_scb_uart.h **** #define CY_SCB_UART_IS_STOP_BITS_VALID(stopBits)    ( (CY_SCB_UART_STOP_BITS_1   == (stopBits)) || 
 984:Generated_Source\PSoC6\pdl\drivers/peripheral/scb/cy_scb_uart.h ****                                                       (CY_SCB_UART_STOP_BITS_1_5 == (stopBits)) || 
 985:Generated_Source\PSoC6\pdl\drivers/peripheral/scb/cy_scb_uart.h ****                                                       (CY_SCB_UART_STOP_BITS_2   == (stopBits)) || 
 986:Generated_Source\PSoC6\pdl\drivers/peripheral/scb/cy_scb_uart.h ****                                                       (CY_SCB_UART_STOP_BITS_2_5 == (stopBits)) || 
 987:Generated_Source\PSoC6\pdl\drivers/peripheral/scb/cy_scb_uart.h ****                                                       (CY_SCB_UART_STOP_BITS_3   == (stopBits)) || 
 988:Generated_Source\PSoC6\pdl\drivers/peripheral/scb/cy_scb_uart.h ****                                                       (CY_SCB_UART_STOP_BITS_3_5 == (stopBits)) || 
 989:Generated_Source\PSoC6\pdl\drivers/peripheral/scb/cy_scb_uart.h ****                                                       (CY_SCB_UART_STOP_BITS_4   == (stopBits)) )
 990:Generated_Source\PSoC6\pdl\drivers/peripheral/scb/cy_scb_uart.h **** 
 991:Generated_Source\PSoC6\pdl\drivers/peripheral/scb/cy_scb_uart.h **** #define CY_SCB_UART_IS_PARITY_VALID(parity)         ( (CY_SCB_UART_PARITY_NONE == (parity)) || \
 992:Generated_Source\PSoC6\pdl\drivers/peripheral/scb/cy_scb_uart.h ****                                                       (CY_SCB_UART_PARITY_EVEN == (parity)) || \
 993:Generated_Source\PSoC6\pdl\drivers/peripheral/scb/cy_scb_uart.h ****                                                       (CY_SCB_UART_PARITY_ODD  == (parity)) )
 994:Generated_Source\PSoC6\pdl\drivers/peripheral/scb/cy_scb_uart.h **** 
 995:Generated_Source\PSoC6\pdl\drivers/peripheral/scb/cy_scb_uart.h **** #define CY_SCB_UART_IS_POLARITY_VALID(polarity)     ( (CY_SCB_UART_ACTIVE_LOW  == (polarity)) || \
 996:Generated_Source\PSoC6\pdl\drivers/peripheral/scb/cy_scb_uart.h ****                                                       (CY_SCB_UART_ACTIVE_HIGH == (polarity)) )
 997:Generated_Source\PSoC6\pdl\drivers/peripheral/scb/cy_scb_uart.h **** 
 998:Generated_Source\PSoC6\pdl\drivers/peripheral/scb/cy_scb_uart.h **** #define CY_SCB_UART_IS_IRDA_LP_OVS_VALID(ovs)       ( (CY_SCB_UART_IRDA_LP_OVS16   == (ovs)) || \
 999:Generated_Source\PSoC6\pdl\drivers/peripheral/scb/cy_scb_uart.h ****                                                       (CY_SCB_UART_IRDA_LP_OVS32   == (ovs)) || \
ARM GAS  C:\Users\LOCALA~1\AppData\Local\Temp\ccJ6EDbl.s 			page 19


1000:Generated_Source\PSoC6\pdl\drivers/peripheral/scb/cy_scb_uart.h ****                                                       (CY_SCB_UART_IRDA_LP_OVS48   == (ovs)) || \
1001:Generated_Source\PSoC6\pdl\drivers/peripheral/scb/cy_scb_uart.h ****                                                       (CY_SCB_UART_IRDA_LP_OVS96   == (ovs)) || \
1002:Generated_Source\PSoC6\pdl\drivers/peripheral/scb/cy_scb_uart.h ****                                                       (CY_SCB_UART_IRDA_LP_OVS192  == (ovs)) || \
1003:Generated_Source\PSoC6\pdl\drivers/peripheral/scb/cy_scb_uart.h ****                                                       (CY_SCB_UART_IRDA_LP_OVS768  == (ovs)) || \
1004:Generated_Source\PSoC6\pdl\drivers/peripheral/scb/cy_scb_uart.h ****                                                       (CY_SCB_UART_IRDA_LP_OVS1536 == (ovs)) )
1005:Generated_Source\PSoC6\pdl\drivers/peripheral/scb/cy_scb_uart.h **** 
1006:Generated_Source\PSoC6\pdl\drivers/peripheral/scb/cy_scb_uart.h **** #define CY_SCB_UART_IS_ADDRESS_VALID(addr)          ((addr) <= 0xFFUL)
1007:Generated_Source\PSoC6\pdl\drivers/peripheral/scb/cy_scb_uart.h **** #define CY_SCB_UART_IS_ADDRESS_MASK_VALID(mask)     ((mask) <= 0xFFUL)
1008:Generated_Source\PSoC6\pdl\drivers/peripheral/scb/cy_scb_uart.h **** #define CY_SCB_UART_IS_DATA_WIDTH_VALID(width)      ( ((width) >= 5UL) && ((width) <= 9UL) )
1009:Generated_Source\PSoC6\pdl\drivers/peripheral/scb/cy_scb_uart.h **** #define CY_SCB_UART_IS_OVERSAMPLE_VALID(ovs, mode, lpRx)    ( ((CY_SCB_UART_STANDARD  == (mode)) ||
1010:Generated_Source\PSoC6\pdl\drivers/peripheral/scb/cy_scb_uart.h ****                                                               (((ovs) >= 8UL) && ((ovs) <= 16UL)) :
1011:Generated_Source\PSoC6\pdl\drivers/peripheral/scb/cy_scb_uart.h ****                                                               ((lpRx) ? CY_SCB_UART_IS_IRDA_LP_OVS_
1012:Generated_Source\PSoC6\pdl\drivers/peripheral/scb/cy_scb_uart.h **** 
1013:Generated_Source\PSoC6\pdl\drivers/peripheral/scb/cy_scb_uart.h **** #define CY_SCB_UART_IS_RX_BREAK_WIDTH_VALID(base, width)    ( ((width) >= (_FLD2VAL(SCB_RX_CTRL_DAT
1014:Generated_Source\PSoC6\pdl\drivers/peripheral/scb/cy_scb_uart.h ****                                                               ((width) <= 16UL) )
1015:Generated_Source\PSoC6\pdl\drivers/peripheral/scb/cy_scb_uart.h **** #define CY_SCB_UART_IS_TX_BREAK_WIDTH_VALID(width)          ( ((width) >= 4UL) && ((width) <= 16UL)
1016:Generated_Source\PSoC6\pdl\drivers/peripheral/scb/cy_scb_uart.h **** 
1017:Generated_Source\PSoC6\pdl\drivers/peripheral/scb/cy_scb_uart.h **** #define CY_SCB_UART_IS_MUTLI_PROC_VALID(mp, mode, width, parity)    ( (mp) ? ((CY_SCB_UART_STANDARD
1018:Generated_Source\PSoC6\pdl\drivers/peripheral/scb/cy_scb_uart.h ****                                                                               (CY_SCB_UART_PARITY_N
1019:Generated_Source\PSoC6\pdl\drivers/peripheral/scb/cy_scb_uart.h **** /** \endcond */
1020:Generated_Source\PSoC6\pdl\drivers/peripheral/scb/cy_scb_uart.h **** 
1021:Generated_Source\PSoC6\pdl\drivers/peripheral/scb/cy_scb_uart.h **** /** \} group_scb_uart_macros */
1022:Generated_Source\PSoC6\pdl\drivers/peripheral/scb/cy_scb_uart.h **** 
1023:Generated_Source\PSoC6\pdl\drivers/peripheral/scb/cy_scb_uart.h **** 
1024:Generated_Source\PSoC6\pdl\drivers/peripheral/scb/cy_scb_uart.h **** /*******************************************************************************
1025:Generated_Source\PSoC6\pdl\drivers/peripheral/scb/cy_scb_uart.h **** *                    In-line Function Implementation
1026:Generated_Source\PSoC6\pdl\drivers/peripheral/scb/cy_scb_uart.h **** *******************************************************************************/
1027:Generated_Source\PSoC6\pdl\drivers/peripheral/scb/cy_scb_uart.h **** 
1028:Generated_Source\PSoC6\pdl\drivers/peripheral/scb/cy_scb_uart.h **** /**
1029:Generated_Source\PSoC6\pdl\drivers/peripheral/scb/cy_scb_uart.h **** * \addtogroup group_scb_uart_general_functions
1030:Generated_Source\PSoC6\pdl\drivers/peripheral/scb/cy_scb_uart.h **** * \{
1031:Generated_Source\PSoC6\pdl\drivers/peripheral/scb/cy_scb_uart.h **** */
1032:Generated_Source\PSoC6\pdl\drivers/peripheral/scb/cy_scb_uart.h **** 
1033:Generated_Source\PSoC6\pdl\drivers/peripheral/scb/cy_scb_uart.h **** /*******************************************************************************
1034:Generated_Source\PSoC6\pdl\drivers/peripheral/scb/cy_scb_uart.h **** * Function Name: Cy_SCB_UART_Enable
1035:Generated_Source\PSoC6\pdl\drivers/peripheral/scb/cy_scb_uart.h **** ****************************************************************************//**
1036:Generated_Source\PSoC6\pdl\drivers/peripheral/scb/cy_scb_uart.h **** *
1037:Generated_Source\PSoC6\pdl\drivers/peripheral/scb/cy_scb_uart.h **** * Enables the SCB block for the UART operation.
1038:Generated_Source\PSoC6\pdl\drivers/peripheral/scb/cy_scb_uart.h **** *
1039:Generated_Source\PSoC6\pdl\drivers/peripheral/scb/cy_scb_uart.h **** * \param base
1040:Generated_Source\PSoC6\pdl\drivers/peripheral/scb/cy_scb_uart.h **** * The pointer to the UART SCB instance.
1041:Generated_Source\PSoC6\pdl\drivers/peripheral/scb/cy_scb_uart.h **** *
1042:Generated_Source\PSoC6\pdl\drivers/peripheral/scb/cy_scb_uart.h **** *******************************************************************************/
1043:Generated_Source\PSoC6\pdl\drivers/peripheral/scb/cy_scb_uart.h **** __STATIC_INLINE void Cy_SCB_UART_Enable(CySCB_Type *base)
1044:Generated_Source\PSoC6\pdl\drivers/peripheral/scb/cy_scb_uart.h **** {
  28              		.loc 1 1044 0
  29              		.cfi_startproc
  30              		@ args = 0, pretend = 0, frame = 8
  31              		@ frame_needed = 1, uses_anonymous_args = 0
  32              		@ link register save eliminated.
  33 0000 80B4     		push	{r7}
  34              		.cfi_def_cfa_offset 4
  35              		.cfi_offset 7, -4
  36 0002 83B0     		sub	sp, sp, #12
  37              		.cfi_def_cfa_offset 16
  38 0004 00AF     		add	r7, sp, #0
  39              		.cfi_def_cfa_register 7
ARM GAS  C:\Users\LOCALA~1\AppData\Local\Temp\ccJ6EDbl.s 			page 20


  40 0006 7860     		str	r0, [r7, #4]
1045:Generated_Source\PSoC6\pdl\drivers/peripheral/scb/cy_scb_uart.h ****     SCB_CTRL(base) |= SCB_CTRL_ENABLED_Msk;
  41              		.loc 1 1045 0
  42 0008 7B68     		ldr	r3, [r7, #4]
  43 000a 1B68     		ldr	r3, [r3]
  44 000c 43F00042 		orr	r2, r3, #-2147483648
  45 0010 7B68     		ldr	r3, [r7, #4]
  46 0012 1A60     		str	r2, [r3]
1046:Generated_Source\PSoC6\pdl\drivers/peripheral/scb/cy_scb_uart.h **** }
  47              		.loc 1 1046 0
  48 0014 00BF     		nop
  49 0016 0C37     		adds	r7, r7, #12
  50              		.cfi_def_cfa_offset 4
  51 0018 BD46     		mov	sp, r7
  52              		.cfi_def_cfa_register 13
  53              		@ sp needed
  54 001a 5DF8047B 		ldr	r7, [sp], #4
  55              		.cfi_restore 7
  56              		.cfi_def_cfa_offset 0
  57 001e 7047     		bx	lr
  58              		.cfi_endproc
  59              	.LFE359:
  60              		.size	Cy_SCB_UART_Enable, .-Cy_SCB_UART_Enable
  61              		.section	.rodata
  62              		.align	2
  63              	.LC0:
  64 0000 47656E65 		.ascii	"Generated_Source\\PSoC6\\pdl\\drivers/peripheral/sc"
  64      72617465 
  64      645F536F 
  64      75726365 
  64      5C50536F 
  65 0030 622F6379 		.ascii	"b/cy_scb_uart.h\000"
  65      5F736362 
  65      5F756172 
  65      742E6800 
  66              		.section	.text.Cy_SCB_UART_PutArray,"ax",%progbits
  67              		.align	2
  68              		.thumb
  69              		.thumb_func
  70              		.type	Cy_SCB_UART_PutArray, %function
  71              	Cy_SCB_UART_PutArray:
  72              	.LFB374:
1047:Generated_Source\PSoC6\pdl\drivers/peripheral/scb/cy_scb_uart.h **** 
1048:Generated_Source\PSoC6\pdl\drivers/peripheral/scb/cy_scb_uart.h **** 
1049:Generated_Source\PSoC6\pdl\drivers/peripheral/scb/cy_scb_uart.h **** /*******************************************************************************
1050:Generated_Source\PSoC6\pdl\drivers/peripheral/scb/cy_scb_uart.h **** * Function Name: Cy_SCB_UART_EnableCts
1051:Generated_Source\PSoC6\pdl\drivers/peripheral/scb/cy_scb_uart.h **** ****************************************************************************//**
1052:Generated_Source\PSoC6\pdl\drivers/peripheral/scb/cy_scb_uart.h **** *
1053:Generated_Source\PSoC6\pdl\drivers/peripheral/scb/cy_scb_uart.h **** * Enables the Clear to Send (CTS) input for the UART. The UART will not transmit
1054:Generated_Source\PSoC6\pdl\drivers/peripheral/scb/cy_scb_uart.h **** * data while this signal is inactive.
1055:Generated_Source\PSoC6\pdl\drivers/peripheral/scb/cy_scb_uart.h **** *
1056:Generated_Source\PSoC6\pdl\drivers/peripheral/scb/cy_scb_uart.h **** * \param base
1057:Generated_Source\PSoC6\pdl\drivers/peripheral/scb/cy_scb_uart.h **** * The pointer to the UART SCB instance.
1058:Generated_Source\PSoC6\pdl\drivers/peripheral/scb/cy_scb_uart.h **** *
1059:Generated_Source\PSoC6\pdl\drivers/peripheral/scb/cy_scb_uart.h **** *******************************************************************************/
1060:Generated_Source\PSoC6\pdl\drivers/peripheral/scb/cy_scb_uart.h **** __STATIC_INLINE void Cy_SCB_UART_EnableCts(CySCB_Type *base)
1061:Generated_Source\PSoC6\pdl\drivers/peripheral/scb/cy_scb_uart.h **** {
ARM GAS  C:\Users\LOCALA~1\AppData\Local\Temp\ccJ6EDbl.s 			page 21


1062:Generated_Source\PSoC6\pdl\drivers/peripheral/scb/cy_scb_uart.h ****     SCB_UART_FLOW_CTRL(base) |= SCB_UART_FLOW_CTRL_CTS_ENABLED_Msk;
1063:Generated_Source\PSoC6\pdl\drivers/peripheral/scb/cy_scb_uart.h **** }
1064:Generated_Source\PSoC6\pdl\drivers/peripheral/scb/cy_scb_uart.h **** 
1065:Generated_Source\PSoC6\pdl\drivers/peripheral/scb/cy_scb_uart.h **** 
1066:Generated_Source\PSoC6\pdl\drivers/peripheral/scb/cy_scb_uart.h **** /*******************************************************************************
1067:Generated_Source\PSoC6\pdl\drivers/peripheral/scb/cy_scb_uart.h **** * Function Name: Cy_SCB_UART_DisableCts
1068:Generated_Source\PSoC6\pdl\drivers/peripheral/scb/cy_scb_uart.h **** ****************************************************************************//**
1069:Generated_Source\PSoC6\pdl\drivers/peripheral/scb/cy_scb_uart.h **** *
1070:Generated_Source\PSoC6\pdl\drivers/peripheral/scb/cy_scb_uart.h **** * Disables the Clear to Send (CTS) input for the UART.
1071:Generated_Source\PSoC6\pdl\drivers/peripheral/scb/cy_scb_uart.h **** * See \ref Cy_SCB_UART_EnableCts for the details.
1072:Generated_Source\PSoC6\pdl\drivers/peripheral/scb/cy_scb_uart.h **** *
1073:Generated_Source\PSoC6\pdl\drivers/peripheral/scb/cy_scb_uart.h **** * \param base
1074:Generated_Source\PSoC6\pdl\drivers/peripheral/scb/cy_scb_uart.h **** * The pointer to the UART SCB instance.
1075:Generated_Source\PSoC6\pdl\drivers/peripheral/scb/cy_scb_uart.h **** *
1076:Generated_Source\PSoC6\pdl\drivers/peripheral/scb/cy_scb_uart.h **** *******************************************************************************/
1077:Generated_Source\PSoC6\pdl\drivers/peripheral/scb/cy_scb_uart.h **** __STATIC_INLINE void Cy_SCB_UART_DisableCts(CySCB_Type *base)
1078:Generated_Source\PSoC6\pdl\drivers/peripheral/scb/cy_scb_uart.h **** {
1079:Generated_Source\PSoC6\pdl\drivers/peripheral/scb/cy_scb_uart.h ****     SCB_UART_FLOW_CTRL(base) &= (uint32_t) ~SCB_UART_FLOW_CTRL_CTS_ENABLED_Msk;
1080:Generated_Source\PSoC6\pdl\drivers/peripheral/scb/cy_scb_uart.h **** }
1081:Generated_Source\PSoC6\pdl\drivers/peripheral/scb/cy_scb_uart.h **** 
1082:Generated_Source\PSoC6\pdl\drivers/peripheral/scb/cy_scb_uart.h **** 
1083:Generated_Source\PSoC6\pdl\drivers/peripheral/scb/cy_scb_uart.h **** /*******************************************************************************
1084:Generated_Source\PSoC6\pdl\drivers/peripheral/scb/cy_scb_uart.h **** * Function Name: Cy_SCB_UART_SetRtsFifoLevel
1085:Generated_Source\PSoC6\pdl\drivers/peripheral/scb/cy_scb_uart.h **** ****************************************************************************//**
1086:Generated_Source\PSoC6\pdl\drivers/peripheral/scb/cy_scb_uart.h **** *
1087:Generated_Source\PSoC6\pdl\drivers/peripheral/scb/cy_scb_uart.h **** * Sets a level for the Ready To Send (RTS) signal activation.
1088:Generated_Source\PSoC6\pdl\drivers/peripheral/scb/cy_scb_uart.h **** * When the number of data elements in the receive FIFO is below this level,
1089:Generated_Source\PSoC6\pdl\drivers/peripheral/scb/cy_scb_uart.h **** * then the RTS output is active. Otherwise, the RTS signal is inactive.
1090:Generated_Source\PSoC6\pdl\drivers/peripheral/scb/cy_scb_uart.h **** * To disable the RTS signal generation, set this level to zero.
1091:Generated_Source\PSoC6\pdl\drivers/peripheral/scb/cy_scb_uart.h **** *
1092:Generated_Source\PSoC6\pdl\drivers/peripheral/scb/cy_scb_uart.h **** * \param base
1093:Generated_Source\PSoC6\pdl\drivers/peripheral/scb/cy_scb_uart.h **** * The pointer to the UART SCB instance.
1094:Generated_Source\PSoC6\pdl\drivers/peripheral/scb/cy_scb_uart.h **** *
1095:Generated_Source\PSoC6\pdl\drivers/peripheral/scb/cy_scb_uart.h **** * \param level
1096:Generated_Source\PSoC6\pdl\drivers/peripheral/scb/cy_scb_uart.h **** * The level in the RX FIFO for RTS signal activation.
1097:Generated_Source\PSoC6\pdl\drivers/peripheral/scb/cy_scb_uart.h **** *
1098:Generated_Source\PSoC6\pdl\drivers/peripheral/scb/cy_scb_uart.h **** *******************************************************************************/
1099:Generated_Source\PSoC6\pdl\drivers/peripheral/scb/cy_scb_uart.h **** __STATIC_INLINE void Cy_SCB_UART_SetRtsFifoLevel(CySCB_Type *base, uint32_t level)
1100:Generated_Source\PSoC6\pdl\drivers/peripheral/scb/cy_scb_uart.h **** {
1101:Generated_Source\PSoC6\pdl\drivers/peripheral/scb/cy_scb_uart.h ****     CY_ASSERT_L2(CY_SCB_IS_TRIGGER_LEVEL_VALID(base, level));
1102:Generated_Source\PSoC6\pdl\drivers/peripheral/scb/cy_scb_uart.h **** 
1103:Generated_Source\PSoC6\pdl\drivers/peripheral/scb/cy_scb_uart.h ****     CY_REG32_CLR_SET(SCB_UART_FLOW_CTRL(base), SCB_UART_FLOW_CTRL_TRIGGER_LEVEL, level);
1104:Generated_Source\PSoC6\pdl\drivers/peripheral/scb/cy_scb_uart.h **** }
1105:Generated_Source\PSoC6\pdl\drivers/peripheral/scb/cy_scb_uart.h **** 
1106:Generated_Source\PSoC6\pdl\drivers/peripheral/scb/cy_scb_uart.h **** 
1107:Generated_Source\PSoC6\pdl\drivers/peripheral/scb/cy_scb_uart.h **** /*******************************************************************************
1108:Generated_Source\PSoC6\pdl\drivers/peripheral/scb/cy_scb_uart.h **** * Function Name: Cy_SCB_UART_GetRtsFifoLevel
1109:Generated_Source\PSoC6\pdl\drivers/peripheral/scb/cy_scb_uart.h **** ****************************************************************************//**
1110:Generated_Source\PSoC6\pdl\drivers/peripheral/scb/cy_scb_uart.h **** *
1111:Generated_Source\PSoC6\pdl\drivers/peripheral/scb/cy_scb_uart.h **** * Returns the level in the RX FIFO for the RTS signal activation.
1112:Generated_Source\PSoC6\pdl\drivers/peripheral/scb/cy_scb_uart.h **** *
1113:Generated_Source\PSoC6\pdl\drivers/peripheral/scb/cy_scb_uart.h **** * \param base
1114:Generated_Source\PSoC6\pdl\drivers/peripheral/scb/cy_scb_uart.h **** * The pointer to the UART SCB instance.
1115:Generated_Source\PSoC6\pdl\drivers/peripheral/scb/cy_scb_uart.h **** *
1116:Generated_Source\PSoC6\pdl\drivers/peripheral/scb/cy_scb_uart.h **** * \return
1117:Generated_Source\PSoC6\pdl\drivers/peripheral/scb/cy_scb_uart.h **** * The level in the RX FIFO for RTS signal activation.
1118:Generated_Source\PSoC6\pdl\drivers/peripheral/scb/cy_scb_uart.h **** *
ARM GAS  C:\Users\LOCALA~1\AppData\Local\Temp\ccJ6EDbl.s 			page 22


1119:Generated_Source\PSoC6\pdl\drivers/peripheral/scb/cy_scb_uart.h **** *******************************************************************************/
1120:Generated_Source\PSoC6\pdl\drivers/peripheral/scb/cy_scb_uart.h **** __STATIC_INLINE uint32_t Cy_SCB_UART_GetRtsFifoLevel(CySCB_Type const *base)
1121:Generated_Source\PSoC6\pdl\drivers/peripheral/scb/cy_scb_uart.h **** {
1122:Generated_Source\PSoC6\pdl\drivers/peripheral/scb/cy_scb_uart.h ****     return _FLD2VAL(SCB_UART_FLOW_CTRL_TRIGGER_LEVEL, SCB_UART_FLOW_CTRL(base));
1123:Generated_Source\PSoC6\pdl\drivers/peripheral/scb/cy_scb_uart.h **** }
1124:Generated_Source\PSoC6\pdl\drivers/peripheral/scb/cy_scb_uart.h **** 
1125:Generated_Source\PSoC6\pdl\drivers/peripheral/scb/cy_scb_uart.h **** 
1126:Generated_Source\PSoC6\pdl\drivers/peripheral/scb/cy_scb_uart.h **** /*******************************************************************************
1127:Generated_Source\PSoC6\pdl\drivers/peripheral/scb/cy_scb_uart.h **** * Function Name: Cy_SCB_UART_EnableSkipStart
1128:Generated_Source\PSoC6\pdl\drivers/peripheral/scb/cy_scb_uart.h **** ****************************************************************************//**
1129:Generated_Source\PSoC6\pdl\drivers/peripheral/scb/cy_scb_uart.h **** *
1130:Generated_Source\PSoC6\pdl\drivers/peripheral/scb/cy_scb_uart.h **** * Enables the skip start-bit functionality.
1131:Generated_Source\PSoC6\pdl\drivers/peripheral/scb/cy_scb_uart.h **** * When skip start is enabled the UART hardware does not synchronize to a
1132:Generated_Source\PSoC6\pdl\drivers/peripheral/scb/cy_scb_uart.h **** * start bit but synchronizes to the first rising edge. To create a rising edge,
1133:Generated_Source\PSoC6\pdl\drivers/peripheral/scb/cy_scb_uart.h **** * the first data bit must be a 1. This feature is useful when the start bit
1134:Generated_Source\PSoC6\pdl\drivers/peripheral/scb/cy_scb_uart.h **** * falling edge is used to wake the device through a GPIO interrupt.
1135:Generated_Source\PSoC6\pdl\drivers/peripheral/scb/cy_scb_uart.h **** *
1136:Generated_Source\PSoC6\pdl\drivers/peripheral/scb/cy_scb_uart.h **** * \param base
1137:Generated_Source\PSoC6\pdl\drivers/peripheral/scb/cy_scb_uart.h **** * The pointer to the UART SCB instance.
1138:Generated_Source\PSoC6\pdl\drivers/peripheral/scb/cy_scb_uart.h **** *
1139:Generated_Source\PSoC6\pdl\drivers/peripheral/scb/cy_scb_uart.h **** * \note
1140:Generated_Source\PSoC6\pdl\drivers/peripheral/scb/cy_scb_uart.h **** * When skip start-bit feature is enabled, it is applied (UART synchronizes
1141:Generated_Source\PSoC6\pdl\drivers/peripheral/scb/cy_scb_uart.h **** * to the first rising edge after start bit) whenever the SCB is enabled.
1142:Generated_Source\PSoC6\pdl\drivers/peripheral/scb/cy_scb_uart.h **** * This can cause incorrect UART synchronization and data reception when
1143:Generated_Source\PSoC6\pdl\drivers/peripheral/scb/cy_scb_uart.h **** * the first data bit is not a 1. Therefore, disable the skip start-bit
1144:Generated_Source\PSoC6\pdl\drivers/peripheral/scb/cy_scb_uart.h **** * when it should not be applied.
1145:Generated_Source\PSoC6\pdl\drivers/peripheral/scb/cy_scb_uart.h **** * Note that SCB is disabled before enter Deep Sleep mode or after calling
1146:Generated_Source\PSoC6\pdl\drivers/peripheral/scb/cy_scb_uart.h **** * \ref Cy_SCB_UART_Disable.
1147:Generated_Source\PSoC6\pdl\drivers/peripheral/scb/cy_scb_uart.h **** *
1148:Generated_Source\PSoC6\pdl\drivers/peripheral/scb/cy_scb_uart.h **** *******************************************************************************/
1149:Generated_Source\PSoC6\pdl\drivers/peripheral/scb/cy_scb_uart.h **** __STATIC_INLINE void Cy_SCB_UART_EnableSkipStart(CySCB_Type *base)
1150:Generated_Source\PSoC6\pdl\drivers/peripheral/scb/cy_scb_uart.h **** {
1151:Generated_Source\PSoC6\pdl\drivers/peripheral/scb/cy_scb_uart.h ****     SCB_UART_RX_CTRL(base) |= SCB_UART_RX_CTRL_SKIP_START_Msk;
1152:Generated_Source\PSoC6\pdl\drivers/peripheral/scb/cy_scb_uart.h **** }
1153:Generated_Source\PSoC6\pdl\drivers/peripheral/scb/cy_scb_uart.h **** 
1154:Generated_Source\PSoC6\pdl\drivers/peripheral/scb/cy_scb_uart.h **** 
1155:Generated_Source\PSoC6\pdl\drivers/peripheral/scb/cy_scb_uart.h **** /*******************************************************************************
1156:Generated_Source\PSoC6\pdl\drivers/peripheral/scb/cy_scb_uart.h **** * Function Name: Cy_SCB_UART_DisableSkipStart
1157:Generated_Source\PSoC6\pdl\drivers/peripheral/scb/cy_scb_uart.h **** ****************************************************************************//**
1158:Generated_Source\PSoC6\pdl\drivers/peripheral/scb/cy_scb_uart.h **** *
1159:Generated_Source\PSoC6\pdl\drivers/peripheral/scb/cy_scb_uart.h **** * Disable the skip start-bit functionality.
1160:Generated_Source\PSoC6\pdl\drivers/peripheral/scb/cy_scb_uart.h **** * See \ref Cy_SCB_UART_EnableSkipStart for the details.
1161:Generated_Source\PSoC6\pdl\drivers/peripheral/scb/cy_scb_uart.h **** *
1162:Generated_Source\PSoC6\pdl\drivers/peripheral/scb/cy_scb_uart.h **** * \param base
1163:Generated_Source\PSoC6\pdl\drivers/peripheral/scb/cy_scb_uart.h **** * The pointer to the UART SCB instance.
1164:Generated_Source\PSoC6\pdl\drivers/peripheral/scb/cy_scb_uart.h **** *
1165:Generated_Source\PSoC6\pdl\drivers/peripheral/scb/cy_scb_uart.h **** *******************************************************************************/
1166:Generated_Source\PSoC6\pdl\drivers/peripheral/scb/cy_scb_uart.h **** __STATIC_INLINE void Cy_SCB_UART_DisableSkipStart(CySCB_Type *base)
1167:Generated_Source\PSoC6\pdl\drivers/peripheral/scb/cy_scb_uart.h **** {
1168:Generated_Source\PSoC6\pdl\drivers/peripheral/scb/cy_scb_uart.h ****     SCB_UART_RX_CTRL(base) &= (uint32_t) ~SCB_UART_RX_CTRL_SKIP_START_Msk;
1169:Generated_Source\PSoC6\pdl\drivers/peripheral/scb/cy_scb_uart.h **** }
1170:Generated_Source\PSoC6\pdl\drivers/peripheral/scb/cy_scb_uart.h **** /** \} group_scb_uart_general_functions */
1171:Generated_Source\PSoC6\pdl\drivers/peripheral/scb/cy_scb_uart.h **** 
1172:Generated_Source\PSoC6\pdl\drivers/peripheral/scb/cy_scb_uart.h **** 
1173:Generated_Source\PSoC6\pdl\drivers/peripheral/scb/cy_scb_uart.h **** /**
1174:Generated_Source\PSoC6\pdl\drivers/peripheral/scb/cy_scb_uart.h **** * \addtogroup group_scb_uart_low_level_functions
1175:Generated_Source\PSoC6\pdl\drivers/peripheral/scb/cy_scb_uart.h **** * \{
ARM GAS  C:\Users\LOCALA~1\AppData\Local\Temp\ccJ6EDbl.s 			page 23


1176:Generated_Source\PSoC6\pdl\drivers/peripheral/scb/cy_scb_uart.h **** */
1177:Generated_Source\PSoC6\pdl\drivers/peripheral/scb/cy_scb_uart.h **** /*******************************************************************************
1178:Generated_Source\PSoC6\pdl\drivers/peripheral/scb/cy_scb_uart.h **** * Function Name: Cy_SCB_UART_Get
1179:Generated_Source\PSoC6\pdl\drivers/peripheral/scb/cy_scb_uart.h **** ****************************************************************************//**
1180:Generated_Source\PSoC6\pdl\drivers/peripheral/scb/cy_scb_uart.h **** *
1181:Generated_Source\PSoC6\pdl\drivers/peripheral/scb/cy_scb_uart.h **** * Reads a single data element from the UART RX FIFO.
1182:Generated_Source\PSoC6\pdl\drivers/peripheral/scb/cy_scb_uart.h **** * This function does not check whether the RX FIFO has data before reading it.
1183:Generated_Source\PSoC6\pdl\drivers/peripheral/scb/cy_scb_uart.h **** * If the RX FIFO is empty, the function returns \ref CY_SCB_UART_RX_NO_DATA.
1184:Generated_Source\PSoC6\pdl\drivers/peripheral/scb/cy_scb_uart.h **** *
1185:Generated_Source\PSoC6\pdl\drivers/peripheral/scb/cy_scb_uart.h **** * \param base
1186:Generated_Source\PSoC6\pdl\drivers/peripheral/scb/cy_scb_uart.h **** * The pointer to the UART SCB instance.
1187:Generated_Source\PSoC6\pdl\drivers/peripheral/scb/cy_scb_uart.h **** *
1188:Generated_Source\PSoC6\pdl\drivers/peripheral/scb/cy_scb_uart.h **** * \return
1189:Generated_Source\PSoC6\pdl\drivers/peripheral/scb/cy_scb_uart.h **** * Data from the RX FIFO.
1190:Generated_Source\PSoC6\pdl\drivers/peripheral/scb/cy_scb_uart.h **** * The data element size is defined by the configured data width.
1191:Generated_Source\PSoC6\pdl\drivers/peripheral/scb/cy_scb_uart.h **** *
1192:Generated_Source\PSoC6\pdl\drivers/peripheral/scb/cy_scb_uart.h **** *******************************************************************************/
1193:Generated_Source\PSoC6\pdl\drivers/peripheral/scb/cy_scb_uart.h **** __STATIC_INLINE uint32_t Cy_SCB_UART_Get(CySCB_Type const *base)
1194:Generated_Source\PSoC6\pdl\drivers/peripheral/scb/cy_scb_uart.h **** {
1195:Generated_Source\PSoC6\pdl\drivers/peripheral/scb/cy_scb_uart.h ****     return Cy_SCB_ReadRxFifo(base);
1196:Generated_Source\PSoC6\pdl\drivers/peripheral/scb/cy_scb_uart.h **** }
1197:Generated_Source\PSoC6\pdl\drivers/peripheral/scb/cy_scb_uart.h **** 
1198:Generated_Source\PSoC6\pdl\drivers/peripheral/scb/cy_scb_uart.h **** 
1199:Generated_Source\PSoC6\pdl\drivers/peripheral/scb/cy_scb_uart.h **** /*******************************************************************************
1200:Generated_Source\PSoC6\pdl\drivers/peripheral/scb/cy_scb_uart.h **** * Function Name: Cy_SCB_UART_GetArray
1201:Generated_Source\PSoC6\pdl\drivers/peripheral/scb/cy_scb_uart.h **** ****************************************************************************//**
1202:Generated_Source\PSoC6\pdl\drivers/peripheral/scb/cy_scb_uart.h **** *
1203:Generated_Source\PSoC6\pdl\drivers/peripheral/scb/cy_scb_uart.h **** * Reads an array of data out of the UART RX FIFO.
1204:Generated_Source\PSoC6\pdl\drivers/peripheral/scb/cy_scb_uart.h **** * This function does not block. It returns how many data elements were read
1205:Generated_Source\PSoC6\pdl\drivers/peripheral/scb/cy_scb_uart.h **** * from the RX FIFO.
1206:Generated_Source\PSoC6\pdl\drivers/peripheral/scb/cy_scb_uart.h **** *
1207:Generated_Source\PSoC6\pdl\drivers/peripheral/scb/cy_scb_uart.h **** * \param base
1208:Generated_Source\PSoC6\pdl\drivers/peripheral/scb/cy_scb_uart.h **** * The pointer to the UART SCB instance.
1209:Generated_Source\PSoC6\pdl\drivers/peripheral/scb/cy_scb_uart.h **** *
1210:Generated_Source\PSoC6\pdl\drivers/peripheral/scb/cy_scb_uart.h **** * \param buffer
1211:Generated_Source\PSoC6\pdl\drivers/peripheral/scb/cy_scb_uart.h **** * The pointer to the location to place the data read from the RX FIFO.
1212:Generated_Source\PSoC6\pdl\drivers/peripheral/scb/cy_scb_uart.h **** * The element size is defined by the data type, which depends on the configured
1213:Generated_Source\PSoC6\pdl\drivers/peripheral/scb/cy_scb_uart.h **** * data width.
1214:Generated_Source\PSoC6\pdl\drivers/peripheral/scb/cy_scb_uart.h **** *
1215:Generated_Source\PSoC6\pdl\drivers/peripheral/scb/cy_scb_uart.h **** * \param size
1216:Generated_Source\PSoC6\pdl\drivers/peripheral/scb/cy_scb_uart.h **** * The number of data elements to read from the RX FIFO.
1217:Generated_Source\PSoC6\pdl\drivers/peripheral/scb/cy_scb_uart.h **** *
1218:Generated_Source\PSoC6\pdl\drivers/peripheral/scb/cy_scb_uart.h **** * \return
1219:Generated_Source\PSoC6\pdl\drivers/peripheral/scb/cy_scb_uart.h **** * The number of data elements read from the RX FIFO.
1220:Generated_Source\PSoC6\pdl\drivers/peripheral/scb/cy_scb_uart.h **** *
1221:Generated_Source\PSoC6\pdl\drivers/peripheral/scb/cy_scb_uart.h **** *******************************************************************************/
1222:Generated_Source\PSoC6\pdl\drivers/peripheral/scb/cy_scb_uart.h **** __STATIC_INLINE uint32_t Cy_SCB_UART_GetArray(CySCB_Type const *base, void *buffer, uint32_t size)
1223:Generated_Source\PSoC6\pdl\drivers/peripheral/scb/cy_scb_uart.h **** {
1224:Generated_Source\PSoC6\pdl\drivers/peripheral/scb/cy_scb_uart.h ****     CY_ASSERT_L1(CY_SCB_IS_BUFFER_VALID(buffer, size));
1225:Generated_Source\PSoC6\pdl\drivers/peripheral/scb/cy_scb_uart.h **** 
1226:Generated_Source\PSoC6\pdl\drivers/peripheral/scb/cy_scb_uart.h ****     return Cy_SCB_ReadArray(base, buffer, size);
1227:Generated_Source\PSoC6\pdl\drivers/peripheral/scb/cy_scb_uart.h **** }
1228:Generated_Source\PSoC6\pdl\drivers/peripheral/scb/cy_scb_uart.h **** 
1229:Generated_Source\PSoC6\pdl\drivers/peripheral/scb/cy_scb_uart.h **** 
1230:Generated_Source\PSoC6\pdl\drivers/peripheral/scb/cy_scb_uart.h **** /*******************************************************************************
1231:Generated_Source\PSoC6\pdl\drivers/peripheral/scb/cy_scb_uart.h **** * Function Name: Cy_SCB_UART_GetArrayBlocking
1232:Generated_Source\PSoC6\pdl\drivers/peripheral/scb/cy_scb_uart.h **** ****************************************************************************//**
ARM GAS  C:\Users\LOCALA~1\AppData\Local\Temp\ccJ6EDbl.s 			page 24


1233:Generated_Source\PSoC6\pdl\drivers/peripheral/scb/cy_scb_uart.h **** *
1234:Generated_Source\PSoC6\pdl\drivers/peripheral/scb/cy_scb_uart.h **** * Reads an array of data out of the UART RX FIFO.
1235:Generated_Source\PSoC6\pdl\drivers/peripheral/scb/cy_scb_uart.h **** * This function blocks until the number of data elements specified by the
1236:Generated_Source\PSoC6\pdl\drivers/peripheral/scb/cy_scb_uart.h **** * size has been read from the RX FIFO.
1237:Generated_Source\PSoC6\pdl\drivers/peripheral/scb/cy_scb_uart.h **** *
1238:Generated_Source\PSoC6\pdl\drivers/peripheral/scb/cy_scb_uart.h **** * \param base
1239:Generated_Source\PSoC6\pdl\drivers/peripheral/scb/cy_scb_uart.h **** * The pointer to the UART SCB instance.
1240:Generated_Source\PSoC6\pdl\drivers/peripheral/scb/cy_scb_uart.h **** *
1241:Generated_Source\PSoC6\pdl\drivers/peripheral/scb/cy_scb_uart.h **** * \param buffer
1242:Generated_Source\PSoC6\pdl\drivers/peripheral/scb/cy_scb_uart.h **** * The pointer to the location to place the data read from the RX FIFO.
1243:Generated_Source\PSoC6\pdl\drivers/peripheral/scb/cy_scb_uart.h **** * The element size is defined by the data type, which depends on the configured
1244:Generated_Source\PSoC6\pdl\drivers/peripheral/scb/cy_scb_uart.h **** * data width.
1245:Generated_Source\PSoC6\pdl\drivers/peripheral/scb/cy_scb_uart.h **** *
1246:Generated_Source\PSoC6\pdl\drivers/peripheral/scb/cy_scb_uart.h **** * \param size
1247:Generated_Source\PSoC6\pdl\drivers/peripheral/scb/cy_scb_uart.h **** * The number of data elements to read from the RX FIFO.
1248:Generated_Source\PSoC6\pdl\drivers/peripheral/scb/cy_scb_uart.h **** *
1249:Generated_Source\PSoC6\pdl\drivers/peripheral/scb/cy_scb_uart.h **** *******************************************************************************/
1250:Generated_Source\PSoC6\pdl\drivers/peripheral/scb/cy_scb_uart.h **** __STATIC_INLINE void Cy_SCB_UART_GetArrayBlocking(CySCB_Type const *base, void *buffer, uint32_t si
1251:Generated_Source\PSoC6\pdl\drivers/peripheral/scb/cy_scb_uart.h **** {
1252:Generated_Source\PSoC6\pdl\drivers/peripheral/scb/cy_scb_uart.h ****     CY_ASSERT_L1(CY_SCB_IS_BUFFER_VALID(buffer, size));
1253:Generated_Source\PSoC6\pdl\drivers/peripheral/scb/cy_scb_uart.h **** 
1254:Generated_Source\PSoC6\pdl\drivers/peripheral/scb/cy_scb_uart.h ****     Cy_SCB_ReadArrayBlocking(base, buffer, size);
1255:Generated_Source\PSoC6\pdl\drivers/peripheral/scb/cy_scb_uart.h **** }
1256:Generated_Source\PSoC6\pdl\drivers/peripheral/scb/cy_scb_uart.h **** 
1257:Generated_Source\PSoC6\pdl\drivers/peripheral/scb/cy_scb_uart.h **** 
1258:Generated_Source\PSoC6\pdl\drivers/peripheral/scb/cy_scb_uart.h **** /*******************************************************************************
1259:Generated_Source\PSoC6\pdl\drivers/peripheral/scb/cy_scb_uart.h **** * Function Name: Cy_SCB_UART_GetRxFifoStatus
1260:Generated_Source\PSoC6\pdl\drivers/peripheral/scb/cy_scb_uart.h **** ****************************************************************************//**
1261:Generated_Source\PSoC6\pdl\drivers/peripheral/scb/cy_scb_uart.h **** *
1262:Generated_Source\PSoC6\pdl\drivers/peripheral/scb/cy_scb_uart.h **** * Returns the current status of the RX FIFO.
1263:Generated_Source\PSoC6\pdl\drivers/peripheral/scb/cy_scb_uart.h **** *
1264:Generated_Source\PSoC6\pdl\drivers/peripheral/scb/cy_scb_uart.h **** * \param base
1265:Generated_Source\PSoC6\pdl\drivers/peripheral/scb/cy_scb_uart.h **** * The pointer to the UART SCB instance.
1266:Generated_Source\PSoC6\pdl\drivers/peripheral/scb/cy_scb_uart.h **** *
1267:Generated_Source\PSoC6\pdl\drivers/peripheral/scb/cy_scb_uart.h **** * \return
1268:Generated_Source\PSoC6\pdl\drivers/peripheral/scb/cy_scb_uart.h **** * \ref group_scb_uart_macros_rx_fifo_status
1269:Generated_Source\PSoC6\pdl\drivers/peripheral/scb/cy_scb_uart.h **** *
1270:Generated_Source\PSoC6\pdl\drivers/peripheral/scb/cy_scb_uart.h **** *******************************************************************************/
1271:Generated_Source\PSoC6\pdl\drivers/peripheral/scb/cy_scb_uart.h **** __STATIC_INLINE uint32_t Cy_SCB_UART_GetRxFifoStatus(CySCB_Type const *base)
1272:Generated_Source\PSoC6\pdl\drivers/peripheral/scb/cy_scb_uart.h **** {
1273:Generated_Source\PSoC6\pdl\drivers/peripheral/scb/cy_scb_uart.h ****     return (Cy_SCB_GetRxInterruptStatus(base) & CY_SCB_UART_RX_INTR_MASK);
1274:Generated_Source\PSoC6\pdl\drivers/peripheral/scb/cy_scb_uart.h **** }
1275:Generated_Source\PSoC6\pdl\drivers/peripheral/scb/cy_scb_uart.h **** 
1276:Generated_Source\PSoC6\pdl\drivers/peripheral/scb/cy_scb_uart.h **** 
1277:Generated_Source\PSoC6\pdl\drivers/peripheral/scb/cy_scb_uart.h **** /*******************************************************************************
1278:Generated_Source\PSoC6\pdl\drivers/peripheral/scb/cy_scb_uart.h **** * Function Name: Cy_SCB_UART_ClearRxFifoStatus
1279:Generated_Source\PSoC6\pdl\drivers/peripheral/scb/cy_scb_uart.h **** ****************************************************************************//**
1280:Generated_Source\PSoC6\pdl\drivers/peripheral/scb/cy_scb_uart.h **** *
1281:Generated_Source\PSoC6\pdl\drivers/peripheral/scb/cy_scb_uart.h **** * Clears the selected statuses of the RX FIFO.
1282:Generated_Source\PSoC6\pdl\drivers/peripheral/scb/cy_scb_uart.h **** *
1283:Generated_Source\PSoC6\pdl\drivers/peripheral/scb/cy_scb_uart.h **** * \param base
1284:Generated_Source\PSoC6\pdl\drivers/peripheral/scb/cy_scb_uart.h **** * The pointer to the UART SCB instance.
1285:Generated_Source\PSoC6\pdl\drivers/peripheral/scb/cy_scb_uart.h **** *
1286:Generated_Source\PSoC6\pdl\drivers/peripheral/scb/cy_scb_uart.h **** * \param clearMask
1287:Generated_Source\PSoC6\pdl\drivers/peripheral/scb/cy_scb_uart.h **** * The mask whose statuses to clear.
1288:Generated_Source\PSoC6\pdl\drivers/peripheral/scb/cy_scb_uart.h **** * See \ref group_scb_uart_macros_rx_fifo_status for the set of constants.
1289:Generated_Source\PSoC6\pdl\drivers/peripheral/scb/cy_scb_uart.h **** *
ARM GAS  C:\Users\LOCALA~1\AppData\Local\Temp\ccJ6EDbl.s 			page 25


1290:Generated_Source\PSoC6\pdl\drivers/peripheral/scb/cy_scb_uart.h **** * \note
1291:Generated_Source\PSoC6\pdl\drivers/peripheral/scb/cy_scb_uart.h **** * * This status is also used for interrupt generation, so clearing it also
1292:Generated_Source\PSoC6\pdl\drivers/peripheral/scb/cy_scb_uart.h **** *   clears the interrupt sources.
1293:Generated_Source\PSoC6\pdl\drivers/peripheral/scb/cy_scb_uart.h **** * * Level-sensitive statuses such as \ref CY_SCB_UART_RX_TRIGGER,
1294:Generated_Source\PSoC6\pdl\drivers/peripheral/scb/cy_scb_uart.h **** *   \ref CY_SCB_UART_RX_NOT_EMPTY and \ref CY_SCB_UART_RX_FULL are set high again after
1295:Generated_Source\PSoC6\pdl\drivers/peripheral/scb/cy_scb_uart.h **** *   being cleared if the condition remains true.
1296:Generated_Source\PSoC6\pdl\drivers/peripheral/scb/cy_scb_uart.h **** *
1297:Generated_Source\PSoC6\pdl\drivers/peripheral/scb/cy_scb_uart.h **** *******************************************************************************/
1298:Generated_Source\PSoC6\pdl\drivers/peripheral/scb/cy_scb_uart.h **** __STATIC_INLINE void Cy_SCB_UART_ClearRxFifoStatus(CySCB_Type *base, uint32_t clearMask)
1299:Generated_Source\PSoC6\pdl\drivers/peripheral/scb/cy_scb_uart.h **** {
1300:Generated_Source\PSoC6\pdl\drivers/peripheral/scb/cy_scb_uart.h ****     CY_ASSERT_L2(CY_SCB_IS_INTR_VALID(clearMask, CY_SCB_UART_RX_INTR_MASK));
1301:Generated_Source\PSoC6\pdl\drivers/peripheral/scb/cy_scb_uart.h **** 
1302:Generated_Source\PSoC6\pdl\drivers/peripheral/scb/cy_scb_uart.h ****     Cy_SCB_ClearRxInterrupt(base, clearMask);
1303:Generated_Source\PSoC6\pdl\drivers/peripheral/scb/cy_scb_uart.h **** }
1304:Generated_Source\PSoC6\pdl\drivers/peripheral/scb/cy_scb_uart.h **** 
1305:Generated_Source\PSoC6\pdl\drivers/peripheral/scb/cy_scb_uart.h **** 
1306:Generated_Source\PSoC6\pdl\drivers/peripheral/scb/cy_scb_uart.h **** /*******************************************************************************
1307:Generated_Source\PSoC6\pdl\drivers/peripheral/scb/cy_scb_uart.h **** * Function Name: Cy_SCB_UART_GetNumInRxFifo
1308:Generated_Source\PSoC6\pdl\drivers/peripheral/scb/cy_scb_uart.h **** ****************************************************************************//**
1309:Generated_Source\PSoC6\pdl\drivers/peripheral/scb/cy_scb_uart.h **** *
1310:Generated_Source\PSoC6\pdl\drivers/peripheral/scb/cy_scb_uart.h **** * Returns the number of data elements in the UART RX FIFO.
1311:Generated_Source\PSoC6\pdl\drivers/peripheral/scb/cy_scb_uart.h **** *
1312:Generated_Source\PSoC6\pdl\drivers/peripheral/scb/cy_scb_uart.h **** * \param base
1313:Generated_Source\PSoC6\pdl\drivers/peripheral/scb/cy_scb_uart.h **** * The pointer to the UART SCB instance.
1314:Generated_Source\PSoC6\pdl\drivers/peripheral/scb/cy_scb_uart.h **** *
1315:Generated_Source\PSoC6\pdl\drivers/peripheral/scb/cy_scb_uart.h **** * \return
1316:Generated_Source\PSoC6\pdl\drivers/peripheral/scb/cy_scb_uart.h **** * The number of data elements in the RX FIFO.
1317:Generated_Source\PSoC6\pdl\drivers/peripheral/scb/cy_scb_uart.h **** * The size of date element defined by the configured data width.
1318:Generated_Source\PSoC6\pdl\drivers/peripheral/scb/cy_scb_uart.h **** *
1319:Generated_Source\PSoC6\pdl\drivers/peripheral/scb/cy_scb_uart.h **** *******************************************************************************/
1320:Generated_Source\PSoC6\pdl\drivers/peripheral/scb/cy_scb_uart.h **** __STATIC_INLINE uint32_t Cy_SCB_UART_GetNumInRxFifo(CySCB_Type const *base)
1321:Generated_Source\PSoC6\pdl\drivers/peripheral/scb/cy_scb_uart.h **** {
1322:Generated_Source\PSoC6\pdl\drivers/peripheral/scb/cy_scb_uart.h ****     return Cy_SCB_GetNumInRxFifo(base);
1323:Generated_Source\PSoC6\pdl\drivers/peripheral/scb/cy_scb_uart.h **** }
1324:Generated_Source\PSoC6\pdl\drivers/peripheral/scb/cy_scb_uart.h **** 
1325:Generated_Source\PSoC6\pdl\drivers/peripheral/scb/cy_scb_uart.h **** /*******************************************************************************
1326:Generated_Source\PSoC6\pdl\drivers/peripheral/scb/cy_scb_uart.h **** * Function Name: Cy_SCB_UART_ClearRxFifo
1327:Generated_Source\PSoC6\pdl\drivers/peripheral/scb/cy_scb_uart.h **** ****************************************************************************//**
1328:Generated_Source\PSoC6\pdl\drivers/peripheral/scb/cy_scb_uart.h **** *
1329:Generated_Source\PSoC6\pdl\drivers/peripheral/scb/cy_scb_uart.h **** * Clears all data out of the UART RX FIFO.
1330:Generated_Source\PSoC6\pdl\drivers/peripheral/scb/cy_scb_uart.h **** *
1331:Generated_Source\PSoC6\pdl\drivers/peripheral/scb/cy_scb_uart.h **** * \param base
1332:Generated_Source\PSoC6\pdl\drivers/peripheral/scb/cy_scb_uart.h **** * The pointer to the UART SCB instance.
1333:Generated_Source\PSoC6\pdl\drivers/peripheral/scb/cy_scb_uart.h **** *
1334:Generated_Source\PSoC6\pdl\drivers/peripheral/scb/cy_scb_uart.h **** * \sideeffect
1335:Generated_Source\PSoC6\pdl\drivers/peripheral/scb/cy_scb_uart.h **** * Any data currently in the shifter is cleared and lost.
1336:Generated_Source\PSoC6\pdl\drivers/peripheral/scb/cy_scb_uart.h **** *
1337:Generated_Source\PSoC6\pdl\drivers/peripheral/scb/cy_scb_uart.h **** *******************************************************************************/
1338:Generated_Source\PSoC6\pdl\drivers/peripheral/scb/cy_scb_uart.h **** __STATIC_INLINE void Cy_SCB_UART_ClearRxFifo(CySCB_Type *base)
1339:Generated_Source\PSoC6\pdl\drivers/peripheral/scb/cy_scb_uart.h **** {
1340:Generated_Source\PSoC6\pdl\drivers/peripheral/scb/cy_scb_uart.h ****     Cy_SCB_ClearRxFifo(base);
1341:Generated_Source\PSoC6\pdl\drivers/peripheral/scb/cy_scb_uart.h **** }
1342:Generated_Source\PSoC6\pdl\drivers/peripheral/scb/cy_scb_uart.h **** 
1343:Generated_Source\PSoC6\pdl\drivers/peripheral/scb/cy_scb_uart.h **** 
1344:Generated_Source\PSoC6\pdl\drivers/peripheral/scb/cy_scb_uart.h **** /*******************************************************************************
1345:Generated_Source\PSoC6\pdl\drivers/peripheral/scb/cy_scb_uart.h **** * Function Name: Cy_SCB_UART_Put
1346:Generated_Source\PSoC6\pdl\drivers/peripheral/scb/cy_scb_uart.h **** ****************************************************************************//**
ARM GAS  C:\Users\LOCALA~1\AppData\Local\Temp\ccJ6EDbl.s 			page 26


1347:Generated_Source\PSoC6\pdl\drivers/peripheral/scb/cy_scb_uart.h **** *
1348:Generated_Source\PSoC6\pdl\drivers/peripheral/scb/cy_scb_uart.h **** * Places a single data element in the UART TX FIFO.
1349:Generated_Source\PSoC6\pdl\drivers/peripheral/scb/cy_scb_uart.h **** * This function does not block and returns how many data elements were placed
1350:Generated_Source\PSoC6\pdl\drivers/peripheral/scb/cy_scb_uart.h **** * in the TX FIFO.
1351:Generated_Source\PSoC6\pdl\drivers/peripheral/scb/cy_scb_uart.h **** *
1352:Generated_Source\PSoC6\pdl\drivers/peripheral/scb/cy_scb_uart.h **** * \param base
1353:Generated_Source\PSoC6\pdl\drivers/peripheral/scb/cy_scb_uart.h **** * The pointer to the UART SCB instance.
1354:Generated_Source\PSoC6\pdl\drivers/peripheral/scb/cy_scb_uart.h **** *
1355:Generated_Source\PSoC6\pdl\drivers/peripheral/scb/cy_scb_uart.h **** * \param data
1356:Generated_Source\PSoC6\pdl\drivers/peripheral/scb/cy_scb_uart.h **** * Data to put in the TX FIFO.
1357:Generated_Source\PSoC6\pdl\drivers/peripheral/scb/cy_scb_uart.h **** * The element size is defined by the data type, which depends on the configured
1358:Generated_Source\PSoC6\pdl\drivers/peripheral/scb/cy_scb_uart.h **** * data width.
1359:Generated_Source\PSoC6\pdl\drivers/peripheral/scb/cy_scb_uart.h **** *
1360:Generated_Source\PSoC6\pdl\drivers/peripheral/scb/cy_scb_uart.h **** * \return
1361:Generated_Source\PSoC6\pdl\drivers/peripheral/scb/cy_scb_uart.h **** * The number of data elements placed in the TX FIFO: 0 or 1.
1362:Generated_Source\PSoC6\pdl\drivers/peripheral/scb/cy_scb_uart.h **** *
1363:Generated_Source\PSoC6\pdl\drivers/peripheral/scb/cy_scb_uart.h **** *******************************************************************************/
1364:Generated_Source\PSoC6\pdl\drivers/peripheral/scb/cy_scb_uart.h **** __STATIC_INLINE uint32_t Cy_SCB_UART_Put(CySCB_Type *base, uint32_t data)
1365:Generated_Source\PSoC6\pdl\drivers/peripheral/scb/cy_scb_uart.h **** {
1366:Generated_Source\PSoC6\pdl\drivers/peripheral/scb/cy_scb_uart.h ****     return Cy_SCB_Write(base, data);
1367:Generated_Source\PSoC6\pdl\drivers/peripheral/scb/cy_scb_uart.h **** }
1368:Generated_Source\PSoC6\pdl\drivers/peripheral/scb/cy_scb_uart.h **** 
1369:Generated_Source\PSoC6\pdl\drivers/peripheral/scb/cy_scb_uart.h **** 
1370:Generated_Source\PSoC6\pdl\drivers/peripheral/scb/cy_scb_uart.h **** /*******************************************************************************
1371:Generated_Source\PSoC6\pdl\drivers/peripheral/scb/cy_scb_uart.h **** * Function Name: Cy_SCB_UART_PutArray
1372:Generated_Source\PSoC6\pdl\drivers/peripheral/scb/cy_scb_uart.h **** ****************************************************************************//**
1373:Generated_Source\PSoC6\pdl\drivers/peripheral/scb/cy_scb_uart.h **** *
1374:Generated_Source\PSoC6\pdl\drivers/peripheral/scb/cy_scb_uart.h **** * Places an array of data in the UART TX FIFO.
1375:Generated_Source\PSoC6\pdl\drivers/peripheral/scb/cy_scb_uart.h **** * This function does not block. It returns how many data elements were
1376:Generated_Source\PSoC6\pdl\drivers/peripheral/scb/cy_scb_uart.h **** * placed in the TX FIFO.
1377:Generated_Source\PSoC6\pdl\drivers/peripheral/scb/cy_scb_uart.h **** *
1378:Generated_Source\PSoC6\pdl\drivers/peripheral/scb/cy_scb_uart.h **** * \param base
1379:Generated_Source\PSoC6\pdl\drivers/peripheral/scb/cy_scb_uart.h **** * The pointer to the UART SCB instance.
1380:Generated_Source\PSoC6\pdl\drivers/peripheral/scb/cy_scb_uart.h **** *
1381:Generated_Source\PSoC6\pdl\drivers/peripheral/scb/cy_scb_uart.h **** * \param buffer
1382:Generated_Source\PSoC6\pdl\drivers/peripheral/scb/cy_scb_uart.h **** * The pointer to data to place in the TX FIFO.
1383:Generated_Source\PSoC6\pdl\drivers/peripheral/scb/cy_scb_uart.h **** * The element size is defined by the data type, which depends on the configured
1384:Generated_Source\PSoC6\pdl\drivers/peripheral/scb/cy_scb_uart.h **** * TX data width.
1385:Generated_Source\PSoC6\pdl\drivers/peripheral/scb/cy_scb_uart.h **** *
1386:Generated_Source\PSoC6\pdl\drivers/peripheral/scb/cy_scb_uart.h **** * \param size
1387:Generated_Source\PSoC6\pdl\drivers/peripheral/scb/cy_scb_uart.h **** * The number of data elements to TX.
1388:Generated_Source\PSoC6\pdl\drivers/peripheral/scb/cy_scb_uart.h **** *
1389:Generated_Source\PSoC6\pdl\drivers/peripheral/scb/cy_scb_uart.h **** * \return
1390:Generated_Source\PSoC6\pdl\drivers/peripheral/scb/cy_scb_uart.h **** * The number of data elements placed in the TX FIFO.
1391:Generated_Source\PSoC6\pdl\drivers/peripheral/scb/cy_scb_uart.h **** *
1392:Generated_Source\PSoC6\pdl\drivers/peripheral/scb/cy_scb_uart.h **** *******************************************************************************/
1393:Generated_Source\PSoC6\pdl\drivers/peripheral/scb/cy_scb_uart.h **** __STATIC_INLINE uint32_t Cy_SCB_UART_PutArray(CySCB_Type *base, void *buffer, uint32_t size)
1394:Generated_Source\PSoC6\pdl\drivers/peripheral/scb/cy_scb_uart.h **** {
  73              		.loc 1 1394 0
  74              		.cfi_startproc
  75              		@ args = 0, pretend = 0, frame = 16
  76              		@ frame_needed = 1, uses_anonymous_args = 0
  77 0000 80B5     		push	{r7, lr}
  78              		.cfi_def_cfa_offset 8
  79              		.cfi_offset 7, -8
  80              		.cfi_offset 14, -4
  81 0002 84B0     		sub	sp, sp, #16
ARM GAS  C:\Users\LOCALA~1\AppData\Local\Temp\ccJ6EDbl.s 			page 27


  82              		.cfi_def_cfa_offset 24
  83 0004 00AF     		add	r7, sp, #0
  84              		.cfi_def_cfa_register 7
  85 0006 F860     		str	r0, [r7, #12]
  86 0008 B960     		str	r1, [r7, #8]
  87 000a 7A60     		str	r2, [r7, #4]
1395:Generated_Source\PSoC6\pdl\drivers/peripheral/scb/cy_scb_uart.h ****     CY_ASSERT_L1(CY_SCB_IS_BUFFER_VALID(buffer, size));
  88              		.loc 1 1395 0
  89 000c BB68     		ldr	r3, [r7, #8]
  90 000e 002B     		cmp	r3, #0
  91 0010 02D0     		beq	.L3
  92              		.loc 1 1395 0 is_stmt 0 discriminator 2
  93 0012 7B68     		ldr	r3, [r7, #4]
  94 0014 002B     		cmp	r3, #0
  95 0016 04D1     		bne	.L4
  96              	.L3:
  97              		.loc 1 1395 0 discriminator 3
  98 0018 40F27351 		movw	r1, #1395
  99 001c 0648     		ldr	r0, .L6
 100 001e FFF7FEFF 		bl	Cy_SysLib_AssertFailed
 101              	.L4:
1396:Generated_Source\PSoC6\pdl\drivers/peripheral/scb/cy_scb_uart.h **** 
1397:Generated_Source\PSoC6\pdl\drivers/peripheral/scb/cy_scb_uart.h ****     return Cy_SCB_WriteArray(base, buffer, size);
 102              		.loc 1 1397 0 is_stmt 1
 103 0022 7A68     		ldr	r2, [r7, #4]
 104 0024 B968     		ldr	r1, [r7, #8]
 105 0026 F868     		ldr	r0, [r7, #12]
 106 0028 FFF7FEFF 		bl	Cy_SCB_WriteArray
 107 002c 0346     		mov	r3, r0
1398:Generated_Source\PSoC6\pdl\drivers/peripheral/scb/cy_scb_uart.h **** }
 108              		.loc 1 1398 0
 109 002e 1846     		mov	r0, r3
 110 0030 1037     		adds	r7, r7, #16
 111              		.cfi_def_cfa_offset 8
 112 0032 BD46     		mov	sp, r7
 113              		.cfi_def_cfa_register 13
 114              		@ sp needed
 115 0034 80BD     		pop	{r7, pc}
 116              	.L7:
 117 0036 00BF     		.align	2
 118              	.L6:
 119 0038 00000000 		.word	.LC0
 120              		.cfi_endproc
 121              	.LFE374:
 122              		.size	Cy_SCB_UART_PutArray, .-Cy_SCB_UART_PutArray
 123              		.global	samplesTaken
 124              		.bss
 125              		.align	2
 126              		.type	samplesTaken, %object
 127              		.size	samplesTaken, 4
 128              	samplesTaken:
 129 0000 00000000 		.space	4
 130              		.comm	FIFO_Buffer,600,4
 131              		.comm	channelsValues,12,4
 132              		.comm	spo2,4,4
 133              		.comm	validSPO2,1,1
 134              		.comm	heartRate,4,4
ARM GAS  C:\Users\LOCALA~1\AppData\Local\Temp\ccJ6EDbl.s 			page 28


 135              		.comm	gLastHeartRate,4,4
 136              		.comm	validHeartRate,1,1
 137              		.comm	gBeatAvg,1,1
 138              		.comm	gBpmBuff,6,4
 139              		.global	gBpmCurrentIndex
 140              		.type	gBpmCurrentIndex, %object
 141              		.size	gBpmCurrentIndex, 1
 142              	gBpmCurrentIndex:
 143 0004 00       		.space	1
 144              		.comm	gTempSpO2Avg,4,4
 145              		.comm	gTempSpO2AvgInt1,4,4
 146              		.comm	gTempSpO2AvgInt2,4,4
 147              		.comm	gTempbeatAvg,4,4
 148              		.comm	gSpO2Buff,24,4
 149              		.global	gSpO2CurrentIndex
 150              		.type	gSpO2CurrentIndex, %object
 151              		.size	gSpO2CurrentIndex, 1
 152              	gSpO2CurrentIndex:
 153 0005 00       		.space	1
 154              		.global	gTissueDetected
 155              		.type	gTissueDetected, %object
 156              		.size	gTissueDetected, 1
 157              	gTissueDetected:
 158 0006 00       		.space	1
 159              		.global	gpFrame
 160 0007 00       		.align	2
 161              		.type	gpFrame, %object
 162              		.size	gpFrame, 4
 163              	gpFrame:
 164 0008 00000000 		.space	4
 165              		.comm	frameParam,5,4
 166              		.section	.text.createSerialFrame,"ax",%progbits
 167              		.align	2
 168              		.global	createSerialFrame
 169              		.thumb
 170              		.thumb_func
 171              		.type	createSerialFrame, %function
 172              	createSerialFrame:
 173              	.LFB659:
 174              		.file 2 "main_cm4.c"
   1:main_cm4.c    **** /* ========================================
   2:main_cm4.c    ****  *
   3:main_cm4.c    ****  * Copyright YOUR COMPANY, THE YEAR
   4:main_cm4.c    ****  * All Rights Reserved
   5:main_cm4.c    ****  * UNPUBLISHED, LICENSED SOFTWARE.
   6:main_cm4.c    ****  *
   7:main_cm4.c    ****  * CONFIDENTIAL AND PROPRIETARY INFORMATION
   8:main_cm4.c    ****  * WHICH IS THE PROPERTY OF your company.
   9:main_cm4.c    ****  *
  10:main_cm4.c    ****  * ========================================
  11:main_cm4.c    **** */
  12:main_cm4.c    **** #include "project.h"
  13:main_cm4.c    **** 
  14:main_cm4.c    **** #include "MAX30105.h"
  15:main_cm4.c    **** #include "milliseconds.h"
  16:main_cm4.c    **** #include "spo2_algorithm.h"
  17:main_cm4.c    **** 
ARM GAS  C:\Users\LOCALA~1\AppData\Local\Temp\ccJ6EDbl.s 			page 29


  18:main_cm4.c    **** #include "string.h"
  19:main_cm4.c    **** #include <stdio.h>
  20:main_cm4.c    **** #include <stdlib.h>
  21:main_cm4.c    **** 
  22:main_cm4.c    **** /******************************************************* MACROS ***********************************
  23:main_cm4.c    **** /* @brief Just a redefinition */
  24:main_cm4.c    **** #define TRUE                      true
  25:main_cm4.c    **** #define FALSE                     false
  26:main_cm4.c    **** 
  27:main_cm4.c    **** /* @brief Channel indexes */
  28:main_cm4.c    **** #define RED_CHANNEL   (0U)
  29:main_cm4.c    **** #define GREEN_CHANNEL (1U)
  30:main_cm4.c    **** #define IR_CHANNEL    (2U)
  31:main_cm4.c    **** 
  32:main_cm4.c    **** 
  33:main_cm4.c    **** /* @brief Some config macros */
  34:main_cm4.c    **** #define NO_FINGER_THRESHOLD                   (50000UL)
  35:main_cm4.c    **** 
  36:main_cm4.c    **** #define READ_FROM_FIFO_BUFFER                 TRUE
  37:main_cm4.c    **** #define FIFO_NUMBER_OF_SAMPLES               (100U)
  38:main_cm4.c    **** #define FIFO_NUMBER_OF_OVERLAPPING_SAMPLES   (75U)
  39:main_cm4.c    **** 
  40:main_cm4.c    **** #define USE_CUSTOM_SENSOR_CFG     TRUE
  41:main_cm4.c    **** 
  42:main_cm4.c    **** #define BPM_AVERAGE_RATE          (6U)
  43:main_cm4.c    **** #define SPO2_AVERAGE_RATE         (8U)
  44:main_cm4.c    **** 
  45:main_cm4.c    **** /**************************************************** GLOBAL VARIABLES ****************************
  46:main_cm4.c    **** 
  47:main_cm4.c    **** /* @brief Stores the number of samples aquired in the input buffer */
  48:main_cm4.c    **** uint32_t samplesTaken = 0UL;
  49:main_cm4.c    **** /* @brief Channel buffers */
  50:main_cm4.c    **** uint16_t FIFO_Buffer[3 * FIFO_NUMBER_OF_SAMPLES];
  51:main_cm4.c    **** uint32_t channelsValues[3];
  52:main_cm4.c    **** 
  53:main_cm4.c    **** /* @brief Stores the SpO2 value */
  54:main_cm4.c    **** int32_t spo2;
  55:main_cm4.c    **** /* @brief Stores the status of SpO2 value */ 
  56:main_cm4.c    **** int8_t validSPO2; 
  57:main_cm4.c    **** /* @brief Stores the HR value */
  58:main_cm4.c    **** int32_t heartRate;
  59:main_cm4.c    **** /* @brief Las HR rate value */ 
  60:main_cm4.c    **** int32_t gLastHeartRate;
  61:main_cm4.c    **** /* @brief Stores the status of HR value */ 
  62:main_cm4.c    **** int8_t validHeartRate; 
  63:main_cm4.c    **** 
  64:main_cm4.c    **** /* @brief HR buffer and index used for averaging */
  65:main_cm4.c    **** uint8_t gBeatAvg;
  66:main_cm4.c    **** uint8_t gBpmBuff[BPM_AVERAGE_RATE];
  67:main_cm4.c    **** uint8_t gBpmCurrentIndex = 0U;
  68:main_cm4.c    **** 
  69:main_cm4.c    **** /* @brief Temporary variables */
  70:main_cm4.c    **** float gTempSpO2Avg;
  71:main_cm4.c    **** uint32_t gTempSpO2AvgInt1;
  72:main_cm4.c    **** uint32_t gTempSpO2AvgInt2;
  73:main_cm4.c    **** uint32_t gTempbeatAvg;
  74:main_cm4.c    **** 
ARM GAS  C:\Users\LOCALA~1\AppData\Local\Temp\ccJ6EDbl.s 			page 30


  75:main_cm4.c    **** /* @brief SpO2 buffer and index used for averaging */
  76:main_cm4.c    **** float gSpO2Buff[BPM_AVERAGE_RATE];
  77:main_cm4.c    **** uint8_t gSpO2CurrentIndex = 0U;
  78:main_cm4.c    **** 
  79:main_cm4.c    **** /* @brief Stores the status of the measurement */
  80:main_cm4.c    **** bool gTissueDetected = FALSE;
  81:main_cm4.c    **** 
  82:main_cm4.c    **** /* @brief Pointer to a serial frame newly created*/
  83:main_cm4.c    **** uint8_t *gpFrame = NULL;
  84:main_cm4.c    **** /**************************************************** GLOBAL STRUCTS AND DEFINITIONS **************
  85:main_cm4.c    **** /* Options: 0=Off to 255=50mA */
  86:main_cm4.c    **** #define CFG_LED_BRIGHTNESS   (60)
  87:main_cm4.c    **** /* Options: 1, 2, 4, 8, 16, */
  88:main_cm4.c    **** #define CFG_SAMPLE_AVERAGE   (8)
  89:main_cm4.c    **** /* Options: 1 = Red only, 2 = Red + IR, 3 = Red + IR + Green */
  90:main_cm4.c    **** #define CFG_LED_MODE         (2)
  91:main_cm4.c    **** /* Options: 50, 100, 200, 400, 800, 1000, 1600, 3200 */
  92:main_cm4.c    **** #define CFG_SAMPLE_RATE      (200)
  93:main_cm4.c    **** /* Options: 69, 118, 215, 411 */
  94:main_cm4.c    **** #define CFG_PULSE_WIDTH      (411)
  95:main_cm4.c    **** /* Options: 2048, 4096, 8192, 16384 */
  96:main_cm4.c    **** #define CFG_ADC_RANGE        (16384)
  97:main_cm4.c    **** 
  98:main_cm4.c    **** 
  99:main_cm4.c    **** /* @brief Frame flags. Same as in the Python application */
 100:main_cm4.c    **** #define FRAME_START               (0xDA)
 101:main_cm4.c    **** #define FRAME_TERMINATOR_1        (0xEA)
 102:main_cm4.c    **** #define FRAME_TERMINATOR_2        (0xDC)
 103:main_cm4.c    **** #define SERIAL_FRAME_LENGTH_MAX   (300U)
 104:main_cm4.c    **** /* @brief Sensor config structure */
 105:main_cm4.c    **** typedef struct 
 106:main_cm4.c    **** {
 107:main_cm4.c    ****   uint8_t ledBrightness;
 108:main_cm4.c    ****   uint8_t sampleAverage;
 109:main_cm4.c    ****   uint8_t ledMode;
 110:main_cm4.c    ****   int sampleRate;
 111:main_cm4.c    ****   int pulseWidth;
 112:main_cm4.c    ****   int adcRange;
 113:main_cm4.c    **** } sensorConfig_t;
 114:main_cm4.c    **** 
 115:main_cm4.c    **** /* @brief Enum with frame types */
 116:main_cm4.c    **** typedef enum 
 117:main_cm4.c    **** { 
 118:main_cm4.c    ****     CHANNEL_DATA = 0x7C, 
 119:main_cm4.c    ****     PARAMS = 0x83, 
 120:main_cm4.c    ****     DEBUG_FRAME = 0xF2
 121:main_cm4.c    **** } frameType_t;
 122:main_cm4.c    **** 
 123:main_cm4.c    **** /* @brief Store params for the debug frame. Not supported yet. */
 124:main_cm4.c    **** typedef struct
 125:main_cm4.c    **** {
 126:main_cm4.c    ****   uint8_t dummy;
 127:main_cm4.c    **** }debugType_t;
 128:main_cm4.c    **** 
 129:main_cm4.c    **** /* @brief Store params for differend kind of serial frames */
 130:main_cm4.c    **** typedef struct
 131:main_cm4.c    **** {
ARM GAS  C:\Users\LOCALA~1\AppData\Local\Temp\ccJ6EDbl.s 			page 31


 132:main_cm4.c    ****   frameType_t frameType;
 133:main_cm4.c    ****   union
 134:main_cm4.c    ****   {
 135:main_cm4.c    ****     uint8_t hr_spo2[3];
 136:main_cm4.c    ****     uint8_t wavelength;
 137:main_cm4.c    ****     debugType_t debugParam;
 138:main_cm4.c    ****   }params;
 139:main_cm4.c    ****   bool tissueDetected;
 140:main_cm4.c    **** }frameParams_t;
 141:main_cm4.c    **** 
 142:main_cm4.c    **** frameParams_t frameParam;
 143:main_cm4.c    **** 
 144:main_cm4.c    **** 
 145:main_cm4.c    **** static void HandleError(void);
 146:main_cm4.c    **** 
 147:main_cm4.c    **** /**************************************************** CUSTOM FUNCTIONS ****************************
 148:main_cm4.c    **** /* Function: createSerialFrame
 149:main_cm4.c    ****  * Param: void *inputData - a generic pointer to an input buffer
 150:main_cm4.c    ****  *        uint8_t noOfBytes - number of bytes in the input buffer to be included in the frame
 151:main_cm4.c    ****  *        frameParams_t *serialFrameStruct - contains params such as hr, sp02, etc
 152:main_cm4.c    ****  * Description: Create the type of frame according to the frameType parameter. DEBUG frame not impl
 153:main_cm4.c    ****  * Return type: void
 154:main_cm4.c    ****  */
 155:main_cm4.c    **** uint8_t* createSerialFrame(void *inputData, uint16_t noOfBytes, frameParams_t *serialFrameStruct)
 156:main_cm4.c    **** {
 175              		.loc 2 156 0
 176              		.cfi_startproc
 177              		@ args = 0, pretend = 0, frame = 16
 178              		@ frame_needed = 1, uses_anonymous_args = 0
 179 0000 80B5     		push	{r7, lr}
 180              		.cfi_def_cfa_offset 8
 181              		.cfi_offset 7, -8
 182              		.cfi_offset 14, -4
 183 0002 84B0     		sub	sp, sp, #16
 184              		.cfi_def_cfa_offset 24
 185 0004 00AF     		add	r7, sp, #0
 186              		.cfi_def_cfa_register 7
 187 0006 F860     		str	r0, [r7, #12]
 188 0008 0B46     		mov	r3, r1
 189 000a 7A60     		str	r2, [r7, #4]
 190 000c 7B81     		strh	r3, [r7, #10]	@ movhi
 157:main_cm4.c    ****   static uint8_t serialFrame[SERIAL_FRAME_LENGTH_MAX + 5];
 158:main_cm4.c    ****   if( SERIAL_FRAME_LENGTH_MAX + 5 < noOfBytes)
 191              		.loc 2 158 0
 192 000e 7B89     		ldrh	r3, [r7, #10]
 193 0010 B3F5997F 		cmp	r3, #306
 194 0014 02D3     		bcc	.L9
 159:main_cm4.c    ****     serialFrameStruct->frameType = 0xFF;
 195              		.loc 2 159 0
 196 0016 7B68     		ldr	r3, [r7, #4]
 197 0018 FF22     		movs	r2, #255
 198 001a 1A70     		strb	r2, [r3]
 199              	.L9:
 160:main_cm4.c    ****     
 161:main_cm4.c    ****   serialFrame[0] = FRAME_START;
 200              		.loc 2 161 0
 201 001c 2D4B     		ldr	r3, .L18
ARM GAS  C:\Users\LOCALA~1\AppData\Local\Temp\ccJ6EDbl.s 			page 32


 202 001e DA22     		movs	r2, #218
 203 0020 1A70     		strb	r2, [r3]
 162:main_cm4.c    ****   
 163:main_cm4.c    ****   switch(serialFrameStruct->frameType)
 204              		.loc 2 163 0
 205 0022 7B68     		ldr	r3, [r7, #4]
 206 0024 1B78     		ldrb	r3, [r3]	@ zero_extendqisi2
 207 0026 832B     		cmp	r3, #131
 208 0028 20D0     		beq	.L11
 209 002a F22B     		cmp	r3, #242
 210 002c 4CD0     		beq	.L17
 211 002e 7C2B     		cmp	r3, #124
 212 0030 37D1     		bne	.L16
 164:main_cm4.c    ****   {
 165:main_cm4.c    ****     case CHANNEL_DATA:
 166:main_cm4.c    ****         serialFrame[1] = CHANNEL_DATA;
 213              		.loc 2 166 0
 214 0032 284B     		ldr	r3, .L18
 215 0034 7C22     		movs	r2, #124
 216 0036 5A70     		strb	r2, [r3, #1]
 167:main_cm4.c    ****         serialFrame[2] = serialFrameStruct->tissueDetected;
 217              		.loc 2 167 0
 218 0038 7B68     		ldr	r3, [r7, #4]
 219 003a 1B79     		ldrb	r3, [r3, #4]	@ zero_extendqisi2
 220 003c 1A46     		mov	r2, r3
 221 003e 254B     		ldr	r3, .L18
 222 0040 9A70     		strb	r2, [r3, #2]
 168:main_cm4.c    ****         serialFrame[3] = serialFrameStruct->params.wavelength;
 223              		.loc 2 168 0
 224 0042 7B68     		ldr	r3, [r7, #4]
 225 0044 5A78     		ldrb	r2, [r3, #1]	@ zero_extendqisi2
 226 0046 234B     		ldr	r3, .L18
 227 0048 DA70     		strb	r2, [r3, #3]
 169:main_cm4.c    ****         memcpy(&serialFrame[4], inputData, noOfBytes);
 228              		.loc 2 169 0
 229 004a 7B89     		ldrh	r3, [r7, #10]
 230 004c 1A46     		mov	r2, r3
 231 004e F968     		ldr	r1, [r7, #12]
 232 0050 2148     		ldr	r0, .L18+4
 233 0052 FFF7FEFF 		bl	memcpy
 170:main_cm4.c    ****         serialFrame[noOfBytes + 4] = FRAME_TERMINATOR_1;
 234              		.loc 2 170 0
 235 0056 7B89     		ldrh	r3, [r7, #10]
 236 0058 0433     		adds	r3, r3, #4
 237 005a 1E4A     		ldr	r2, .L18
 238 005c EA21     		movs	r1, #234
 239 005e D154     		strb	r1, [r2, r3]
 171:main_cm4.c    ****         serialFrame[noOfBytes + 5] = FRAME_TERMINATOR_2;
 240              		.loc 2 171 0
 241 0060 7B89     		ldrh	r3, [r7, #10]
 242 0062 0533     		adds	r3, r3, #5
 243 0064 1B4A     		ldr	r2, .L18
 244 0066 DC21     		movs	r1, #220
 245 0068 D154     		strb	r1, [r2, r3]
 172:main_cm4.c    ****         break;
 246              		.loc 2 172 0
 247 006a 2EE0     		b	.L14
ARM GAS  C:\Users\LOCALA~1\AppData\Local\Temp\ccJ6EDbl.s 			page 33


 248              	.L11:
 173:main_cm4.c    ****         
 174:main_cm4.c    ****     case PARAMS:
 175:main_cm4.c    ****         serialFrame[1] = PARAMS;
 249              		.loc 2 175 0
 250 006c 194B     		ldr	r3, .L18
 251 006e 8322     		movs	r2, #131
 252 0070 5A70     		strb	r2, [r3, #1]
 176:main_cm4.c    ****         serialFrame[2] = serialFrameStruct->tissueDetected;
 253              		.loc 2 176 0
 254 0072 7B68     		ldr	r3, [r7, #4]
 255 0074 1B79     		ldrb	r3, [r3, #4]	@ zero_extendqisi2
 256 0076 1A46     		mov	r2, r3
 257 0078 164B     		ldr	r3, .L18
 258 007a 9A70     		strb	r2, [r3, #2]
 177:main_cm4.c    ****         serialFrame[3] = serialFrameStruct->params.hr_spo2[0];
 259              		.loc 2 177 0
 260 007c 7B68     		ldr	r3, [r7, #4]
 261 007e 5A78     		ldrb	r2, [r3, #1]	@ zero_extendqisi2
 262 0080 144B     		ldr	r3, .L18
 263 0082 DA70     		strb	r2, [r3, #3]
 178:main_cm4.c    ****         serialFrame[4] = serialFrameStruct->params.hr_spo2[1];
 264              		.loc 2 178 0
 265 0084 7B68     		ldr	r3, [r7, #4]
 266 0086 9A78     		ldrb	r2, [r3, #2]	@ zero_extendqisi2
 267 0088 124B     		ldr	r3, .L18
 268 008a 1A71     		strb	r2, [r3, #4]
 179:main_cm4.c    ****         serialFrame[5] = serialFrameStruct->params.hr_spo2[2];
 269              		.loc 2 179 0
 270 008c 7B68     		ldr	r3, [r7, #4]
 271 008e DA78     		ldrb	r2, [r3, #3]	@ zero_extendqisi2
 272 0090 104B     		ldr	r3, .L18
 273 0092 5A71     		strb	r2, [r3, #5]
 180:main_cm4.c    ****         serialFrame[6] = FRAME_TERMINATOR_1;
 274              		.loc 2 180 0
 275 0094 0F4B     		ldr	r3, .L18
 276 0096 EA22     		movs	r2, #234
 277 0098 9A71     		strb	r2, [r3, #6]
 181:main_cm4.c    ****         serialFrame[7] = FRAME_TERMINATOR_2;
 278              		.loc 2 181 0
 279 009a 0E4B     		ldr	r3, .L18
 280 009c DC22     		movs	r2, #220
 281 009e DA71     		strb	r2, [r3, #7]
 182:main_cm4.c    ****         break;
 282              		.loc 2 182 0
 283 00a0 13E0     		b	.L14
 284              	.L16:
 183:main_cm4.c    ****         
 184:main_cm4.c    ****     case DEBUG_FRAME:
 185:main_cm4.c    ****         break;
 186:main_cm4.c    ****         
 187:main_cm4.c    ****     default:
 188:main_cm4.c    ****         serialFrame[1] = 0xDE;
 285              		.loc 2 188 0
 286 00a2 0C4B     		ldr	r3, .L18
 287 00a4 DE22     		movs	r2, #222
 288 00a6 5A70     		strb	r2, [r3, #1]
ARM GAS  C:\Users\LOCALA~1\AppData\Local\Temp\ccJ6EDbl.s 			page 34


 189:main_cm4.c    ****         serialFrame[2] = 0xAD;
 289              		.loc 2 189 0
 290 00a8 0A4B     		ldr	r3, .L18
 291 00aa AD22     		movs	r2, #173
 292 00ac 9A70     		strb	r2, [r3, #2]
 190:main_cm4.c    ****         serialFrame[3] = 0xDE;
 293              		.loc 2 190 0
 294 00ae 094B     		ldr	r3, .L18
 295 00b0 DE22     		movs	r2, #222
 296 00b2 DA70     		strb	r2, [r3, #3]
 191:main_cm4.c    ****         serialFrame[4] = 0xAD;
 297              		.loc 2 191 0
 298 00b4 074B     		ldr	r3, .L18
 299 00b6 AD22     		movs	r2, #173
 300 00b8 1A71     		strb	r2, [r3, #4]
 192:main_cm4.c    ****         serialFrame[5] = FRAME_TERMINATOR_1;
 301              		.loc 2 192 0
 302 00ba 064B     		ldr	r3, .L18
 303 00bc EA22     		movs	r2, #234
 304 00be 5A71     		strb	r2, [r3, #5]
 193:main_cm4.c    ****         serialFrame[6] = FRAME_TERMINATOR_2;
 305              		.loc 2 193 0
 306 00c0 044B     		ldr	r3, .L18
 307 00c2 DC22     		movs	r2, #220
 308 00c4 9A71     		strb	r2, [r3, #6]
 194:main_cm4.c    ****         break;
 309              		.loc 2 194 0
 310 00c6 00E0     		b	.L14
 311              	.L17:
 185:main_cm4.c    ****         
 312              		.loc 2 185 0
 313 00c8 00BF     		nop
 314              	.L14:
 195:main_cm4.c    ****   }
 196:main_cm4.c    **** 
 197:main_cm4.c    ****   return serialFrame;
 315              		.loc 2 197 0
 316 00ca 024B     		ldr	r3, .L18
 198:main_cm4.c    **** }
 317              		.loc 2 198 0
 318 00cc 1846     		mov	r0, r3
 319 00ce 1037     		adds	r7, r7, #16
 320              		.cfi_def_cfa_offset 8
 321 00d0 BD46     		mov	sp, r7
 322              		.cfi_def_cfa_register 13
 323              		@ sp needed
 324 00d2 80BD     		pop	{r7, pc}
 325              	.L19:
 326              		.align	2
 327              	.L18:
 328 00d4 0C000000 		.word	serialFrame.17363
 329 00d8 10000000 		.word	serialFrame.17363+4
 330              		.cfi_endproc
 331              	.LFE659:
 332              		.size	createSerialFrame, .-createSerialFrame
 333              		.section	.rodata
 334              		.align	2
ARM GAS  C:\Users\LOCALA~1\AppData\Local\Temp\ccJ6EDbl.s 			page 35


 335              	.LC1:
 336 0040 25303278 		.ascii	"%02x\000"
 336      00
 337              		.section	.text.sendFrame,"ax",%progbits
 338              		.align	2
 339              		.global	sendFrame
 340              		.thumb
 341              		.thumb_func
 342              		.type	sendFrame, %function
 343              	sendFrame:
 344              	.LFB660:
 199:main_cm4.c    **** 
 200:main_cm4.c    **** /* Function: sendFrame
 201:main_cm4.c    ****  * Param: uint8_t *pFrame - pointer to a buffer frame 
 202:main_cm4.c    ****  * Description: Sends the buffer frame untill the end terminators are detected
 203:main_cm4.c    ****  * Return type: void
 204:main_cm4.c    ****  */
 205:main_cm4.c    **** void sendFrame(uint8_t *pFrame)
 206:main_cm4.c    **** { 
 345              		.loc 2 206 0
 346              		.cfi_startproc
 347              		@ args = 0, pretend = 0, frame = 16
 348              		@ frame_needed = 1, uses_anonymous_args = 0
 349 0000 80B5     		push	{r7, lr}
 350              		.cfi_def_cfa_offset 8
 351              		.cfi_offset 7, -8
 352              		.cfi_offset 14, -4
 353 0002 84B0     		sub	sp, sp, #16
 354              		.cfi_def_cfa_offset 24
 355 0004 00AF     		add	r7, sp, #0
 356              		.cfi_def_cfa_register 7
 357 0006 7860     		str	r0, [r7, #4]
 207:main_cm4.c    ****   bool terminator_1 = FALSE;
 358              		.loc 2 207 0
 359 0008 0023     		movs	r3, #0
 360 000a FB73     		strb	r3, [r7, #15]
 208:main_cm4.c    ****   bool endOfFrame = FALSE;
 361              		.loc 2 208 0
 362 000c 0023     		movs	r3, #0
 363 000e BB73     		strb	r3, [r7, #14]
 209:main_cm4.c    ****   
 210:main_cm4.c    ****   while(!endOfFrame)
 364              		.loc 2 210 0
 365 0010 17E0     		b	.L21
 366              	.L24:
 211:main_cm4.c    ****   {
 212:main_cm4.c    **** 
 213:main_cm4.c    ****     
 214:main_cm4.c    ****     printf("%02x", *pFrame);
 367              		.loc 2 214 0
 368 0012 7B68     		ldr	r3, [r7, #4]
 369 0014 1B78     		ldrb	r3, [r3]	@ zero_extendqisi2
 370 0016 1946     		mov	r1, r3
 371 0018 1048     		ldr	r0, .L25
 372 001a FFF7FEFF 		bl	printf
 215:main_cm4.c    ****     
 216:main_cm4.c    ****     if(FRAME_TERMINATOR_1 == *pFrame)
ARM GAS  C:\Users\LOCALA~1\AppData\Local\Temp\ccJ6EDbl.s 			page 36


 373              		.loc 2 216 0
 374 001e 7B68     		ldr	r3, [r7, #4]
 375 0020 1B78     		ldrb	r3, [r3]	@ zero_extendqisi2
 376 0022 EA2B     		cmp	r3, #234
 377 0024 01D1     		bne	.L22
 217:main_cm4.c    ****     {
 218:main_cm4.c    ****       terminator_1 = TRUE;
 378              		.loc 2 218 0
 379 0026 0123     		movs	r3, #1
 380 0028 FB73     		strb	r3, [r7, #15]
 381              	.L22:
 219:main_cm4.c    ****     }
 220:main_cm4.c    **** 
 221:main_cm4.c    ****     if((TRUE == terminator_1) && (FRAME_TERMINATOR_2 == *pFrame))
 382              		.loc 2 221 0
 383 002a FB7B     		ldrb	r3, [r7, #15]	@ zero_extendqisi2
 384 002c 002B     		cmp	r3, #0
 385 002e 05D0     		beq	.L23
 386              		.loc 2 221 0 is_stmt 0 discriminator 1
 387 0030 7B68     		ldr	r3, [r7, #4]
 388 0032 1B78     		ldrb	r3, [r3]	@ zero_extendqisi2
 389 0034 DC2B     		cmp	r3, #220
 390 0036 01D1     		bne	.L23
 222:main_cm4.c    ****     {
 223:main_cm4.c    ****       endOfFrame = TRUE;
 391              		.loc 2 223 0 is_stmt 1
 392 0038 0123     		movs	r3, #1
 393 003a BB73     		strb	r3, [r7, #14]
 394              	.L23:
 224:main_cm4.c    ****     }
 225:main_cm4.c    ****    
 226:main_cm4.c    ****     pFrame++;
 395              		.loc 2 226 0
 396 003c 7B68     		ldr	r3, [r7, #4]
 397 003e 0133     		adds	r3, r3, #1
 398 0040 7B60     		str	r3, [r7, #4]
 399              	.L21:
 210:main_cm4.c    ****   {
 400              		.loc 2 210 0
 401 0042 BB7B     		ldrb	r3, [r7, #14]
 402 0044 83F00103 		eor	r3, r3, #1
 403 0048 DBB2     		uxtb	r3, r3
 404 004a 002B     		cmp	r3, #0
 405 004c E1D1     		bne	.L24
 227:main_cm4.c    **** 
 228:main_cm4.c    ****   }
 229:main_cm4.c    ****   printf("\n");
 406              		.loc 2 229 0
 407 004e 0A20     		movs	r0, #10
 408 0050 FFF7FEFF 		bl	putchar
 230:main_cm4.c    **** }
 409              		.loc 2 230 0
 410 0054 00BF     		nop
 411 0056 1037     		adds	r7, r7, #16
 412              		.cfi_def_cfa_offset 8
 413 0058 BD46     		mov	sp, r7
 414              		.cfi_def_cfa_register 13
ARM GAS  C:\Users\LOCALA~1\AppData\Local\Temp\ccJ6EDbl.s 			page 37


 415              		@ sp needed
 416 005a 80BD     		pop	{r7, pc}
 417              	.L26:
 418              		.align	2
 419              	.L25:
 420 005c 40000000 		.word	.LC1
 421              		.cfi_endproc
 422              	.LFE660:
 423              		.size	sendFrame, .-sendFrame
 424              		.section	.text.readChannel,"ax",%progbits
 425              		.align	2
 426              		.global	readChannel
 427              		.thumb
 428              		.thumb_func
 429              		.type	readChannel, %function
 430              	readChannel:
 431              	.LFB661:
 231:main_cm4.c    **** 
 232:main_cm4.c    **** 
 233:main_cm4.c    **** 
 234:main_cm4.c    **** 
 235:main_cm4.c    **** /* Function: readChannel
 236:main_cm4.c    ****  * Param: uint8_t channel - channel to be read
 237:main_cm4.c    ****  * Description: Read channel (not from FIFO buffer)
 238:main_cm4.c    ****  * Return type: uint32_t
 239:main_cm4.c    ****  */
 240:main_cm4.c    **** uint32_t readChannel(uint8_t channel)
 241:main_cm4.c    **** {
 432              		.loc 2 241 0
 433              		.cfi_startproc
 434              		@ args = 0, pretend = 0, frame = 16
 435              		@ frame_needed = 1, uses_anonymous_args = 0
 436 0000 80B5     		push	{r7, lr}
 437              		.cfi_def_cfa_offset 8
 438              		.cfi_offset 7, -8
 439              		.cfi_offset 14, -4
 440 0002 84B0     		sub	sp, sp, #16
 441              		.cfi_def_cfa_offset 24
 442 0004 00AF     		add	r7, sp, #0
 443              		.cfi_def_cfa_register 7
 444 0006 0346     		mov	r3, r0
 445 0008 FB71     		strb	r3, [r7, #7]
 242:main_cm4.c    ****   uint32_t channelValue;
 243:main_cm4.c    ****   if(RED_CHANNEL == channel)
 446              		.loc 2 243 0
 447 000a FB79     		ldrb	r3, [r7, #7]	@ zero_extendqisi2
 448 000c 002B     		cmp	r3, #0
 449 000e 03D1     		bne	.L28
 244:main_cm4.c    ****   {
 245:main_cm4.c    ****     channelValue = MAX30105_GetRed();
 450              		.loc 2 245 0
 451 0010 FFF7FEFF 		bl	MAX30105_GetRed
 452 0014 F860     		str	r0, [r7, #12]
 453 0016 0FE0     		b	.L29
 454              	.L28:
 246:main_cm4.c    ****   }
 247:main_cm4.c    ****   else if(GREEN_CHANNEL == channel)
ARM GAS  C:\Users\LOCALA~1\AppData\Local\Temp\ccJ6EDbl.s 			page 38


 455              		.loc 2 247 0
 456 0018 FB79     		ldrb	r3, [r7, #7]	@ zero_extendqisi2
 457 001a 012B     		cmp	r3, #1
 458 001c 03D1     		bne	.L30
 248:main_cm4.c    ****   {
 249:main_cm4.c    ****     channelValue = MAX30105_GetGreen();
 459              		.loc 2 249 0
 460 001e FFF7FEFF 		bl	MAX30105_GetGreen
 461 0022 F860     		str	r0, [r7, #12]
 462 0024 08E0     		b	.L29
 463              	.L30:
 250:main_cm4.c    ****   }
 251:main_cm4.c    ****   else if(IR_CHANNEL == channel)
 464              		.loc 2 251 0
 465 0026 FB79     		ldrb	r3, [r7, #7]	@ zero_extendqisi2
 466 0028 022B     		cmp	r3, #2
 467 002a 03D1     		bne	.L31
 252:main_cm4.c    ****   {
 253:main_cm4.c    ****     channelValue = MAX30105_GetIR();
 468              		.loc 2 253 0
 469 002c FFF7FEFF 		bl	MAX30105_GetIR
 470 0030 F860     		str	r0, [r7, #12]
 471 0032 01E0     		b	.L29
 472              	.L31:
 254:main_cm4.c    ****   }
 255:main_cm4.c    ****   else
 256:main_cm4.c    ****   {
 257:main_cm4.c    ****     channelValue = 0;
 473              		.loc 2 257 0
 474 0034 0023     		movs	r3, #0
 475 0036 FB60     		str	r3, [r7, #12]
 476              	.L29:
 258:main_cm4.c    ****   }
 259:main_cm4.c    ****   
 260:main_cm4.c    ****   return channelValue;
 477              		.loc 2 260 0
 478 0038 FB68     		ldr	r3, [r7, #12]
 261:main_cm4.c    **** }
 479              		.loc 2 261 0
 480 003a 1846     		mov	r0, r3
 481 003c 1037     		adds	r7, r7, #16
 482              		.cfi_def_cfa_offset 8
 483 003e BD46     		mov	sp, r7
 484              		.cfi_def_cfa_register 13
 485              		@ sp needed
 486 0040 80BD     		pop	{r7, pc}
 487              		.cfi_endproc
 488              	.LFE661:
 489              		.size	readChannel, .-readChannel
 490 0042 00BF     		.section	.text.readChannels,"ax",%progbits
 491              		.align	2
 492              		.global	readChannels
 493              		.thumb
 494              		.thumb_func
 495              		.type	readChannels, %function
 496              	readChannels:
 497              	.LFB662:
ARM GAS  C:\Users\LOCALA~1\AppData\Local\Temp\ccJ6EDbl.s 			page 39


 262:main_cm4.c    **** 
 263:main_cm4.c    **** /* Function: readChannels
 264:main_cm4.c    ****  * Param: uint32_t *channelsBuffer - output buffer where the channels are stored
 265:main_cm4.c    ****  *        bool readFIFO - read from FIFO buffer or not
 266:main_cm4.c    ****  * Description: Read IR, RED and GREEN channels
 267:main_cm4.c    ****  * Return type: bool
 268:main_cm4.c    ****  */
 269:main_cm4.c    **** bool readChannels(uint16_t *channelsBuffer, bool readFIFO)
 270:main_cm4.c    **** {
 498              		.loc 2 270 0
 499              		.cfi_startproc
 500              		@ args = 0, pretend = 0, frame = 16
 501              		@ frame_needed = 1, uses_anonymous_args = 0
 502 0000 90B5     		push	{r4, r7, lr}
 503              		.cfi_def_cfa_offset 12
 504              		.cfi_offset 4, -12
 505              		.cfi_offset 7, -8
 506              		.cfi_offset 14, -4
 507 0002 85B0     		sub	sp, sp, #20
 508              		.cfi_def_cfa_offset 32
 509 0004 00AF     		add	r7, sp, #0
 510              		.cfi_def_cfa_register 7
 511 0006 7860     		str	r0, [r7, #4]
 512 0008 0B46     		mov	r3, r1
 513 000a FB70     		strb	r3, [r7, #3]
 271:main_cm4.c    ****   bool bIsTissuePresent = TRUE;
 514              		.loc 2 271 0
 515 000c 0123     		movs	r3, #1
 516 000e FB73     		strb	r3, [r7, #15]
 272:main_cm4.c    ****   if(READ_FROM_FIFO_BUFFER != readFIFO)
 517              		.loc 2 272 0
 518 0010 FB78     		ldrb	r3, [r7, #3]
 519 0012 83F00103 		eor	r3, r3, #1
 520 0016 DBB2     		uxtb	r3, r3
 521 0018 002B     		cmp	r3, #0
 522 001a 1DD0     		beq	.L34
 273:main_cm4.c    ****   {
 274:main_cm4.c    ****     *(channelsBuffer + RED_CHANNEL) = (uint16_t) MAX30105_GetRed();
 523              		.loc 2 274 0
 524 001c FFF7FEFF 		bl	MAX30105_GetRed
 525 0020 0346     		mov	r3, r0
 526 0022 9AB2     		uxth	r2, r3
 527 0024 7B68     		ldr	r3, [r7, #4]
 528 0026 1A80     		strh	r2, [r3]	@ movhi
 275:main_cm4.c    ****     *(channelsBuffer + GREEN_CHANNEL) = (uint16_t) MAX30105_GetGreen();
 529              		.loc 2 275 0
 530 0028 7B68     		ldr	r3, [r7, #4]
 531 002a 9C1C     		adds	r4, r3, #2
 532 002c FFF7FEFF 		bl	MAX30105_GetGreen
 533 0030 0346     		mov	r3, r0
 534 0032 9BB2     		uxth	r3, r3
 535 0034 2380     		strh	r3, [r4]	@ movhi
 276:main_cm4.c    ****     *(channelsBuffer + IR_CHANNEL) = (uint16_t) MAX30105_GetIR();
 536              		.loc 2 276 0
 537 0036 7B68     		ldr	r3, [r7, #4]
 538 0038 1C1D     		adds	r4, r3, #4
 539 003a FFF7FEFF 		bl	MAX30105_GetIR
ARM GAS  C:\Users\LOCALA~1\AppData\Local\Temp\ccJ6EDbl.s 			page 40


 540 003e 0346     		mov	r3, r0
 541 0040 9BB2     		uxth	r3, r3
 542 0042 2380     		strh	r3, [r4]	@ movhi
 277:main_cm4.c    ****     if (*(channelsBuffer + IR_CHANNEL) < NO_FINGER_THRESHOLD)
 543              		.loc 2 277 0
 544 0044 7B68     		ldr	r3, [r7, #4]
 545 0046 0433     		adds	r3, r3, #4
 546 0048 1B88     		ldrh	r3, [r3]
 547 004a 4CF24F32 		movw	r2, #49999
 548 004e 9342     		cmp	r3, r2
 549 0050 44D8     		bhi	.L36
 278:main_cm4.c    ****     {
 279:main_cm4.c    ****       bIsTissuePresent = FALSE;
 550              		.loc 2 279 0
 551 0052 0023     		movs	r3, #0
 552 0054 FB73     		strb	r3, [r7, #15]
 553 0056 41E0     		b	.L36
 554              	.L34:
 280:main_cm4.c    ****     }
 281:main_cm4.c    ****   }
 282:main_cm4.c    ****   else
 283:main_cm4.c    ****   {
 284:main_cm4.c    ****     MAX30105_Check();
 555              		.loc 2 284 0
 556 0058 FFF7FEFF 		bl	MAX30105_Check
 285:main_cm4.c    ****  
 286:main_cm4.c    ****     while(MAX30105_Available())
 557              		.loc 2 286 0
 558 005c 37E0     		b	.L37
 559              	.L39:
 287:main_cm4.c    ****       {
 288:main_cm4.c    ****         *(channelsBuffer + ((RED_CHANNEL * FIFO_NUMBER_OF_SAMPLES) + samplesTaken)) = (uint16_t) MA
 560              		.loc 2 288 0
 561 005e 224B     		ldr	r3, .L42
 562 0060 1B68     		ldr	r3, [r3]
 563 0062 5B00     		lsls	r3, r3, #1
 564 0064 7A68     		ldr	r2, [r7, #4]
 565 0066 D418     		adds	r4, r2, r3
 566 0068 FFF7FEFF 		bl	MAX30105_GetFIFORed
 567 006c 0346     		mov	r3, r0
 568 006e 9BB2     		uxth	r3, r3
 569 0070 2380     		strh	r3, [r4]	@ movhi
 289:main_cm4.c    ****         *(channelsBuffer + ((GREEN_CHANNEL * FIFO_NUMBER_OF_SAMPLES) + samplesTaken)) = (uint16_t) 
 570              		.loc 2 289 0
 571 0072 1D4B     		ldr	r3, .L42
 572 0074 1B68     		ldr	r3, [r3]
 573 0076 6433     		adds	r3, r3, #100
 574 0078 5B00     		lsls	r3, r3, #1
 575 007a 7A68     		ldr	r2, [r7, #4]
 576 007c D418     		adds	r4, r2, r3
 577 007e FFF7FEFF 		bl	MAX30105_GetFIFOGreen
 578 0082 0346     		mov	r3, r0
 579 0084 9BB2     		uxth	r3, r3
 580 0086 2380     		strh	r3, [r4]	@ movhi
 290:main_cm4.c    ****         *(channelsBuffer + ((IR_CHANNEL * FIFO_NUMBER_OF_SAMPLES) + samplesTaken)) = (uint16_t) MAX
 581              		.loc 2 290 0
 582 0088 174B     		ldr	r3, .L42
ARM GAS  C:\Users\LOCALA~1\AppData\Local\Temp\ccJ6EDbl.s 			page 41


 583 008a 1B68     		ldr	r3, [r3]
 584 008c C833     		adds	r3, r3, #200
 585 008e 5B00     		lsls	r3, r3, #1
 586 0090 7A68     		ldr	r2, [r7, #4]
 587 0092 D418     		adds	r4, r2, r3
 588 0094 FFF7FEFF 		bl	MAX30105_GetFIFOIR
 589 0098 0346     		mov	r3, r0
 590 009a 9BB2     		uxth	r3, r3
 591 009c 2380     		strh	r3, [r4]	@ movhi
 291:main_cm4.c    ****         if (*(channelsBuffer + ((IR_CHANNEL * FIFO_NUMBER_OF_SAMPLES) + samplesTaken)) < NO_FINGER_
 592              		.loc 2 291 0
 593 009e 124B     		ldr	r3, .L42
 594 00a0 1B68     		ldr	r3, [r3]
 595 00a2 C833     		adds	r3, r3, #200
 596 00a4 5B00     		lsls	r3, r3, #1
 597 00a6 7A68     		ldr	r2, [r7, #4]
 598 00a8 1344     		add	r3, r3, r2
 599 00aa 1B88     		ldrh	r3, [r3]
 600 00ac 4CF24F32 		movw	r2, #49999
 601 00b0 9342     		cmp	r3, r2
 602 00b2 01D8     		bhi	.L38
 292:main_cm4.c    ****         {
 293:main_cm4.c    ****             bIsTissuePresent = FALSE;
 603              		.loc 2 293 0
 604 00b4 0023     		movs	r3, #0
 605 00b6 FB73     		strb	r3, [r7, #15]
 606              	.L38:
 294:main_cm4.c    ****         }
 295:main_cm4.c    ****         MAX30105_NextSample();
 607              		.loc 2 295 0
 608 00b8 FFF7FEFF 		bl	MAX30105_NextSample
 296:main_cm4.c    **** 
 297:main_cm4.c    ****         samplesTaken++;
 609              		.loc 2 297 0
 610 00bc 0A4B     		ldr	r3, .L42
 611 00be 1B68     		ldr	r3, [r3]
 612 00c0 0133     		adds	r3, r3, #1
 613 00c2 094A     		ldr	r2, .L42
 614 00c4 1360     		str	r3, [r2]
 298:main_cm4.c    ****         
 299:main_cm4.c    ****         if (FIFO_NUMBER_OF_SAMPLES == samplesTaken)
 615              		.loc 2 299 0
 616 00c6 084B     		ldr	r3, .L42
 617 00c8 1B68     		ldr	r3, [r3]
 618 00ca 642B     		cmp	r3, #100
 619 00cc 05D0     		beq	.L41
 620              	.L37:
 286:main_cm4.c    ****       {
 621              		.loc 2 286 0
 622 00ce FFF7FEFF 		bl	MAX30105_Available
 623 00d2 0346     		mov	r3, r0
 624 00d4 002B     		cmp	r3, #0
 625 00d6 C2D1     		bne	.L39
 626 00d8 00E0     		b	.L36
 627              	.L41:
 300:main_cm4.c    ****         {
 301:main_cm4.c    ****           break;
ARM GAS  C:\Users\LOCALA~1\AppData\Local\Temp\ccJ6EDbl.s 			page 42


 628              		.loc 2 301 0
 629 00da 00BF     		nop
 630              	.L36:
 302:main_cm4.c    ****         }
 303:main_cm4.c    ****       }
 304:main_cm4.c    ****   }
 305:main_cm4.c    ****   return bIsTissuePresent;
 631              		.loc 2 305 0
 632 00dc FB7B     		ldrb	r3, [r7, #15]	@ zero_extendqisi2
 306:main_cm4.c    **** }
 633              		.loc 2 306 0
 634 00de 1846     		mov	r0, r3
 635 00e0 1437     		adds	r7, r7, #20
 636              		.cfi_def_cfa_offset 12
 637 00e2 BD46     		mov	sp, r7
 638              		.cfi_def_cfa_register 13
 639              		@ sp needed
 640 00e4 90BD     		pop	{r4, r7, pc}
 641              	.L43:
 642 00e6 00BF     		.align	2
 643              	.L42:
 644 00e8 00000000 		.word	samplesTaken
 645              		.cfi_endproc
 646              	.LFE662:
 647              		.size	readChannels, .-readChannels
 648              		.section	.text.main,"ax",%progbits
 649              		.align	2
 650              		.global	main
 651              		.thumb
 652              		.thumb_func
 653              		.type	main, %function
 654              	main:
 655              	.LFB663:
 307:main_cm4.c    **** 
 308:main_cm4.c    **** int main(void)
 309:main_cm4.c    **** {
 656              		.loc 2 309 0
 657              		.cfi_startproc
 658              		@ args = 0, pretend = 0, frame = 8
 659              		@ frame_needed = 1, uses_anonymous_args = 0
 660 0000 80B5     		push	{r7, lr}
 661              		.cfi_def_cfa_offset 8
 662              		.cfi_offset 7, -8
 663              		.cfi_offset 14, -4
 664 0002 84B0     		sub	sp, sp, #16
 665              		.cfi_def_cfa_offset 24
 666 0004 02AF     		add	r7, sp, #8
 667              		.cfi_def_cfa 7, 16
 310:main_cm4.c    ****     MILLIS_AssignISR();
 668              		.loc 2 310 0
 669 0006 FFF7FEFF 		bl	MILLIS_AssignISR
 670              	.LBB9:
 671              	.LBB10:
 672              		.file 3 "Generated_Source\\PSoC6\\pdl\\cmsis/include/cmsis_gcc.h"
   1:Generated_Source\PSoC6\pdl\cmsis/include/cmsis_gcc.h **** /**************************************************************************//**
   2:Generated_Source\PSoC6\pdl\cmsis/include/cmsis_gcc.h ****  * @file     cmsis_gcc.h
   3:Generated_Source\PSoC6\pdl\cmsis/include/cmsis_gcc.h ****  * @brief    CMSIS compiler GCC header file
ARM GAS  C:\Users\LOCALA~1\AppData\Local\Temp\ccJ6EDbl.s 			page 43


   4:Generated_Source\PSoC6\pdl\cmsis/include/cmsis_gcc.h ****  * @version  V5.0.3
   5:Generated_Source\PSoC6\pdl\cmsis/include/cmsis_gcc.h ****  * @date     16. January 2018
   6:Generated_Source\PSoC6\pdl\cmsis/include/cmsis_gcc.h ****  ******************************************************************************/
   7:Generated_Source\PSoC6\pdl\cmsis/include/cmsis_gcc.h **** /*
   8:Generated_Source\PSoC6\pdl\cmsis/include/cmsis_gcc.h ****  * Copyright (c) 2009-2017 ARM Limited. All rights reserved.
   9:Generated_Source\PSoC6\pdl\cmsis/include/cmsis_gcc.h ****  *
  10:Generated_Source\PSoC6\pdl\cmsis/include/cmsis_gcc.h ****  * SPDX-License-Identifier: Apache-2.0
  11:Generated_Source\PSoC6\pdl\cmsis/include/cmsis_gcc.h ****  *
  12:Generated_Source\PSoC6\pdl\cmsis/include/cmsis_gcc.h ****  * Licensed under the Apache License, Version 2.0 (the License); you may
  13:Generated_Source\PSoC6\pdl\cmsis/include/cmsis_gcc.h ****  * not use this file except in compliance with the License.
  14:Generated_Source\PSoC6\pdl\cmsis/include/cmsis_gcc.h ****  * You may obtain a copy of the License at
  15:Generated_Source\PSoC6\pdl\cmsis/include/cmsis_gcc.h ****  *
  16:Generated_Source\PSoC6\pdl\cmsis/include/cmsis_gcc.h ****  * www.apache.org/licenses/LICENSE-2.0
  17:Generated_Source\PSoC6\pdl\cmsis/include/cmsis_gcc.h ****  *
  18:Generated_Source\PSoC6\pdl\cmsis/include/cmsis_gcc.h ****  * Unless required by applicable law or agreed to in writing, software
  19:Generated_Source\PSoC6\pdl\cmsis/include/cmsis_gcc.h ****  * distributed under the License is distributed on an AS IS BASIS, WITHOUT
  20:Generated_Source\PSoC6\pdl\cmsis/include/cmsis_gcc.h ****  * WARRANTIES OR CONDITIONS OF ANY KIND, either express or implied.
  21:Generated_Source\PSoC6\pdl\cmsis/include/cmsis_gcc.h ****  * See the License for the specific language governing permissions and
  22:Generated_Source\PSoC6\pdl\cmsis/include/cmsis_gcc.h ****  * limitations under the License.
  23:Generated_Source\PSoC6\pdl\cmsis/include/cmsis_gcc.h ****  */
  24:Generated_Source\PSoC6\pdl\cmsis/include/cmsis_gcc.h **** 
  25:Generated_Source\PSoC6\pdl\cmsis/include/cmsis_gcc.h **** #ifndef __CMSIS_GCC_H
  26:Generated_Source\PSoC6\pdl\cmsis/include/cmsis_gcc.h **** #define __CMSIS_GCC_H
  27:Generated_Source\PSoC6\pdl\cmsis/include/cmsis_gcc.h **** 
  28:Generated_Source\PSoC6\pdl\cmsis/include/cmsis_gcc.h **** /* ignore some GCC warnings */
  29:Generated_Source\PSoC6\pdl\cmsis/include/cmsis_gcc.h **** #pragma GCC diagnostic push
  30:Generated_Source\PSoC6\pdl\cmsis/include/cmsis_gcc.h **** #pragma GCC diagnostic ignored "-Wsign-conversion"
  31:Generated_Source\PSoC6\pdl\cmsis/include/cmsis_gcc.h **** #pragma GCC diagnostic ignored "-Wconversion"
  32:Generated_Source\PSoC6\pdl\cmsis/include/cmsis_gcc.h **** #pragma GCC diagnostic ignored "-Wunused-parameter"
  33:Generated_Source\PSoC6\pdl\cmsis/include/cmsis_gcc.h **** 
  34:Generated_Source\PSoC6\pdl\cmsis/include/cmsis_gcc.h **** /* Fallback for __has_builtin */
  35:Generated_Source\PSoC6\pdl\cmsis/include/cmsis_gcc.h **** #ifndef __has_builtin
  36:Generated_Source\PSoC6\pdl\cmsis/include/cmsis_gcc.h ****   #define __has_builtin(x) (0)
  37:Generated_Source\PSoC6\pdl\cmsis/include/cmsis_gcc.h **** #endif
  38:Generated_Source\PSoC6\pdl\cmsis/include/cmsis_gcc.h **** 
  39:Generated_Source\PSoC6\pdl\cmsis/include/cmsis_gcc.h **** /* CMSIS compiler specific defines */
  40:Generated_Source\PSoC6\pdl\cmsis/include/cmsis_gcc.h **** #ifndef   __ASM
  41:Generated_Source\PSoC6\pdl\cmsis/include/cmsis_gcc.h ****   #define __ASM                                  __asm
  42:Generated_Source\PSoC6\pdl\cmsis/include/cmsis_gcc.h **** #endif
  43:Generated_Source\PSoC6\pdl\cmsis/include/cmsis_gcc.h **** #ifndef   __INLINE
  44:Generated_Source\PSoC6\pdl\cmsis/include/cmsis_gcc.h ****   #define __INLINE                               inline
  45:Generated_Source\PSoC6\pdl\cmsis/include/cmsis_gcc.h **** #endif
  46:Generated_Source\PSoC6\pdl\cmsis/include/cmsis_gcc.h **** #ifndef   __STATIC_INLINE
  47:Generated_Source\PSoC6\pdl\cmsis/include/cmsis_gcc.h ****   #define __STATIC_INLINE                        static inline
  48:Generated_Source\PSoC6\pdl\cmsis/include/cmsis_gcc.h **** #endif
  49:Generated_Source\PSoC6\pdl\cmsis/include/cmsis_gcc.h **** #ifndef   __STATIC_FORCEINLINE                 
  50:Generated_Source\PSoC6\pdl\cmsis/include/cmsis_gcc.h ****   #define __STATIC_FORCEINLINE                   __attribute__((always_inline)) static inline
  51:Generated_Source\PSoC6\pdl\cmsis/include/cmsis_gcc.h **** #endif                                           
  52:Generated_Source\PSoC6\pdl\cmsis/include/cmsis_gcc.h **** #ifndef   __NO_RETURN
  53:Generated_Source\PSoC6\pdl\cmsis/include/cmsis_gcc.h ****   #define __NO_RETURN                            __attribute__((__noreturn__))
  54:Generated_Source\PSoC6\pdl\cmsis/include/cmsis_gcc.h **** #endif
  55:Generated_Source\PSoC6\pdl\cmsis/include/cmsis_gcc.h **** #ifndef   __USED
  56:Generated_Source\PSoC6\pdl\cmsis/include/cmsis_gcc.h ****   #define __USED                                 __attribute__((used))
  57:Generated_Source\PSoC6\pdl\cmsis/include/cmsis_gcc.h **** #endif
  58:Generated_Source\PSoC6\pdl\cmsis/include/cmsis_gcc.h **** #ifndef   __WEAK
  59:Generated_Source\PSoC6\pdl\cmsis/include/cmsis_gcc.h ****   #define __WEAK                                 __attribute__((weak))
  60:Generated_Source\PSoC6\pdl\cmsis/include/cmsis_gcc.h **** #endif
ARM GAS  C:\Users\LOCALA~1\AppData\Local\Temp\ccJ6EDbl.s 			page 44


  61:Generated_Source\PSoC6\pdl\cmsis/include/cmsis_gcc.h **** #ifndef   __PACKED
  62:Generated_Source\PSoC6\pdl\cmsis/include/cmsis_gcc.h ****   #define __PACKED                               __attribute__((packed, aligned(1)))
  63:Generated_Source\PSoC6\pdl\cmsis/include/cmsis_gcc.h **** #endif
  64:Generated_Source\PSoC6\pdl\cmsis/include/cmsis_gcc.h **** #ifndef   __PACKED_STRUCT
  65:Generated_Source\PSoC6\pdl\cmsis/include/cmsis_gcc.h ****   #define __PACKED_STRUCT                        struct __attribute__((packed, aligned(1)))
  66:Generated_Source\PSoC6\pdl\cmsis/include/cmsis_gcc.h **** #endif
  67:Generated_Source\PSoC6\pdl\cmsis/include/cmsis_gcc.h **** #ifndef   __PACKED_UNION
  68:Generated_Source\PSoC6\pdl\cmsis/include/cmsis_gcc.h ****   #define __PACKED_UNION                         union __attribute__((packed, aligned(1)))
  69:Generated_Source\PSoC6\pdl\cmsis/include/cmsis_gcc.h **** #endif
  70:Generated_Source\PSoC6\pdl\cmsis/include/cmsis_gcc.h **** #ifndef   __UNALIGNED_UINT32        /* deprecated */
  71:Generated_Source\PSoC6\pdl\cmsis/include/cmsis_gcc.h ****   #pragma GCC diagnostic push
  72:Generated_Source\PSoC6\pdl\cmsis/include/cmsis_gcc.h ****   #pragma GCC diagnostic ignored "-Wpacked"
  73:Generated_Source\PSoC6\pdl\cmsis/include/cmsis_gcc.h ****   #pragma GCC diagnostic ignored "-Wattributes"
  74:Generated_Source\PSoC6\pdl\cmsis/include/cmsis_gcc.h ****   struct __attribute__((packed)) T_UINT32 { uint32_t v; };
  75:Generated_Source\PSoC6\pdl\cmsis/include/cmsis_gcc.h ****   #pragma GCC diagnostic pop
  76:Generated_Source\PSoC6\pdl\cmsis/include/cmsis_gcc.h ****   #define __UNALIGNED_UINT32(x)                  (((struct T_UINT32 *)(x))->v)
  77:Generated_Source\PSoC6\pdl\cmsis/include/cmsis_gcc.h **** #endif
  78:Generated_Source\PSoC6\pdl\cmsis/include/cmsis_gcc.h **** #ifndef   __UNALIGNED_UINT16_WRITE
  79:Generated_Source\PSoC6\pdl\cmsis/include/cmsis_gcc.h ****   #pragma GCC diagnostic push
  80:Generated_Source\PSoC6\pdl\cmsis/include/cmsis_gcc.h ****   #pragma GCC diagnostic ignored "-Wpacked"
  81:Generated_Source\PSoC6\pdl\cmsis/include/cmsis_gcc.h ****   #pragma GCC diagnostic ignored "-Wattributes"
  82:Generated_Source\PSoC6\pdl\cmsis/include/cmsis_gcc.h ****   __PACKED_STRUCT T_UINT16_WRITE { uint16_t v; };
  83:Generated_Source\PSoC6\pdl\cmsis/include/cmsis_gcc.h ****   #pragma GCC diagnostic pop
  84:Generated_Source\PSoC6\pdl\cmsis/include/cmsis_gcc.h ****   #define __UNALIGNED_UINT16_WRITE(addr, val)    (void)((((struct T_UINT16_WRITE *)(void *)(addr))-
  85:Generated_Source\PSoC6\pdl\cmsis/include/cmsis_gcc.h **** #endif
  86:Generated_Source\PSoC6\pdl\cmsis/include/cmsis_gcc.h **** #ifndef   __UNALIGNED_UINT16_READ
  87:Generated_Source\PSoC6\pdl\cmsis/include/cmsis_gcc.h ****   #pragma GCC diagnostic push
  88:Generated_Source\PSoC6\pdl\cmsis/include/cmsis_gcc.h ****   #pragma GCC diagnostic ignored "-Wpacked"
  89:Generated_Source\PSoC6\pdl\cmsis/include/cmsis_gcc.h ****   #pragma GCC diagnostic ignored "-Wattributes"
  90:Generated_Source\PSoC6\pdl\cmsis/include/cmsis_gcc.h ****   __PACKED_STRUCT T_UINT16_READ { uint16_t v; };
  91:Generated_Source\PSoC6\pdl\cmsis/include/cmsis_gcc.h ****   #pragma GCC diagnostic pop
  92:Generated_Source\PSoC6\pdl\cmsis/include/cmsis_gcc.h ****   #define __UNALIGNED_UINT16_READ(addr)          (((const struct T_UINT16_READ *)(const void *)(add
  93:Generated_Source\PSoC6\pdl\cmsis/include/cmsis_gcc.h **** #endif
  94:Generated_Source\PSoC6\pdl\cmsis/include/cmsis_gcc.h **** #ifndef   __UNALIGNED_UINT32_WRITE
  95:Generated_Source\PSoC6\pdl\cmsis/include/cmsis_gcc.h ****   #pragma GCC diagnostic push
  96:Generated_Source\PSoC6\pdl\cmsis/include/cmsis_gcc.h ****   #pragma GCC diagnostic ignored "-Wpacked"
  97:Generated_Source\PSoC6\pdl\cmsis/include/cmsis_gcc.h ****   #pragma GCC diagnostic ignored "-Wattributes"
  98:Generated_Source\PSoC6\pdl\cmsis/include/cmsis_gcc.h ****   __PACKED_STRUCT T_UINT32_WRITE { uint32_t v; };
  99:Generated_Source\PSoC6\pdl\cmsis/include/cmsis_gcc.h ****   #pragma GCC diagnostic pop
 100:Generated_Source\PSoC6\pdl\cmsis/include/cmsis_gcc.h ****   #define __UNALIGNED_UINT32_WRITE(addr, val)    (void)((((struct T_UINT32_WRITE *)(void *)(addr))-
 101:Generated_Source\PSoC6\pdl\cmsis/include/cmsis_gcc.h **** #endif
 102:Generated_Source\PSoC6\pdl\cmsis/include/cmsis_gcc.h **** #ifndef   __UNALIGNED_UINT32_READ
 103:Generated_Source\PSoC6\pdl\cmsis/include/cmsis_gcc.h ****   #pragma GCC diagnostic push
 104:Generated_Source\PSoC6\pdl\cmsis/include/cmsis_gcc.h ****   #pragma GCC diagnostic ignored "-Wpacked"
 105:Generated_Source\PSoC6\pdl\cmsis/include/cmsis_gcc.h ****   #pragma GCC diagnostic ignored "-Wattributes"
 106:Generated_Source\PSoC6\pdl\cmsis/include/cmsis_gcc.h ****   __PACKED_STRUCT T_UINT32_READ { uint32_t v; };
 107:Generated_Source\PSoC6\pdl\cmsis/include/cmsis_gcc.h ****   #pragma GCC diagnostic pop
 108:Generated_Source\PSoC6\pdl\cmsis/include/cmsis_gcc.h ****   #define __UNALIGNED_UINT32_READ(addr)          (((const struct T_UINT32_READ *)(const void *)(add
 109:Generated_Source\PSoC6\pdl\cmsis/include/cmsis_gcc.h **** #endif
 110:Generated_Source\PSoC6\pdl\cmsis/include/cmsis_gcc.h **** #ifndef   __ALIGNED
 111:Generated_Source\PSoC6\pdl\cmsis/include/cmsis_gcc.h ****   #define __ALIGNED(x)                           __attribute__((aligned(x)))
 112:Generated_Source\PSoC6\pdl\cmsis/include/cmsis_gcc.h **** #endif
 113:Generated_Source\PSoC6\pdl\cmsis/include/cmsis_gcc.h **** #ifndef   __RESTRICT
 114:Generated_Source\PSoC6\pdl\cmsis/include/cmsis_gcc.h ****   #define __RESTRICT                             __restrict
 115:Generated_Source\PSoC6\pdl\cmsis/include/cmsis_gcc.h **** #endif
 116:Generated_Source\PSoC6\pdl\cmsis/include/cmsis_gcc.h **** 
 117:Generated_Source\PSoC6\pdl\cmsis/include/cmsis_gcc.h **** 
ARM GAS  C:\Users\LOCALA~1\AppData\Local\Temp\ccJ6EDbl.s 			page 45


 118:Generated_Source\PSoC6\pdl\cmsis/include/cmsis_gcc.h **** /* ###########################  Core Function Access  ########################### */
 119:Generated_Source\PSoC6\pdl\cmsis/include/cmsis_gcc.h **** /** \ingroup  CMSIS_Core_FunctionInterface
 120:Generated_Source\PSoC6\pdl\cmsis/include/cmsis_gcc.h ****     \defgroup CMSIS_Core_RegAccFunctions CMSIS Core Register Access Functions
 121:Generated_Source\PSoC6\pdl\cmsis/include/cmsis_gcc.h ****   @{
 122:Generated_Source\PSoC6\pdl\cmsis/include/cmsis_gcc.h ****  */
 123:Generated_Source\PSoC6\pdl\cmsis/include/cmsis_gcc.h **** 
 124:Generated_Source\PSoC6\pdl\cmsis/include/cmsis_gcc.h **** /**
 125:Generated_Source\PSoC6\pdl\cmsis/include/cmsis_gcc.h ****   \brief   Enable IRQ Interrupts
 126:Generated_Source\PSoC6\pdl\cmsis/include/cmsis_gcc.h ****   \details Enables IRQ interrupts by clearing the I-bit in the CPSR.
 127:Generated_Source\PSoC6\pdl\cmsis/include/cmsis_gcc.h ****            Can only be executed in Privileged modes.
 128:Generated_Source\PSoC6\pdl\cmsis/include/cmsis_gcc.h ****  */
 129:Generated_Source\PSoC6\pdl\cmsis/include/cmsis_gcc.h **** __STATIC_FORCEINLINE void __enable_irq(void)
 130:Generated_Source\PSoC6\pdl\cmsis/include/cmsis_gcc.h **** {
 131:Generated_Source\PSoC6\pdl\cmsis/include/cmsis_gcc.h ****   __ASM volatile ("cpsie i" : : : "memory");
 673              		.loc 3 131 0
 674              		.syntax unified
 675              	@ 131 "Generated_Source\PSoC6\pdl\cmsis/include/cmsis_gcc.h" 1
 676 000a 62B6     		cpsie i
 677              	@ 0 "" 2
 678              		.thumb
 679              		.syntax unified
 680              	.LBE10:
 681              	.LBE9:
 311:main_cm4.c    ****     
 312:main_cm4.c    ****     
 313:main_cm4.c    ****     __enable_irq(); /* Enable global interrupts. */
 314:main_cm4.c    ****     
 315:main_cm4.c    ****      
 316:main_cm4.c    ****    
 317:main_cm4.c    ****     MILLIS_InitAndStartTimer();
 682              		.loc 2 317 0
 683 000c FFF7FEFF 		bl	MILLIS_InitAndStartTimer
 318:main_cm4.c    ****     
 319:main_cm4.c    ****     
 320:main_cm4.c    ****     /* UART initialization status */
 321:main_cm4.c    ****     cy_en_scb_uart_status_t uart_status ;
 322:main_cm4.c    ****     
 323:main_cm4.c    ****      /* Initialize UART operation. Config and Context structure is copied from Generated source. */
 324:main_cm4.c    ****     uart_status  = Cy_SCB_UART_Init(Uart_Printf_HW, &Uart_Printf_config, &Uart_Printf_context);
 684              		.loc 2 324 0
 685 0010 814A     		ldr	r2, .L60
 686 0012 8249     		ldr	r1, .L60+4
 687 0014 8248     		ldr	r0, .L60+8
 688 0016 FFF7FEFF 		bl	Cy_SCB_UART_Init
 689 001a 3860     		str	r0, [r7]
 325:main_cm4.c    ****     if(uart_status != CY_SCB_UART_SUCCESS)
 690              		.loc 2 325 0
 691 001c 3B68     		ldr	r3, [r7]
 692 001e 002B     		cmp	r3, #0
 693 0020 01D0     		beq	.L45
 326:main_cm4.c    ****     {
 327:main_cm4.c    ****         HandleError();
 694              		.loc 2 327 0
 695 0022 FFF7FEFF 		bl	HandleError
 696              	.L45:
 328:main_cm4.c    ****     }	
 329:main_cm4.c    ****     
ARM GAS  C:\Users\LOCALA~1\AppData\Local\Temp\ccJ6EDbl.s 			page 46


 330:main_cm4.c    ****     Cy_SCB_UART_Enable(Uart_Printf_HW);
 697              		.loc 2 330 0
 698 0026 7E48     		ldr	r0, .L60+8
 699 0028 FFF7FEFF 		bl	Cy_SCB_UART_Enable
 331:main_cm4.c    ****     
 332:main_cm4.c    **** 
 333:main_cm4.c    ****     MAX30105_Setup(CFG_LED_BRIGHTNESS, CFG_SAMPLE_AVERAGE, CFG_LED_MODE, CFG_SAMPLE_RATE, CFG_PULSE
 700              		.loc 2 333 0
 701 002c 4FF48043 		mov	r3, #16384
 702 0030 0193     		str	r3, [sp, #4]
 703 0032 40F29B13 		movw	r3, #411
 704 0036 0093     		str	r3, [sp]
 705 0038 C823     		movs	r3, #200
 706 003a 0222     		movs	r2, #2
 707 003c 0821     		movs	r1, #8
 708 003e 3C20     		movs	r0, #60
 709 0040 FFF7FEFF 		bl	MAX30105_Setup
 334:main_cm4.c    ****     
 335:main_cm4.c    ****     
 336:main_cm4.c    ****     gTissueDetected = readChannels(&FIFO_Buffer[0], TRUE);
 710              		.loc 2 336 0
 711 0044 0121     		movs	r1, #1
 712 0046 7748     		ldr	r0, .L60+12
 713 0048 FFF7FEFF 		bl	readChannels
 714 004c 0346     		mov	r3, r0
 715 004e 1A46     		mov	r2, r3
 716 0050 754B     		ldr	r3, .L60+16
 717 0052 1A70     		strb	r2, [r3]
 718              	.L59:
 719              	.LBB11:
 337:main_cm4.c    **** 
 338:main_cm4.c    **** 
 339:main_cm4.c    ****     while(1)
 340:main_cm4.c    ****     {
 341:main_cm4.c    ****       
 342:main_cm4.c    ****       for (uint8_t i = FIFO_NUMBER_OF_SAMPLES - FIFO_NUMBER_OF_OVERLAPPING_SAMPLES; i < FIFO_NUMBER
 720              		.loc 2 342 0
 721 0054 1923     		movs	r3, #25
 722 0056 FB71     		strb	r3, [r7, #7]
 723 0058 15E0     		b	.L46
 724              	.L47:
 343:main_cm4.c    ****       {
 344:main_cm4.c    **** 
 345:main_cm4.c    ****         FIFO_Buffer[((RED_CHANNEL * FIFO_NUMBER_OF_SAMPLES) + (i - (FIFO_NUMBER_OF_SAMPLES - FIFO_N
 725              		.loc 2 345 0 discriminator 3
 726 005a FB79     		ldrb	r3, [r7, #7]	@ zero_extendqisi2
 727 005c 193B     		subs	r3, r3, #25
 728 005e FA79     		ldrb	r2, [r7, #7]	@ zero_extendqisi2
 729 0060 7049     		ldr	r1, .L60+12
 730 0062 31F81210 		ldrh	r1, [r1, r2, lsl #1]
 731 0066 6F4A     		ldr	r2, .L60+12
 732 0068 22F81310 		strh	r1, [r2, r3, lsl #1]	@ movhi
 346:main_cm4.c    ****         FIFO_Buffer[((IR_CHANNEL * FIFO_NUMBER_OF_SAMPLES) + (i - (FIFO_NUMBER_OF_SAMPLES - FIFO_NU
 733              		.loc 2 346 0 discriminator 3
 734 006c FB79     		ldrb	r3, [r7, #7]	@ zero_extendqisi2
 735 006e AF33     		adds	r3, r3, #175
 736 0070 FA79     		ldrb	r2, [r7, #7]	@ zero_extendqisi2
ARM GAS  C:\Users\LOCALA~1\AppData\Local\Temp\ccJ6EDbl.s 			page 47


 737 0072 C832     		adds	r2, r2, #200
 738 0074 6B49     		ldr	r1, .L60+12
 739 0076 31F81210 		ldrh	r1, [r1, r2, lsl #1]
 740 007a 6A4A     		ldr	r2, .L60+12
 741 007c 22F81310 		strh	r1, [r2, r3, lsl #1]	@ movhi
 342:main_cm4.c    ****       {
 742              		.loc 2 342 0 discriminator 3
 743 0080 FB79     		ldrb	r3, [r7, #7]	@ zero_extendqisi2
 744 0082 0133     		adds	r3, r3, #1
 745 0084 FB71     		strb	r3, [r7, #7]
 746              	.L46:
 342:main_cm4.c    ****       {
 747              		.loc 2 342 0 is_stmt 0 discriminator 1
 748 0086 FB79     		ldrb	r3, [r7, #7]	@ zero_extendqisi2
 749 0088 632B     		cmp	r3, #99
 750 008a E6D9     		bls	.L47
 751              	.LBE11:
 347:main_cm4.c    ****   
 348:main_cm4.c    ****       }
 349:main_cm4.c    ****       samplesTaken = FIFO_NUMBER_OF_OVERLAPPING_SAMPLES;
 752              		.loc 2 349 0 is_stmt 1
 753 008c 674B     		ldr	r3, .L60+20
 754 008e 4B22     		movs	r2, #75
 755 0090 1A60     		str	r2, [r3]
 350:main_cm4.c    ****       while(FIFO_NUMBER_OF_SAMPLES != samplesTaken)
 756              		.loc 2 350 0
 757 0092 07E0     		b	.L48
 758              	.L49:
 351:main_cm4.c    ****         gTissueDetected = readChannels(&FIFO_Buffer[0], TRUE);
 759              		.loc 2 351 0
 760 0094 0121     		movs	r1, #1
 761 0096 6348     		ldr	r0, .L60+12
 762 0098 FFF7FEFF 		bl	readChannels
 763 009c 0346     		mov	r3, r0
 764 009e 1A46     		mov	r2, r3
 765 00a0 614B     		ldr	r3, .L60+16
 766 00a2 1A70     		strb	r2, [r3]
 767              	.L48:
 350:main_cm4.c    ****       while(FIFO_NUMBER_OF_SAMPLES != samplesTaken)
 768              		.loc 2 350 0
 769 00a4 614B     		ldr	r3, .L60+20
 770 00a6 1B68     		ldr	r3, [r3]
 771 00a8 642B     		cmp	r3, #100
 772 00aa F3D1     		bne	.L49
 352:main_cm4.c    **** 
 353:main_cm4.c    ****       
 354:main_cm4.c    ****       
 355:main_cm4.c    ****       if(TRUE == validHeartRate)
 773              		.loc 2 355 0
 774 00ac 604B     		ldr	r3, .L60+24
 775 00ae 93F90030 		ldrsb	r3, [r3]
 776 00b2 012B     		cmp	r3, #1
 777 00b4 4FD1     		bne	.L50
 356:main_cm4.c    ****       {
 357:main_cm4.c    **** 
 358:main_cm4.c    ****         if((uint8_t)abs(gLastHeartRate - heartRate) < 10UL || (0UL == gLastHeartRate))
 778              		.loc 2 358 0
ARM GAS  C:\Users\LOCALA~1\AppData\Local\Temp\ccJ6EDbl.s 			page 48


 779 00b6 5F4B     		ldr	r3, .L60+28
 780 00b8 1A68     		ldr	r2, [r3]
 781 00ba 5F4B     		ldr	r3, .L60+32
 782 00bc 1B68     		ldr	r3, [r3]
 783 00be D31A     		subs	r3, r2, r3
 784 00c0 002B     		cmp	r3, #0
 785 00c2 B8BF     		it	lt
 786 00c4 5B42     		rsblt	r3, r3, #0
 787 00c6 DBB2     		uxtb	r3, r3
 788 00c8 092B     		cmp	r3, #9
 789 00ca 03D9     		bls	.L51
 790              		.loc 2 358 0 is_stmt 0 discriminator 1
 791 00cc 594B     		ldr	r3, .L60+28
 792 00ce 1B68     		ldr	r3, [r3]
 793 00d0 002B     		cmp	r3, #0
 794 00d2 1ED1     		bne	.L52
 795              	.L51:
 359:main_cm4.c    ****         {
 360:main_cm4.c    ****           gBpmBuff[gBpmCurrentIndex++] = heartRate;
 796              		.loc 2 360 0 is_stmt 1
 797 00d4 594B     		ldr	r3, .L60+36
 798 00d6 1B78     		ldrb	r3, [r3]	@ zero_extendqisi2
 799 00d8 5A1C     		adds	r2, r3, #1
 800 00da D1B2     		uxtb	r1, r2
 801 00dc 574A     		ldr	r2, .L60+36
 802 00de 1170     		strb	r1, [r2]
 803 00e0 1A46     		mov	r2, r3
 804 00e2 554B     		ldr	r3, .L60+32
 805 00e4 1B68     		ldr	r3, [r3]
 806 00e6 D9B2     		uxtb	r1, r3
 807 00e8 554B     		ldr	r3, .L60+40
 808 00ea 9954     		strb	r1, [r3, r2]
 361:main_cm4.c    ****           gLastHeartRate = heartRate;
 809              		.loc 2 361 0
 810 00ec 524B     		ldr	r3, .L60+32
 811 00ee 1B68     		ldr	r3, [r3]
 812 00f0 504A     		ldr	r2, .L60+28
 813 00f2 1360     		str	r3, [r2]
 362:main_cm4.c    ****           gBpmCurrentIndex %= BPM_AVERAGE_RATE;
 814              		.loc 2 362 0
 815 00f4 514B     		ldr	r3, .L60+36
 816 00f6 1A78     		ldrb	r2, [r3]	@ zero_extendqisi2
 817 00f8 524B     		ldr	r3, .L60+44
 818 00fa A3FB0213 		umull	r1, r3, r3, r2
 819 00fe 9908     		lsrs	r1, r3, #2
 820 0100 0B46     		mov	r3, r1
 821 0102 5B00     		lsls	r3, r3, #1
 822 0104 0B44     		add	r3, r3, r1
 823 0106 5B00     		lsls	r3, r3, #1
 824 0108 D31A     		subs	r3, r2, r3
 825 010a DAB2     		uxtb	r2, r3
 826 010c 4B4B     		ldr	r3, .L60+36
 827 010e 1A70     		strb	r2, [r3]
 828 0110 04E0     		b	.L53
 829              	.L52:
 363:main_cm4.c    ****         }
 364:main_cm4.c    ****         else
ARM GAS  C:\Users\LOCALA~1\AppData\Local\Temp\ccJ6EDbl.s 			page 49


 365:main_cm4.c    ****         {
 366:main_cm4.c    ****           gLastHeartRate = heartRate - 10;
 830              		.loc 2 366 0
 831 0112 494B     		ldr	r3, .L60+32
 832 0114 1B68     		ldr	r3, [r3]
 833 0116 0A3B     		subs	r3, r3, #10
 834 0118 464A     		ldr	r2, .L60+28
 835 011a 1360     		str	r3, [r2]
 836              	.L53:
 367:main_cm4.c    ****         }
 368:main_cm4.c    ****   
 369:main_cm4.c    ****        
 370:main_cm4.c    ****         gTempbeatAvg = 0;
 837              		.loc 2 370 0
 838 011c 4A4B     		ldr	r3, .L60+48
 839 011e 0022     		movs	r2, #0
 840 0120 1A60     		str	r2, [r3]
 841              	.LBB12:
 371:main_cm4.c    ****         for (uint8_t x = 0 ; x < BPM_AVERAGE_RATE ; x++)
 842              		.loc 2 371 0
 843 0122 0023     		movs	r3, #0
 844 0124 BB71     		strb	r3, [r7, #6]
 845 0126 0BE0     		b	.L54
 846              	.L55:
 372:main_cm4.c    ****           gTempbeatAvg += gBpmBuff[x];
 847              		.loc 2 372 0 discriminator 3
 848 0128 BB79     		ldrb	r3, [r7, #6]	@ zero_extendqisi2
 849 012a 454A     		ldr	r2, .L60+40
 850 012c D35C     		ldrb	r3, [r2, r3]	@ zero_extendqisi2
 851 012e 1A46     		mov	r2, r3
 852 0130 454B     		ldr	r3, .L60+48
 853 0132 1B68     		ldr	r3, [r3]
 854 0134 1344     		add	r3, r3, r2
 855 0136 444A     		ldr	r2, .L60+48
 856 0138 1360     		str	r3, [r2]
 371:main_cm4.c    ****         for (uint8_t x = 0 ; x < BPM_AVERAGE_RATE ; x++)
 857              		.loc 2 371 0 discriminator 3
 858 013a BB79     		ldrb	r3, [r7, #6]	@ zero_extendqisi2
 859 013c 0133     		adds	r3, r3, #1
 860 013e BB71     		strb	r3, [r7, #6]
 861              	.L54:
 371:main_cm4.c    ****         for (uint8_t x = 0 ; x < BPM_AVERAGE_RATE ; x++)
 862              		.loc 2 371 0 is_stmt 0 discriminator 1
 863 0140 BB79     		ldrb	r3, [r7, #6]	@ zero_extendqisi2
 864 0142 052B     		cmp	r3, #5
 865 0144 F0D9     		bls	.L55
 866              	.LBE12:
 373:main_cm4.c    ****         gTempbeatAvg /= BPM_AVERAGE_RATE;
 867              		.loc 2 373 0 is_stmt 1
 868 0146 404B     		ldr	r3, .L60+48
 869 0148 1B68     		ldr	r3, [r3]
 870 014a 3E4A     		ldr	r2, .L60+44
 871 014c A2FB0323 		umull	r2, r3, r2, r3
 872 0150 9B08     		lsrs	r3, r3, #2
 873 0152 3D4A     		ldr	r2, .L60+48
 874 0154 1360     		str	r3, [r2]
 875              	.L50:
ARM GAS  C:\Users\LOCALA~1\AppData\Local\Temp\ccJ6EDbl.s 			page 50


 374:main_cm4.c    ****       }
 375:main_cm4.c    **** 
 376:main_cm4.c    ****      if(TRUE == validSPO2)
 876              		.loc 2 376 0
 877 0156 3D4B     		ldr	r3, .L60+52
 878 0158 93F90030 		ldrsb	r3, [r3]
 879 015c 012B     		cmp	r3, #1
 880 015e 3DD1     		bne	.L56
 377:main_cm4.c    ****      {
 378:main_cm4.c    ****          gSpO2Buff[gSpO2CurrentIndex++] = spo2;
 881              		.loc 2 378 0
 882 0160 3B4B     		ldr	r3, .L60+56
 883 0162 1B78     		ldrb	r3, [r3]	@ zero_extendqisi2
 884 0164 5A1C     		adds	r2, r3, #1
 885 0166 D1B2     		uxtb	r1, r2
 886 0168 394A     		ldr	r2, .L60+56
 887 016a 1170     		strb	r1, [r2]
 888 016c 1946     		mov	r1, r3
 889 016e 394B     		ldr	r3, .L60+60
 890 0170 1B68     		ldr	r3, [r3]
 891 0172 07EE903A 		vmov	s15, r3	@ int
 892 0176 F8EEE77A 		vcvt.f32.s32	s15, s15
 893 017a 374A     		ldr	r2, .L60+64
 894 017c 8B00     		lsls	r3, r1, #2
 895 017e 1344     		add	r3, r3, r2
 896 0180 C3ED007A 		vstr.32	s15, [r3]
 379:main_cm4.c    ****          gSpO2CurrentIndex %= 4;
 897              		.loc 2 379 0
 898 0184 324B     		ldr	r3, .L60+56
 899 0186 1B78     		ldrb	r3, [r3]	@ zero_extendqisi2
 900 0188 03F00303 		and	r3, r3, #3
 901 018c DAB2     		uxtb	r2, r3
 902 018e 304B     		ldr	r3, .L60+56
 903 0190 1A70     		strb	r2, [r3]
 380:main_cm4.c    **** 
 381:main_cm4.c    ****          gTempSpO2Avg = 0;
 904              		.loc 2 381 0
 905 0192 324B     		ldr	r3, .L60+68
 906 0194 4FF00002 		mov	r2, #0
 907 0198 1A60     		str	r2, [r3]	@ float
 908              	.LBB13:
 382:main_cm4.c    ****          for (uint8_t x = 0 ; x < 4; x++)
 909              		.loc 2 382 0
 910 019a 0023     		movs	r3, #0
 911 019c 7B71     		strb	r3, [r7, #5]
 912 019e 10E0     		b	.L57
 913              	.L58:
 383:main_cm4.c    ****            gTempSpO2Avg += gSpO2Buff[x];
 914              		.loc 2 383 0 discriminator 3
 915 01a0 7B79     		ldrb	r3, [r7, #5]	@ zero_extendqisi2
 916 01a2 2D4A     		ldr	r2, .L60+64
 917 01a4 9B00     		lsls	r3, r3, #2
 918 01a6 1344     		add	r3, r3, r2
 919 01a8 93ED007A 		vldr.32	s14, [r3]
 920 01ac 2B4B     		ldr	r3, .L60+68
 921 01ae D3ED007A 		vldr.32	s15, [r3]
 922 01b2 77EE277A 		vadd.f32	s15, s14, s15
ARM GAS  C:\Users\LOCALA~1\AppData\Local\Temp\ccJ6EDbl.s 			page 51


 923 01b6 294B     		ldr	r3, .L60+68
 924 01b8 C3ED007A 		vstr.32	s15, [r3]
 382:main_cm4.c    ****          for (uint8_t x = 0 ; x < 4; x++)
 925              		.loc 2 382 0 discriminator 3
 926 01bc 7B79     		ldrb	r3, [r7, #5]	@ zero_extendqisi2
 927 01be 0133     		adds	r3, r3, #1
 928 01c0 7B71     		strb	r3, [r7, #5]
 929              	.L57:
 382:main_cm4.c    ****          for (uint8_t x = 0 ; x < 4; x++)
 930              		.loc 2 382 0 is_stmt 0 discriminator 1
 931 01c2 7B79     		ldrb	r3, [r7, #5]	@ zero_extendqisi2
 932 01c4 032B     		cmp	r3, #3
 933 01c6 EBD9     		bls	.L58
 934              	.LBE13:
 384:main_cm4.c    ****          gTempSpO2Avg /= 4;
 935              		.loc 2 384 0 is_stmt 1
 936 01c8 244B     		ldr	r3, .L60+68
 937 01ca 93ED007A 		vldr.32	s14, [r3]
 938 01ce F1EE006A 		vmov.f32	s13, #4.0e+0
 939 01d2 C7EE267A 		vdiv.f32	s15, s14, s13
 940 01d6 214B     		ldr	r3, .L60+68
 941 01d8 C3ED007A 		vstr.32	s15, [r3]
 942              	.L56:
 385:main_cm4.c    ****      }
 386:main_cm4.c    ****     /*
 387:main_cm4.c    ****     if(TRUE == gTissueDetected)
 388:main_cm4.c    ****     {
 389:main_cm4.c    ****         printf("HR: %lu \r\n", gTempbeatAvg); 
 390:main_cm4.c    ****         printf("Saturation: %u.%u \r\n", (uint8_t) gTempSpO2Avg, (uint8_t)(100* (gTempSpO2Avg - (ui
 391:main_cm4.c    ****     }
 392:main_cm4.c    ****     */
 393:main_cm4.c    **** ;
 394:main_cm4.c    ****     
 395:main_cm4.c    ****     memset(&frameParam, 0x00, sizeof(frameParam));
 943              		.loc 2 395 0
 944 01dc 0522     		movs	r2, #5
 945 01de 0021     		movs	r1, #0
 946 01e0 1F48     		ldr	r0, .L60+72
 947 01e2 FFF7FEFF 		bl	memset
 396:main_cm4.c    **** 
 397:main_cm4.c    ****      frameParam.frameType = CHANNEL_DATA;
 948              		.loc 2 397 0
 949 01e6 1E4B     		ldr	r3, .L60+72
 950 01e8 7C22     		movs	r2, #124
 951 01ea 1A70     		strb	r2, [r3]
 398:main_cm4.c    ****      frameParam.params.wavelength = IR_CHANNEL;
 952              		.loc 2 398 0
 953 01ec 1C4B     		ldr	r3, .L60+72
 954 01ee 0222     		movs	r2, #2
 955 01f0 5A70     		strb	r2, [r3, #1]
 399:main_cm4.c    ****      frameParam.tissueDetected = gTissueDetected;
 956              		.loc 2 399 0
 957 01f2 0D4B     		ldr	r3, .L60+16
 958 01f4 1A78     		ldrb	r2, [r3]	@ zero_extendqisi2
 959 01f6 1A4B     		ldr	r3, .L60+72
 960 01f8 1A71     		strb	r2, [r3, #4]
 400:main_cm4.c    ****      gpFrame = createSerialFrame(&FIFO_Buffer[(IR_CHANNEL * FIFO_NUMBER_OF_SAMPLES) + FIFO_NUMBER_O
ARM GAS  C:\Users\LOCALA~1\AppData\Local\Temp\ccJ6EDbl.s 			page 52


 961              		.loc 2 400 0
 962 01fa 194A     		ldr	r2, .L60+72
 963 01fc 3221     		movs	r1, #50
 964 01fe 1948     		ldr	r0, .L60+76
 965 0200 FFF7FEFF 		bl	createSerialFrame
 966 0204 0246     		mov	r2, r0
 967 0206 184B     		ldr	r3, .L60+80
 968 0208 1A60     		str	r2, [r3]
 401:main_cm4.c    ****       
 402:main_cm4.c    ****      sendFrame(gpFrame);
 969              		.loc 2 402 0
 970 020a 174B     		ldr	r3, .L60+80
 971 020c 1B68     		ldr	r3, [r3]
 972 020e 1846     		mov	r0, r3
 973 0210 FFF7FEFF 		bl	sendFrame
 403:main_cm4.c    ****   
 404:main_cm4.c    ****   
 405:main_cm4.c    ****  
 406:main_cm4.c    ****    } 
 974              		.loc 2 406 0
 975 0214 1EE7     		b	.L59
 976              	.L61:
 977 0216 00BF     		.align	2
 978              	.L60:
 979 0218 00000000 		.word	Uart_Printf_context
 980 021c 00000000 		.word	Uart_Printf_config
 981 0220 00006640 		.word	1080426496
 982 0224 00000000 		.word	FIFO_Buffer
 983 0228 00000000 		.word	gTissueDetected
 984 022c 00000000 		.word	samplesTaken
 985 0230 00000000 		.word	validHeartRate
 986 0234 00000000 		.word	gLastHeartRate
 987 0238 00000000 		.word	heartRate
 988 023c 00000000 		.word	gBpmCurrentIndex
 989 0240 00000000 		.word	gBpmBuff
 990 0244 ABAAAAAA 		.word	-1431655765
 991 0248 00000000 		.word	gTempbeatAvg
 992 024c 00000000 		.word	validSPO2
 993 0250 00000000 		.word	gSpO2CurrentIndex
 994 0254 00000000 		.word	spo2
 995 0258 00000000 		.word	gSpO2Buff
 996 025c 00000000 		.word	gTempSpO2Avg
 997 0260 00000000 		.word	frameParam
 998 0264 26020000 		.word	FIFO_Buffer+550
 999 0268 00000000 		.word	gpFrame
 1000              		.cfi_endproc
 1001              	.LFE663:
 1002              		.size	main, .-main
 1003              		.section	.text.HandleError,"ax",%progbits
 1004              		.align	2
 1005              		.thumb
 1006              		.thumb_func
 1007              		.type	HandleError, %function
 1008              	HandleError:
 1009              	.LFB664:
 407:main_cm4.c    **** }
 408:main_cm4.c    **** 
ARM GAS  C:\Users\LOCALA~1\AppData\Local\Temp\ccJ6EDbl.s 			page 53


 409:main_cm4.c    **** /*******************************************************************************
 410:main_cm4.c    **** * Function Name: HandleError
 411:main_cm4.c    **** ****************************************************************************//**
 412:main_cm4.c    **** *
 413:main_cm4.c    **** * This function processes unrecoverable errors such as any component 
 414:main_cm4.c    **** * initialization errors etc. In case of such error the system will 
 415:main_cm4.c    **** * stay in the infinite loop of this function.
 416:main_cm4.c    **** *
 417:main_cm4.c    **** *
 418:main_cm4.c    **** * \note
 419:main_cm4.c    **** * * If error ocuurs interrupts are disabled.
 420:main_cm4.c    **** *
 421:main_cm4.c    **** *******************************************************************************/
 422:main_cm4.c    **** static void HandleError(void)
 423:main_cm4.c    **** {   
 1010              		.loc 2 423 0
 1011              		.cfi_startproc
 1012              		@ args = 0, pretend = 0, frame = 0
 1013              		@ frame_needed = 1, uses_anonymous_args = 0
 1014              		@ link register save eliminated.
 1015 0000 80B4     		push	{r7}
 1016              		.cfi_def_cfa_offset 4
 1017              		.cfi_offset 7, -4
 1018 0002 00AF     		add	r7, sp, #0
 1019              		.cfi_def_cfa_register 7
 1020              	.LBB14:
 1021              	.LBB15:
 132:Generated_Source\PSoC6\pdl\cmsis/include/cmsis_gcc.h **** }
 133:Generated_Source\PSoC6\pdl\cmsis/include/cmsis_gcc.h **** 
 134:Generated_Source\PSoC6\pdl\cmsis/include/cmsis_gcc.h **** 
 135:Generated_Source\PSoC6\pdl\cmsis/include/cmsis_gcc.h **** /**
 136:Generated_Source\PSoC6\pdl\cmsis/include/cmsis_gcc.h ****   \brief   Disable IRQ Interrupts
 137:Generated_Source\PSoC6\pdl\cmsis/include/cmsis_gcc.h ****   \details Disables IRQ interrupts by setting the I-bit in the CPSR.
 138:Generated_Source\PSoC6\pdl\cmsis/include/cmsis_gcc.h ****            Can only be executed in Privileged modes.
 139:Generated_Source\PSoC6\pdl\cmsis/include/cmsis_gcc.h ****  */
 140:Generated_Source\PSoC6\pdl\cmsis/include/cmsis_gcc.h **** __STATIC_FORCEINLINE void __disable_irq(void)
 141:Generated_Source\PSoC6\pdl\cmsis/include/cmsis_gcc.h **** {
 142:Generated_Source\PSoC6\pdl\cmsis/include/cmsis_gcc.h ****   __ASM volatile ("cpsid i" : : : "memory");
 1022              		.loc 3 142 0
 1023              		.syntax unified
 1024              	@ 142 "Generated_Source\PSoC6\pdl\cmsis/include/cmsis_gcc.h" 1
 1025 0004 72B6     		cpsid i
 1026              	@ 0 "" 2
 1027              		.thumb
 1028              		.syntax unified
 1029              	.L63:
 1030              	.LBE15:
 1031              	.LBE14:
 424:main_cm4.c    ****      /* Disable all interrupts. */
 425:main_cm4.c    ****     __disable_irq();
 426:main_cm4.c    ****     
 427:main_cm4.c    ****     /* Infinite loop. */
 428:main_cm4.c    ****     while(1u) {}
 1032              		.loc 2 428 0 discriminator 1
 1033 0006 FEE7     		b	.L63
 1034              		.cfi_endproc
 1035              	.LFE664:
ARM GAS  C:\Users\LOCALA~1\AppData\Local\Temp\ccJ6EDbl.s 			page 54


 1036              		.size	HandleError, .-HandleError
 1037              		.section	.text._write,"ax",%progbits
 1038              		.align	2
 1039              		.global	_write
 1040              		.thumb
 1041              		.thumb_func
 1042              		.type	_write, %function
 1043              	_write:
 1044              	.LFB665:
 429:main_cm4.c    **** }
 430:main_cm4.c    **** 
 431:main_cm4.c    **** 
 432:main_cm4.c    **** /*******************************************************************************
 433:main_cm4.c    **** * When printf function is called it is redirected to the following functions
 434:main_cm4.c    **** * depending on compiler used.
 435:main_cm4.c    **** *******************************************************************************/
 436:main_cm4.c    **** #if defined (__GNUC__)
 437:main_cm4.c    **** /*******************************************************************************
 438:main_cm4.c    **** * Function Name: _write
 439:main_cm4.c    **** ********************************************************************************
 440:main_cm4.c    **** * Summary: 
 441:main_cm4.c    **** * NewLib C library is used to retarget printf to _write. printf is redirected to 
 442:main_cm4.c    **** * this function when GCC compiler is used to print data to terminal using UART. 
 443:main_cm4.c    **** *
 444:main_cm4.c    **** * \param file
 445:main_cm4.c    **** * This variable is not used.
 446:main_cm4.c    **** * \param *ptr
 447:main_cm4.c    **** * Pointer to the data which will be transfered through UART.
 448:main_cm4.c    **** * \param len
 449:main_cm4.c    **** * Length of the data to be transfered through UART.
 450:main_cm4.c    **** *
 451:main_cm4.c    **** * \return
 452:main_cm4.c    **** * returns the number of characters transferred using UART.
 453:main_cm4.c    **** * \ref int
 454:main_cm4.c    **** *******************************************************************************/
 455:main_cm4.c    ****    int _write(int file, char *ptr, int len)
 456:main_cm4.c    ****     {
 1045              		.loc 2 456 0
 1046              		.cfi_startproc
 1047              		@ args = 0, pretend = 0, frame = 24
 1048              		@ frame_needed = 1, uses_anonymous_args = 0
 1049 0000 80B5     		push	{r7, lr}
 1050              		.cfi_def_cfa_offset 8
 1051              		.cfi_offset 7, -8
 1052              		.cfi_offset 14, -4
 1053 0002 86B0     		sub	sp, sp, #24
 1054              		.cfi_def_cfa_offset 32
 1055 0004 00AF     		add	r7, sp, #0
 1056              		.cfi_def_cfa_register 7
 1057 0006 F860     		str	r0, [r7, #12]
 1058 0008 B960     		str	r1, [r7, #8]
 1059 000a 7A60     		str	r2, [r7, #4]
 457:main_cm4.c    ****         int nChars = 0;
 1060              		.loc 2 457 0
 1061 000c 0023     		movs	r3, #0
 1062 000e 7B61     		str	r3, [r7, #20]
 458:main_cm4.c    **** 
ARM GAS  C:\Users\LOCALA~1\AppData\Local\Temp\ccJ6EDbl.s 			page 55


 459:main_cm4.c    ****         /* Suppress the compiler warning about an unused variable. */
 460:main_cm4.c    ****         if (0 != file)
 461:main_cm4.c    ****         {
 462:main_cm4.c    ****         }
 463:main_cm4.c    ****                 
 464:main_cm4.c    ****         nChars = Cy_SCB_UART_PutArray(Uart_Printf_HW, ptr, len);
 1063              		.loc 2 464 0
 1064 0010 7B68     		ldr	r3, [r7, #4]
 1065 0012 1A46     		mov	r2, r3
 1066 0014 B968     		ldr	r1, [r7, #8]
 1067 0016 0548     		ldr	r0, .L66
 1068 0018 FFF7FEFF 		bl	Cy_SCB_UART_PutArray
 1069 001c 0346     		mov	r3, r0
 1070 001e 7B61     		str	r3, [r7, #20]
 465:main_cm4.c    ****            
 466:main_cm4.c    ****         return (nChars);
 1071              		.loc 2 466 0
 1072 0020 7B69     		ldr	r3, [r7, #20]
 467:main_cm4.c    ****     }
 1073              		.loc 2 467 0
 1074 0022 1846     		mov	r0, r3
 1075 0024 1837     		adds	r7, r7, #24
 1076              		.cfi_def_cfa_offset 8
 1077 0026 BD46     		mov	sp, r7
 1078              		.cfi_def_cfa_register 13
 1079              		@ sp needed
 1080 0028 80BD     		pop	{r7, pc}
 1081              	.L67:
 1082 002a 00BF     		.align	2
 1083              	.L66:
 1084 002c 00006640 		.word	1080426496
 1085              		.cfi_endproc
 1086              	.LFE665:
 1087              		.size	_write, .-_write
 1088              		.bss
 1089              		.align	2
 1090              	serialFrame.17363:
 1091 000c 00000000 		.space	305
 1091      00000000 
 1091      00000000 
 1091      00000000 
 1091      00000000 
 1092              		.text
 1093              	.Letext0:
 1094              		.file 4 "c:\\program files (x86)\\cypress\\psoc creator\\4.4\\psoc creator\\import\\gnu\\arm\\5.4.
 1095              		.file 5 "c:\\program files (x86)\\cypress\\psoc creator\\4.4\\psoc creator\\import\\gnu\\arm\\5.4.
 1096              		.file 6 "Generated_Source\\PSoC6\\pdl\\devices/psoc6/include/ip/cyip_scb.h"
 1097              		.file 7 "Generated_Source\\PSoC6\\pdl\\devices/psoc6/include/psoc6_01_config.h"
 1098              		.file 8 "Generated_Source\\PSoC6\\pdl\\drivers/peripheral/device/cy_device.h"
 1099              		.file 9 "Generated_Source\\PSoC6\\pdl\\drivers/peripheral/syslib/cy_syslib.h"
 1100              		.file 10 "Generated_Source\\PSoC6\\pdl\\drivers/peripheral/sar/cy_sar.h"
 1101              		.file 11 "Generated_Source\\PSoC6\\pdl\\drivers/peripheral/scb/cy_scb_i2c.h"
 1102              		.file 12 "Generated_Source\\PSoC6\\pdl\\drivers/peripheral/tcpwm/cy_tcpwm_counter.h"
 1103              		.file 13 "Generated_Source\\PSoC6/ADC_INVERTING_AMP.h"
 1104              		.file 14 "Generated_Source\\PSoC6\\pdl\\cmsis/include/core_cm4.h"
 1105              		.file 15 "Generated_Source\\PSoC6/I2C_MAX30105.h"
 1106              		.file 16 "Generated_Source\\PSoC6/Timer.h"
ARM GAS  C:\Users\LOCALA~1\AppData\Local\Temp\ccJ6EDbl.s 			page 56


 1107              		.file 17 "Generated_Source\\PSoC6/Uart_Printf.h"
 1108              		.file 18 "Generated_Source\\PSoC6/Timer_1.h"
 1109              		.file 19 "Generated_Source\\PSoC6/Timer_FillBuffers.h"
 1110              		.section	.debug_info,"",%progbits
 1111              	.Ldebug_info0:
 1112 0000 20170000 		.4byte	0x1720
 1113 0004 0400     		.2byte	0x4
 1114 0006 00000000 		.4byte	.Ldebug_abbrev0
 1115 000a 04       		.byte	0x4
 1116 000b 01       		.uleb128 0x1
 1117 000c 17160000 		.4byte	.LASF398
 1118 0010 0C       		.byte	0xc
 1119 0011 60000000 		.4byte	.LASF399
 1120 0015 BA080000 		.4byte	.LASF400
 1121 0019 00000000 		.4byte	.Ldebug_ranges0+0
 1122 001d 00000000 		.4byte	0
 1123 0021 00000000 		.4byte	.Ldebug_line0
 1124 0025 02       		.uleb128 0x2
 1125 0026 02       		.byte	0x2
 1126 0027 05       		.byte	0x5
 1127 0028 80000000 		.4byte	.LASF0
 1128 002c 03       		.uleb128 0x3
 1129 002d 1E0E0000 		.4byte	.LASF2
 1130 0031 04       		.byte	0x4
 1131 0032 1B       		.byte	0x1b
 1132 0033 37000000 		.4byte	0x37
 1133 0037 02       		.uleb128 0x2
 1134 0038 01       		.byte	0x1
 1135 0039 06       		.byte	0x6
 1136 003a B5140000 		.4byte	.LASF1
 1137 003e 03       		.uleb128 0x3
 1138 003f 82110000 		.4byte	.LASF3
 1139 0043 04       		.byte	0x4
 1140 0044 1D       		.byte	0x1d
 1141 0045 49000000 		.4byte	0x49
 1142 0049 02       		.uleb128 0x2
 1143 004a 01       		.byte	0x1
 1144 004b 08       		.byte	0x8
 1145 004c 1D130000 		.4byte	.LASF4
 1146 0050 03       		.uleb128 0x3
 1147 0051 B40C0000 		.4byte	.LASF5
 1148 0055 04       		.byte	0x4
 1149 0056 29       		.byte	0x29
 1150 0057 25000000 		.4byte	0x25
 1151 005b 03       		.uleb128 0x3
 1152 005c 9F060000 		.4byte	.LASF6
 1153 0060 04       		.byte	0x4
 1154 0061 2B       		.byte	0x2b
 1155 0062 66000000 		.4byte	0x66
 1156 0066 02       		.uleb128 0x2
 1157 0067 02       		.byte	0x2
 1158 0068 07       		.byte	0x7
 1159 0069 7A0E0000 		.4byte	.LASF7
 1160 006d 03       		.uleb128 0x3
 1161 006e 09020000 		.4byte	.LASF8
 1162 0072 04       		.byte	0x4
 1163 0073 3F       		.byte	0x3f
ARM GAS  C:\Users\LOCALA~1\AppData\Local\Temp\ccJ6EDbl.s 			page 57


 1164 0074 78000000 		.4byte	0x78
 1165 0078 02       		.uleb128 0x2
 1166 0079 04       		.byte	0x4
 1167 007a 05       		.byte	0x5
 1168 007b 65100000 		.4byte	.LASF9
 1169 007f 03       		.uleb128 0x3
 1170 0080 3F130000 		.4byte	.LASF10
 1171 0084 04       		.byte	0x4
 1172 0085 41       		.byte	0x41
 1173 0086 8A000000 		.4byte	0x8a
 1174 008a 02       		.uleb128 0x2
 1175 008b 04       		.byte	0x4
 1176 008c 07       		.byte	0x7
 1177 008d 72120000 		.4byte	.LASF11
 1178 0091 02       		.uleb128 0x2
 1179 0092 08       		.byte	0x8
 1180 0093 05       		.byte	0x5
 1181 0094 8C0B0000 		.4byte	.LASF12
 1182 0098 02       		.uleb128 0x2
 1183 0099 08       		.byte	0x8
 1184 009a 07       		.byte	0x7
 1185 009b 10060000 		.4byte	.LASF13
 1186 009f 04       		.uleb128 0x4
 1187 00a0 04       		.byte	0x4
 1188 00a1 05       		.byte	0x5
 1189 00a2 696E7400 		.ascii	"int\000"
 1190 00a6 02       		.uleb128 0x2
 1191 00a7 04       		.byte	0x4
 1192 00a8 07       		.byte	0x7
 1193 00a9 54010000 		.4byte	.LASF14
 1194 00ad 03       		.uleb128 0x3
 1195 00ae 03050000 		.4byte	.LASF15
 1196 00b2 05       		.byte	0x5
 1197 00b3 14       		.byte	0x14
 1198 00b4 2C000000 		.4byte	0x2c
 1199 00b8 03       		.uleb128 0x3
 1200 00b9 DE0A0000 		.4byte	.LASF16
 1201 00bd 05       		.byte	0x5
 1202 00be 18       		.byte	0x18
 1203 00bf 3E000000 		.4byte	0x3e
 1204 00c3 03       		.uleb128 0x3
 1205 00c4 D6050000 		.4byte	.LASF17
 1206 00c8 05       		.byte	0x5
 1207 00c9 20       		.byte	0x20
 1208 00ca 50000000 		.4byte	0x50
 1209 00ce 03       		.uleb128 0x3
 1210 00cf A30E0000 		.4byte	.LASF18
 1211 00d3 05       		.byte	0x5
 1212 00d4 24       		.byte	0x24
 1213 00d5 5B000000 		.4byte	0x5b
 1214 00d9 03       		.uleb128 0x3
 1215 00da A4120000 		.4byte	.LASF19
 1216 00de 05       		.byte	0x5
 1217 00df 2C       		.byte	0x2c
 1218 00e0 6D000000 		.4byte	0x6d
 1219 00e4 03       		.uleb128 0x3
 1220 00e5 FA040000 		.4byte	.LASF20
ARM GAS  C:\Users\LOCALA~1\AppData\Local\Temp\ccJ6EDbl.s 			page 58


 1221 00e9 05       		.byte	0x5
 1222 00ea 30       		.byte	0x30
 1223 00eb 7F000000 		.4byte	0x7f
 1224 00ef 02       		.uleb128 0x2
 1225 00f0 04       		.byte	0x4
 1226 00f1 07       		.byte	0x7
 1227 00f2 8A0F0000 		.4byte	.LASF21
 1228 00f6 05       		.uleb128 0x5
 1229 00f7 E4000000 		.4byte	0xe4
 1230 00fb 06       		.uleb128 0x6
 1231 00fc F6000000 		.4byte	0xf6
 1232 0100 07       		.uleb128 0x7
 1233 0101 FB000000 		.4byte	0xfb
 1234 0105 10010000 		.4byte	0x110
 1235 0109 08       		.uleb128 0x8
 1236 010a EF000000 		.4byte	0xef
 1237 010e 03       		.byte	0x3
 1238 010f 00       		.byte	0
 1239 0110 07       		.uleb128 0x7
 1240 0111 FB000000 		.4byte	0xfb
 1241 0115 20010000 		.4byte	0x120
 1242 0119 08       		.uleb128 0x8
 1243 011a EF000000 		.4byte	0xef
 1244 011e 05       		.byte	0x5
 1245 011f 00       		.byte	0
 1246 0120 07       		.uleb128 0x7
 1247 0121 FB000000 		.4byte	0xfb
 1248 0125 30010000 		.4byte	0x130
 1249 0129 08       		.uleb128 0x8
 1250 012a EF000000 		.4byte	0xef
 1251 012e 7F       		.byte	0x7f
 1252 012f 00       		.byte	0
 1253 0130 07       		.uleb128 0x7
 1254 0131 FB000000 		.4byte	0xfb
 1255 0135 40010000 		.4byte	0x140
 1256 0139 08       		.uleb128 0x8
 1257 013a EF000000 		.4byte	0xef
 1258 013e 0C       		.byte	0xc
 1259 013f 00       		.byte	0
 1260 0140 07       		.uleb128 0x7
 1261 0141 FB000000 		.4byte	0xfb
 1262 0145 50010000 		.4byte	0x150
 1263 0149 08       		.uleb128 0x8
 1264 014a EF000000 		.4byte	0xef
 1265 014e 1E       		.byte	0x1e
 1266 014f 00       		.byte	0
 1267 0150 07       		.uleb128 0x7
 1268 0151 FB000000 		.4byte	0xfb
 1269 0155 60010000 		.4byte	0x160
 1270 0159 08       		.uleb128 0x8
 1271 015a EF000000 		.4byte	0xef
 1272 015e 02       		.byte	0x2
 1273 015f 00       		.byte	0
 1274 0160 07       		.uleb128 0x7
 1275 0161 FB000000 		.4byte	0xfb
 1276 0165 70010000 		.4byte	0x170
 1277 0169 08       		.uleb128 0x8
ARM GAS  C:\Users\LOCALA~1\AppData\Local\Temp\ccJ6EDbl.s 			page 59


 1278 016a EF000000 		.4byte	0xef
 1279 016e 0B       		.byte	0xb
 1280 016f 00       		.byte	0
 1281 0170 07       		.uleb128 0x7
 1282 0171 B8000000 		.4byte	0xb8
 1283 0175 80010000 		.4byte	0x180
 1284 0179 08       		.uleb128 0x8
 1285 017a EF000000 		.4byte	0xef
 1286 017e 02       		.byte	0x2
 1287 017f 00       		.byte	0
 1288 0180 07       		.uleb128 0x7
 1289 0181 FB000000 		.4byte	0xfb
 1290 0185 90010000 		.4byte	0x190
 1291 0189 08       		.uleb128 0x8
 1292 018a EF000000 		.4byte	0xef
 1293 018e 0A       		.byte	0xa
 1294 018f 00       		.byte	0
 1295 0190 07       		.uleb128 0x7
 1296 0191 FB000000 		.4byte	0xfb
 1297 0195 A0010000 		.4byte	0x1a0
 1298 0199 08       		.uleb128 0x8
 1299 019a EF000000 		.4byte	0xef
 1300 019e 2E       		.byte	0x2e
 1301 019f 00       		.byte	0
 1302 01a0 07       		.uleb128 0x7
 1303 01a1 FB000000 		.4byte	0xfb
 1304 01a5 B0010000 		.4byte	0x1b0
 1305 01a9 08       		.uleb128 0x8
 1306 01aa EF000000 		.4byte	0xef
 1307 01ae 2D       		.byte	0x2d
 1308 01af 00       		.byte	0
 1309 01b0 07       		.uleb128 0x7
 1310 01b1 F6000000 		.4byte	0xf6
 1311 01b5 C1010000 		.4byte	0x1c1
 1312 01b9 09       		.uleb128 0x9
 1313 01ba EF000000 		.4byte	0xef
 1314 01be FF01     		.2byte	0x1ff
 1315 01c0 00       		.byte	0
 1316 01c1 07       		.uleb128 0x7
 1317 01c2 FB000000 		.4byte	0xfb
 1318 01c6 D1010000 		.4byte	0x1d1
 1319 01ca 08       		.uleb128 0x8
 1320 01cb EF000000 		.4byte	0xef
 1321 01cf 62       		.byte	0x62
 1322 01d0 00       		.byte	0
 1323 01d1 0A       		.uleb128 0xa
 1324 01d2 D00F     		.2byte	0xfd0
 1325 01d4 06       		.byte	0x6
 1326 01d5 21       		.byte	0x21
 1327 01d6 3B050000 		.4byte	0x53b
 1328 01da 0B       		.uleb128 0xb
 1329 01db 75170000 		.4byte	.LASF22
 1330 01df 06       		.byte	0x6
 1331 01e0 22       		.byte	0x22
 1332 01e1 F6000000 		.4byte	0xf6
 1333 01e5 00       		.byte	0
 1334 01e6 0B       		.uleb128 0xb
ARM GAS  C:\Users\LOCALA~1\AppData\Local\Temp\ccJ6EDbl.s 			page 60


 1335 01e7 9D150000 		.4byte	.LASF23
 1336 01eb 06       		.byte	0x6
 1337 01ec 23       		.byte	0x23
 1338 01ed FB000000 		.4byte	0xfb
 1339 01f1 04       		.byte	0x4
 1340 01f2 0B       		.uleb128 0xb
 1341 01f3 13150000 		.4byte	.LASF24
 1342 01f7 06       		.byte	0x6
 1343 01f8 24       		.byte	0x24
 1344 01f9 F6000000 		.4byte	0xf6
 1345 01fd 08       		.byte	0x8
 1346 01fe 0B       		.uleb128 0xb
 1347 01ff E3000000 		.4byte	.LASF25
 1348 0203 06       		.byte	0x6
 1349 0204 25       		.byte	0x25
 1350 0205 FB000000 		.4byte	0xfb
 1351 0209 0C       		.byte	0xc
 1352 020a 0B       		.uleb128 0xb
 1353 020b 2D000000 		.4byte	.LASF26
 1354 020f 06       		.byte	0x6
 1355 0210 26       		.byte	0x26
 1356 0211 40050000 		.4byte	0x540
 1357 0215 10       		.byte	0x10
 1358 0216 0B       		.uleb128 0xb
 1359 0217 E9110000 		.4byte	.LASF27
 1360 021b 06       		.byte	0x6
 1361 021c 27       		.byte	0x27
 1362 021d F6000000 		.4byte	0xf6
 1363 0221 20       		.byte	0x20
 1364 0222 0B       		.uleb128 0xb
 1365 0223 00130000 		.4byte	.LASF28
 1366 0227 06       		.byte	0x6
 1367 0228 28       		.byte	0x28
 1368 0229 FB000000 		.4byte	0xfb
 1369 022d 24       		.byte	0x24
 1370 022e 0B       		.uleb128 0xb
 1371 022f 84150000 		.4byte	.LASF29
 1372 0233 06       		.byte	0x6
 1373 0234 29       		.byte	0x29
 1374 0235 4A050000 		.4byte	0x54a
 1375 0239 28       		.byte	0x28
 1376 023a 0B       		.uleb128 0xb
 1377 023b D3140000 		.4byte	.LASF30
 1378 023f 06       		.byte	0x6
 1379 0240 2A       		.byte	0x2a
 1380 0241 F6000000 		.4byte	0xf6
 1381 0245 40       		.byte	0x40
 1382 0246 0B       		.uleb128 0xb
 1383 0247 49070000 		.4byte	.LASF31
 1384 024b 06       		.byte	0x6
 1385 024c 2B       		.byte	0x2b
 1386 024d F6000000 		.4byte	0xf6
 1387 0251 44       		.byte	0x44
 1388 0252 0B       		.uleb128 0xb
 1389 0253 22040000 		.4byte	.LASF32
 1390 0257 06       		.byte	0x6
 1391 0258 2C       		.byte	0x2c
ARM GAS  C:\Users\LOCALA~1\AppData\Local\Temp\ccJ6EDbl.s 			page 61


 1392 0259 F6000000 		.4byte	0xf6
 1393 025d 48       		.byte	0x48
 1394 025e 0B       		.uleb128 0xb
 1395 025f 3F110000 		.4byte	.LASF33
 1396 0263 06       		.byte	0x6
 1397 0264 2D       		.byte	0x2d
 1398 0265 FB000000 		.4byte	0xfb
 1399 0269 4C       		.byte	0x4c
 1400 026a 0B       		.uleb128 0xb
 1401 026b BE0C0000 		.4byte	.LASF34
 1402 026f 06       		.byte	0x6
 1403 0270 2E       		.byte	0x2e
 1404 0271 F6000000 		.4byte	0xf6
 1405 0275 50       		.byte	0x50
 1406 0276 0B       		.uleb128 0xb
 1407 0277 DF0F0000 		.4byte	.LASF35
 1408 027b 06       		.byte	0x6
 1409 027c 2F       		.byte	0x2f
 1410 027d 54050000 		.4byte	0x554
 1411 0281 54       		.byte	0x54
 1412 0282 0B       		.uleb128 0xb
 1413 0283 5C120000 		.4byte	.LASF36
 1414 0287 06       		.byte	0x6
 1415 0288 30       		.byte	0x30
 1416 0289 F6000000 		.4byte	0xf6
 1417 028d 60       		.byte	0x60
 1418 028e 0B       		.uleb128 0xb
 1419 028f 7B100000 		.4byte	.LASF37
 1420 0293 06       		.byte	0x6
 1421 0294 31       		.byte	0x31
 1422 0295 FB000000 		.4byte	0xfb
 1423 0299 64       		.byte	0x64
 1424 029a 0B       		.uleb128 0xb
 1425 029b AE110000 		.4byte	.LASF38
 1426 029f 06       		.byte	0x6
 1427 02a0 32       		.byte	0x32
 1428 02a1 F6000000 		.4byte	0xf6
 1429 02a5 68       		.byte	0x68
 1430 02a6 0B       		.uleb128 0xb
 1431 02a7 9D0F0000 		.4byte	.LASF39
 1432 02ab 06       		.byte	0x6
 1433 02ac 33       		.byte	0x33
 1434 02ad F6000000 		.4byte	0xf6
 1435 02b1 6C       		.byte	0x6c
 1436 02b2 0B       		.uleb128 0xb
 1437 02b3 B5040000 		.4byte	.LASF40
 1438 02b7 06       		.byte	0x6
 1439 02b8 34       		.byte	0x34
 1440 02b9 F6000000 		.4byte	0xf6
 1441 02bd 70       		.byte	0x70
 1442 02be 0B       		.uleb128 0xb
 1443 02bf E90F0000 		.4byte	.LASF41
 1444 02c3 06       		.byte	0x6
 1445 02c4 35       		.byte	0x35
 1446 02c5 5E050000 		.4byte	0x55e
 1447 02c9 74       		.byte	0x74
 1448 02ca 0C       		.uleb128 0xc
ARM GAS  C:\Users\LOCALA~1\AppData\Local\Temp\ccJ6EDbl.s 			page 62


 1449 02cb 22070000 		.4byte	.LASF42
 1450 02cf 06       		.byte	0x6
 1451 02d0 36       		.byte	0x36
 1452 02d1 F6000000 		.4byte	0xf6
 1453 02d5 0002     		.2byte	0x200
 1454 02d7 0C       		.uleb128 0xc
 1455 02d8 97110000 		.4byte	.LASF43
 1456 02dc 06       		.byte	0x6
 1457 02dd 37       		.byte	0x37
 1458 02de F6000000 		.4byte	0xf6
 1459 02e2 0402     		.2byte	0x204
 1460 02e4 0C       		.uleb128 0xc
 1461 02e5 39010000 		.4byte	.LASF44
 1462 02e9 06       		.byte	0x6
 1463 02ea 38       		.byte	0x38
 1464 02eb FB000000 		.4byte	0xfb
 1465 02ef 0802     		.2byte	0x208
 1466 02f1 0C       		.uleb128 0xc
 1467 02f2 F30F0000 		.4byte	.LASF45
 1468 02f6 06       		.byte	0x6
 1469 02f7 39       		.byte	0x39
 1470 02f8 68050000 		.4byte	0x568
 1471 02fc 0C02     		.2byte	0x20c
 1472 02fe 0C       		.uleb128 0xc
 1473 02ff 24140000 		.4byte	.LASF46
 1474 0303 06       		.byte	0x6
 1475 0304 3A       		.byte	0x3a
 1476 0305 F6000000 		.4byte	0xf6
 1477 0309 4002     		.2byte	0x240
 1478 030b 0C       		.uleb128 0xc
 1479 030c FD0F0000 		.4byte	.LASF47
 1480 0310 06       		.byte	0x6
 1481 0311 3B       		.byte	0x3b
 1482 0312 72050000 		.4byte	0x572
 1483 0316 4402     		.2byte	0x244
 1484 0318 0C       		.uleb128 0xc
 1485 0319 1F120000 		.4byte	.LASF48
 1486 031d 06       		.byte	0x6
 1487 031e 3C       		.byte	0x3c
 1488 031f F6000000 		.4byte	0xf6
 1489 0323 0003     		.2byte	0x300
 1490 0325 0C       		.uleb128 0xc
 1491 0326 FC010000 		.4byte	.LASF49
 1492 032a 06       		.byte	0x6
 1493 032b 3D       		.byte	0x3d
 1494 032c F6000000 		.4byte	0xf6
 1495 0330 0403     		.2byte	0x304
 1496 0332 0C       		.uleb128 0xc
 1497 0333 F3130000 		.4byte	.LASF50
 1498 0337 06       		.byte	0x6
 1499 0338 3E       		.byte	0x3e
 1500 0339 FB000000 		.4byte	0xfb
 1501 033d 0803     		.2byte	0x308
 1502 033f 0C       		.uleb128 0xc
 1503 0340 07100000 		.4byte	.LASF51
 1504 0344 06       		.byte	0x6
 1505 0345 3F       		.byte	0x3f
ARM GAS  C:\Users\LOCALA~1\AppData\Local\Temp\ccJ6EDbl.s 			page 63


 1506 0346 FB000000 		.4byte	0xfb
 1507 034a 0C03     		.2byte	0x30c
 1508 034c 0C       		.uleb128 0xc
 1509 034d 1C110000 		.4byte	.LASF52
 1510 0351 06       		.byte	0x6
 1511 0352 40       		.byte	0x40
 1512 0353 F6000000 		.4byte	0xf6
 1513 0357 1003     		.2byte	0x310
 1514 0359 0C       		.uleb128 0xc
 1515 035a 11100000 		.4byte	.LASF53
 1516 035e 06       		.byte	0x6
 1517 035f 41       		.byte	0x41
 1518 0360 7C050000 		.4byte	0x57c
 1519 0364 1403     		.2byte	0x314
 1520 0366 0C       		.uleb128 0xc
 1521 0367 DF160000 		.4byte	.LASF54
 1522 036b 06       		.byte	0x6
 1523 036c 42       		.byte	0x42
 1524 036d FB000000 		.4byte	0xfb
 1525 0371 4003     		.2byte	0x340
 1526 0373 0C       		.uleb128 0xc
 1527 0374 CE0E0000 		.4byte	.LASF55
 1528 0378 06       		.byte	0x6
 1529 0379 43       		.byte	0x43
 1530 037a FB000000 		.4byte	0xfb
 1531 037e 4403     		.2byte	0x344
 1532 0380 0C       		.uleb128 0xc
 1533 0381 1B100000 		.4byte	.LASF56
 1534 0385 06       		.byte	0x6
 1535 0386 44       		.byte	0x44
 1536 0387 86050000 		.4byte	0x586
 1537 038b 4803     		.2byte	0x348
 1538 038d 0C       		.uleb128 0xc
 1539 038e 0F170000 		.4byte	.LASF57
 1540 0392 06       		.byte	0x6
 1541 0393 45       		.byte	0x45
 1542 0394 8B050000 		.4byte	0x58b
 1543 0398 0004     		.2byte	0x400
 1544 039a 0C       		.uleb128 0xc
 1545 039b 72060000 		.4byte	.LASF58
 1546 039f 06       		.byte	0x6
 1547 03a0 46       		.byte	0x46
 1548 03a1 95050000 		.4byte	0x595
 1549 03a5 000C     		.2byte	0xc00
 1550 03a7 0C       		.uleb128 0xc
 1551 03a8 8F010000 		.4byte	.LASF59
 1552 03ac 06       		.byte	0x6
 1553 03ad 47       		.byte	0x47
 1554 03ae FB000000 		.4byte	0xfb
 1555 03b2 000E     		.2byte	0xe00
 1556 03b4 0C       		.uleb128 0xc
 1557 03b5 9B130000 		.4byte	.LASF60
 1558 03b9 06       		.byte	0x6
 1559 03ba 48       		.byte	0x48
 1560 03bb 9F050000 		.4byte	0x59f
 1561 03bf 040E     		.2byte	0xe04
 1562 03c1 0C       		.uleb128 0xc
ARM GAS  C:\Users\LOCALA~1\AppData\Local\Temp\ccJ6EDbl.s 			page 64


 1563 03c2 05090000 		.4byte	.LASF61
 1564 03c6 06       		.byte	0x6
 1565 03c7 49       		.byte	0x49
 1566 03c8 F6000000 		.4byte	0xf6
 1567 03cc 800E     		.2byte	0xe80
 1568 03ce 0C       		.uleb128 0xc
 1569 03cf A6130000 		.4byte	.LASF62
 1570 03d3 06       		.byte	0x6
 1571 03d4 4A       		.byte	0x4a
 1572 03d5 FB000000 		.4byte	0xfb
 1573 03d9 840E     		.2byte	0xe84
 1574 03db 0C       		.uleb128 0xc
 1575 03dc AC0E0000 		.4byte	.LASF63
 1576 03e0 06       		.byte	0x6
 1577 03e1 4B       		.byte	0x4b
 1578 03e2 F6000000 		.4byte	0xf6
 1579 03e6 880E     		.2byte	0xe88
 1580 03e8 0C       		.uleb128 0xc
 1581 03e9 8B0A0000 		.4byte	.LASF64
 1582 03ed 06       		.byte	0x6
 1583 03ee 4C       		.byte	0x4c
 1584 03ef FB000000 		.4byte	0xfb
 1585 03f3 8C0E     		.2byte	0xe8c
 1586 03f5 0C       		.uleb128 0xc
 1587 03f6 B1130000 		.4byte	.LASF65
 1588 03fa 06       		.byte	0x6
 1589 03fb 4D       		.byte	0x4d
 1590 03fc A9050000 		.4byte	0x5a9
 1591 0400 900E     		.2byte	0xe90
 1592 0402 0C       		.uleb128 0xc
 1593 0403 E3070000 		.4byte	.LASF66
 1594 0407 06       		.byte	0x6
 1595 0408 4E       		.byte	0x4e
 1596 0409 F6000000 		.4byte	0xf6
 1597 040d C00E     		.2byte	0xec0
 1598 040f 0C       		.uleb128 0xc
 1599 0410 BC130000 		.4byte	.LASF67
 1600 0414 06       		.byte	0x6
 1601 0415 4F       		.byte	0x4f
 1602 0416 FB000000 		.4byte	0xfb
 1603 041a C40E     		.2byte	0xec4
 1604 041c 0C       		.uleb128 0xc
 1605 041d 570F0000 		.4byte	.LASF68
 1606 0421 06       		.byte	0x6
 1607 0422 50       		.byte	0x50
 1608 0423 F6000000 		.4byte	0xf6
 1609 0427 C80E     		.2byte	0xec8
 1610 0429 0C       		.uleb128 0xc
 1611 042a B8110000 		.4byte	.LASF69
 1612 042e 06       		.byte	0x6
 1613 042f 51       		.byte	0x51
 1614 0430 FB000000 		.4byte	0xfb
 1615 0434 CC0E     		.2byte	0xecc
 1616 0436 0C       		.uleb128 0xc
 1617 0437 C7130000 		.4byte	.LASF70
 1618 043b 06       		.byte	0x6
 1619 043c 52       		.byte	0x52
ARM GAS  C:\Users\LOCALA~1\AppData\Local\Temp\ccJ6EDbl.s 			page 65


 1620 043d B3050000 		.4byte	0x5b3
 1621 0441 D00E     		.2byte	0xed0
 1622 0443 0C       		.uleb128 0xc
 1623 0444 84120000 		.4byte	.LASF71
 1624 0448 06       		.byte	0x6
 1625 0449 53       		.byte	0x53
 1626 044a F6000000 		.4byte	0xf6
 1627 044e 000F     		.2byte	0xf00
 1628 0450 0C       		.uleb128 0xc
 1629 0451 1D050000 		.4byte	.LASF72
 1630 0455 06       		.byte	0x6
 1631 0456 54       		.byte	0x54
 1632 0457 F6000000 		.4byte	0xf6
 1633 045b 040F     		.2byte	0xf04
 1634 045d 0C       		.uleb128 0xc
 1635 045e AC120000 		.4byte	.LASF73
 1636 0462 06       		.byte	0x6
 1637 0463 55       		.byte	0x55
 1638 0464 F6000000 		.4byte	0xf6
 1639 0468 080F     		.2byte	0xf08
 1640 046a 0C       		.uleb128 0xc
 1641 046b 8D050000 		.4byte	.LASF74
 1642 046f 06       		.byte	0x6
 1643 0470 56       		.byte	0x56
 1644 0471 FB000000 		.4byte	0xfb
 1645 0475 0C0F     		.2byte	0xf0c
 1646 0477 0C       		.uleb128 0xc
 1647 0478 D2130000 		.4byte	.LASF75
 1648 047c 06       		.byte	0x6
 1649 047d 57       		.byte	0x57
 1650 047e BD050000 		.4byte	0x5bd
 1651 0482 100F     		.2byte	0xf10
 1652 0484 0C       		.uleb128 0xc
 1653 0485 9D120000 		.4byte	.LASF76
 1654 0489 06       		.byte	0x6
 1655 048a 58       		.byte	0x58
 1656 048b F6000000 		.4byte	0xf6
 1657 048f 400F     		.2byte	0xf40
 1658 0491 0C       		.uleb128 0xc
 1659 0492 82020000 		.4byte	.LASF77
 1660 0496 06       		.byte	0x6
 1661 0497 59       		.byte	0x59
 1662 0498 F6000000 		.4byte	0xf6
 1663 049c 440F     		.2byte	0xf44
 1664 049e 0C       		.uleb128 0xc
 1665 049f 4F0A0000 		.4byte	.LASF78
 1666 04a3 06       		.byte	0x6
 1667 04a4 5A       		.byte	0x5a
 1668 04a5 F6000000 		.4byte	0xf6
 1669 04a9 480F     		.2byte	0xf48
 1670 04ab 0C       		.uleb128 0xc
 1671 04ac 11090000 		.4byte	.LASF79
 1672 04b0 06       		.byte	0x6
 1673 04b1 5B       		.byte	0x5b
 1674 04b2 FB000000 		.4byte	0xfb
 1675 04b6 4C0F     		.2byte	0xf4c
 1676 04b8 0C       		.uleb128 0xc
ARM GAS  C:\Users\LOCALA~1\AppData\Local\Temp\ccJ6EDbl.s 			page 66


 1677 04b9 DD130000 		.4byte	.LASF80
 1678 04bd 06       		.byte	0x6
 1679 04be 5C       		.byte	0x5c
 1680 04bf C7050000 		.4byte	0x5c7
 1681 04c3 500F     		.2byte	0xf50
 1682 04c5 0C       		.uleb128 0xc
 1683 04c6 63050000 		.4byte	.LASF81
 1684 04ca 06       		.byte	0x6
 1685 04cb 5D       		.byte	0x5d
 1686 04cc F6000000 		.4byte	0xf6
 1687 04d0 800F     		.2byte	0xf80
 1688 04d2 0C       		.uleb128 0xc
 1689 04d3 BC020000 		.4byte	.LASF82
 1690 04d7 06       		.byte	0x6
 1691 04d8 5E       		.byte	0x5e
 1692 04d9 F6000000 		.4byte	0xf6
 1693 04dd 840F     		.2byte	0xf84
 1694 04df 0C       		.uleb128 0xc
 1695 04e0 F3000000 		.4byte	.LASF83
 1696 04e4 06       		.byte	0x6
 1697 04e5 5F       		.byte	0x5f
 1698 04e6 F6000000 		.4byte	0xf6
 1699 04ea 880F     		.2byte	0xf88
 1700 04ec 0C       		.uleb128 0xc
 1701 04ed A1100000 		.4byte	.LASF84
 1702 04f1 06       		.byte	0x6
 1703 04f2 60       		.byte	0x60
 1704 04f3 FB000000 		.4byte	0xfb
 1705 04f7 8C0F     		.2byte	0xf8c
 1706 04f9 0C       		.uleb128 0xc
 1707 04fa E8130000 		.4byte	.LASF85
 1708 04fe 06       		.byte	0x6
 1709 04ff 61       		.byte	0x61
 1710 0500 D1050000 		.4byte	0x5d1
 1711 0504 900F     		.2byte	0xf90
 1712 0506 0C       		.uleb128 0xc
 1713 0507 100E0000 		.4byte	.LASF86
 1714 050b 06       		.byte	0x6
 1715 050c 62       		.byte	0x62
 1716 050d F6000000 		.4byte	0xf6
 1717 0511 C00F     		.2byte	0xfc0
 1718 0513 0C       		.uleb128 0xc
 1719 0514 78150000 		.4byte	.LASF87
 1720 0518 06       		.byte	0x6
 1721 0519 63       		.byte	0x63
 1722 051a F6000000 		.4byte	0xf6
 1723 051e C40F     		.2byte	0xfc4
 1724 0520 0C       		.uleb128 0xc
 1725 0521 EB140000 		.4byte	.LASF88
 1726 0525 06       		.byte	0x6
 1727 0526 64       		.byte	0x64
 1728 0527 F6000000 		.4byte	0xf6
 1729 052b C80F     		.2byte	0xfc8
 1730 052d 0C       		.uleb128 0xc
 1731 052e C8020000 		.4byte	.LASF89
 1732 0532 06       		.byte	0x6
 1733 0533 65       		.byte	0x65
ARM GAS  C:\Users\LOCALA~1\AppData\Local\Temp\ccJ6EDbl.s 			page 67


 1734 0534 FB000000 		.4byte	0xfb
 1735 0538 CC0F     		.2byte	0xfcc
 1736 053a 00       		.byte	0
 1737 053b 05       		.uleb128 0x5
 1738 053c 00010000 		.4byte	0x100
 1739 0540 06       		.uleb128 0x6
 1740 0541 3B050000 		.4byte	0x53b
 1741 0545 05       		.uleb128 0x5
 1742 0546 10010000 		.4byte	0x110
 1743 054a 06       		.uleb128 0x6
 1744 054b 45050000 		.4byte	0x545
 1745 054f 05       		.uleb128 0x5
 1746 0550 50010000 		.4byte	0x150
 1747 0554 06       		.uleb128 0x6
 1748 0555 4F050000 		.4byte	0x54f
 1749 0559 05       		.uleb128 0x5
 1750 055a C1010000 		.4byte	0x1c1
 1751 055e 06       		.uleb128 0x6
 1752 055f 59050000 		.4byte	0x559
 1753 0563 05       		.uleb128 0x5
 1754 0564 30010000 		.4byte	0x130
 1755 0568 06       		.uleb128 0x6
 1756 0569 63050000 		.4byte	0x563
 1757 056d 05       		.uleb128 0x5
 1758 056e 90010000 		.4byte	0x190
 1759 0572 06       		.uleb128 0x6
 1760 0573 6D050000 		.4byte	0x56d
 1761 0577 05       		.uleb128 0x5
 1762 0578 80010000 		.4byte	0x180
 1763 057c 06       		.uleb128 0x6
 1764 057d 77050000 		.4byte	0x577
 1765 0581 05       		.uleb128 0x5
 1766 0582 A0010000 		.4byte	0x1a0
 1767 0586 06       		.uleb128 0x6
 1768 0587 81050000 		.4byte	0x581
 1769 058b 05       		.uleb128 0x5
 1770 058c B0010000 		.4byte	0x1b0
 1771 0590 05       		.uleb128 0x5
 1772 0591 20010000 		.4byte	0x120
 1773 0595 06       		.uleb128 0x6
 1774 0596 90050000 		.4byte	0x590
 1775 059a 05       		.uleb128 0x5
 1776 059b 40010000 		.4byte	0x140
 1777 059f 06       		.uleb128 0x6
 1778 05a0 9A050000 		.4byte	0x59a
 1779 05a4 05       		.uleb128 0x5
 1780 05a5 60010000 		.4byte	0x160
 1781 05a9 06       		.uleb128 0x6
 1782 05aa A4050000 		.4byte	0x5a4
 1783 05ae 05       		.uleb128 0x5
 1784 05af 60010000 		.4byte	0x160
 1785 05b3 06       		.uleb128 0x6
 1786 05b4 AE050000 		.4byte	0x5ae
 1787 05b8 05       		.uleb128 0x5
 1788 05b9 60010000 		.4byte	0x160
 1789 05bd 06       		.uleb128 0x6
 1790 05be B8050000 		.4byte	0x5b8
ARM GAS  C:\Users\LOCALA~1\AppData\Local\Temp\ccJ6EDbl.s 			page 68


 1791 05c2 05       		.uleb128 0x5
 1792 05c3 60010000 		.4byte	0x160
 1793 05c7 06       		.uleb128 0x6
 1794 05c8 C2050000 		.4byte	0x5c2
 1795 05cc 05       		.uleb128 0x5
 1796 05cd 60010000 		.4byte	0x160
 1797 05d1 06       		.uleb128 0x6
 1798 05d2 CC050000 		.4byte	0x5cc
 1799 05d6 03       		.uleb128 0x3
 1800 05d7 FC090000 		.4byte	.LASF90
 1801 05db 06       		.byte	0x6
 1802 05dc 66       		.byte	0x66
 1803 05dd D1010000 		.4byte	0x1d1
 1804 05e1 0D       		.uleb128 0xd
 1805 05e2 66040000 		.4byte	.LASF91
 1806 05e6 07       		.byte	0x7
 1807 05e7 4F06     		.2byte	0x64f
 1808 05e9 D6050000 		.4byte	0x5d6
 1809 05ed 02       		.uleb128 0x2
 1810 05ee 08       		.byte	0x8
 1811 05ef 04       		.byte	0x4
 1812 05f0 970E0000 		.4byte	.LASF92
 1813 05f4 0E       		.uleb128 0xe
 1814 05f5 B8       		.byte	0xb8
 1815 05f6 08       		.byte	0x8
 1816 05f7 34       		.byte	0x34
 1817 05f8 050A0000 		.4byte	0xa05
 1818 05fc 0B       		.uleb128 0xb
 1819 05fd 4D020000 		.4byte	.LASF93
 1820 0601 08       		.byte	0x8
 1821 0602 37       		.byte	0x37
 1822 0603 E4000000 		.4byte	0xe4
 1823 0607 00       		.byte	0
 1824 0608 0B       		.uleb128 0xb
 1825 0609 EC090000 		.4byte	.LASF94
 1826 060d 08       		.byte	0x8
 1827 060e 38       		.byte	0x38
 1828 060f E4000000 		.4byte	0xe4
 1829 0613 04       		.byte	0x4
 1830 0614 0B       		.uleb128 0xb
 1831 0615 00010000 		.4byte	.LASF95
 1832 0619 08       		.byte	0x8
 1833 061a 39       		.byte	0x39
 1834 061b E4000000 		.4byte	0xe4
 1835 061f 08       		.byte	0x8
 1836 0620 0B       		.uleb128 0xb
 1837 0621 DB000000 		.4byte	.LASF96
 1838 0625 08       		.byte	0x8
 1839 0626 3A       		.byte	0x3a
 1840 0627 E4000000 		.4byte	0xe4
 1841 062b 0C       		.byte	0xc
 1842 062c 0B       		.uleb128 0xb
 1843 062d BD0E0000 		.4byte	.LASF97
 1844 0631 08       		.byte	0x8
 1845 0632 3B       		.byte	0x3b
 1846 0633 E4000000 		.4byte	0xe4
 1847 0637 10       		.byte	0x10
ARM GAS  C:\Users\LOCALA~1\AppData\Local\Temp\ccJ6EDbl.s 			page 69


 1848 0638 0B       		.uleb128 0xb
 1849 0639 EF0C0000 		.4byte	.LASF98
 1850 063d 08       		.byte	0x8
 1851 063e 3C       		.byte	0x3c
 1852 063f E4000000 		.4byte	0xe4
 1853 0643 14       		.byte	0x14
 1854 0644 0B       		.uleb128 0xb
 1855 0645 FC080000 		.4byte	.LASF99
 1856 0649 08       		.byte	0x8
 1857 064a 3D       		.byte	0x3d
 1858 064b E4000000 		.4byte	0xe4
 1859 064f 18       		.byte	0x18
 1860 0650 0B       		.uleb128 0xb
 1861 0651 5B150000 		.4byte	.LASF100
 1862 0655 08       		.byte	0x8
 1863 0656 3E       		.byte	0x3e
 1864 0657 E4000000 		.4byte	0xe4
 1865 065b 1C       		.byte	0x1c
 1866 065c 0B       		.uleb128 0xb
 1867 065d 9A0B0000 		.4byte	.LASF101
 1868 0661 08       		.byte	0x8
 1869 0662 3F       		.byte	0x3f
 1870 0663 E4000000 		.4byte	0xe4
 1871 0667 20       		.byte	0x20
 1872 0668 0B       		.uleb128 0xb
 1873 0669 96090000 		.4byte	.LASF102
 1874 066d 08       		.byte	0x8
 1875 066e 40       		.byte	0x40
 1876 066f E4000000 		.4byte	0xe4
 1877 0673 24       		.byte	0x24
 1878 0674 0B       		.uleb128 0xb
 1879 0675 6E100000 		.4byte	.LASF103
 1880 0679 08       		.byte	0x8
 1881 067a 43       		.byte	0x43
 1882 067b B8000000 		.4byte	0xb8
 1883 067f 28       		.byte	0x28
 1884 0680 0B       		.uleb128 0xb
 1885 0681 7F050000 		.4byte	.LASF104
 1886 0685 08       		.byte	0x8
 1887 0686 44       		.byte	0x44
 1888 0687 B8000000 		.4byte	0xb8
 1889 068b 29       		.byte	0x29
 1890 068c 0B       		.uleb128 0xb
 1891 068d 4D0F0000 		.4byte	.LASF105
 1892 0691 08       		.byte	0x8
 1893 0692 45       		.byte	0x45
 1894 0693 B8000000 		.4byte	0xb8
 1895 0697 2A       		.byte	0x2a
 1896 0698 0B       		.uleb128 0xb
 1897 0699 BD100000 		.4byte	.LASF106
 1898 069d 08       		.byte	0x8
 1899 069e 46       		.byte	0x46
 1900 069f B8000000 		.4byte	0xb8
 1901 06a3 2B       		.byte	0x2b
 1902 06a4 0B       		.uleb128 0xb
 1903 06a5 95100000 		.4byte	.LASF107
 1904 06a9 08       		.byte	0x8
ARM GAS  C:\Users\LOCALA~1\AppData\Local\Temp\ccJ6EDbl.s 			page 70


 1905 06aa 47       		.byte	0x47
 1906 06ab B8000000 		.4byte	0xb8
 1907 06af 2C       		.byte	0x2c
 1908 06b0 0B       		.uleb128 0xb
 1909 06b1 65120000 		.4byte	.LASF108
 1910 06b5 08       		.byte	0x8
 1911 06b6 48       		.byte	0x48
 1912 06b7 B8000000 		.4byte	0xb8
 1913 06bb 2D       		.byte	0x2d
 1914 06bc 0B       		.uleb128 0xb
 1915 06bd 17170000 		.4byte	.LASF109
 1916 06c1 08       		.byte	0x8
 1917 06c2 49       		.byte	0x49
 1918 06c3 B8000000 		.4byte	0xb8
 1919 06c7 2E       		.byte	0x2e
 1920 06c8 0B       		.uleb128 0xb
 1921 06c9 39150000 		.4byte	.LASF110
 1922 06cd 08       		.byte	0x8
 1923 06ce 4A       		.byte	0x4a
 1924 06cf B8000000 		.4byte	0xb8
 1925 06d3 2F       		.byte	0x2f
 1926 06d4 0B       		.uleb128 0xb
 1927 06d5 FF030000 		.4byte	.LASF111
 1928 06d9 08       		.byte	0x8
 1929 06da 4B       		.byte	0x4b
 1930 06db B8000000 		.4byte	0xb8
 1931 06df 30       		.byte	0x30
 1932 06e0 0B       		.uleb128 0xb
 1933 06e1 920D0000 		.4byte	.LASF112
 1934 06e5 08       		.byte	0x8
 1935 06e6 4E       		.byte	0x4e
 1936 06e7 B8000000 		.4byte	0xb8
 1937 06eb 31       		.byte	0x31
 1938 06ec 0B       		.uleb128 0xb
 1939 06ed DD140000 		.4byte	.LASF113
 1940 06f1 08       		.byte	0x8
 1941 06f2 4F       		.byte	0x4f
 1942 06f3 B8000000 		.4byte	0xb8
 1943 06f7 32       		.byte	0x32
 1944 06f8 0B       		.uleb128 0xb
 1945 06f9 370D0000 		.4byte	.LASF114
 1946 06fd 08       		.byte	0x8
 1947 06fe 50       		.byte	0x50
 1948 06ff B8000000 		.4byte	0xb8
 1949 0703 33       		.byte	0x33
 1950 0704 0B       		.uleb128 0xb
 1951 0705 CE090000 		.4byte	.LASF115
 1952 0709 08       		.byte	0x8
 1953 070a 51       		.byte	0x51
 1954 070b B8000000 		.4byte	0xb8
 1955 070f 34       		.byte	0x34
 1956 0710 0B       		.uleb128 0xb
 1957 0711 5D060000 		.4byte	.LASF116
 1958 0715 08       		.byte	0x8
 1959 0716 52       		.byte	0x52
 1960 0717 C3000000 		.4byte	0xc3
 1961 071b 36       		.byte	0x36
ARM GAS  C:\Users\LOCALA~1\AppData\Local\Temp\ccJ6EDbl.s 			page 71


 1962 071c 0B       		.uleb128 0xb
 1963 071d 77020000 		.4byte	.LASF117
 1964 0721 08       		.byte	0x8
 1965 0722 53       		.byte	0x53
 1966 0723 C3000000 		.4byte	0xc3
 1967 0727 38       		.byte	0x38
 1968 0728 0B       		.uleb128 0xb
 1969 0729 140D0000 		.4byte	.LASF118
 1970 072d 08       		.byte	0x8
 1971 072e 54       		.byte	0x54
 1972 072f C3000000 		.4byte	0xc3
 1973 0733 3A       		.byte	0x3a
 1974 0734 0B       		.uleb128 0xb
 1975 0735 8E150000 		.4byte	.LASF119
 1976 0739 08       		.byte	0x8
 1977 073a 55       		.byte	0x55
 1978 073b B8000000 		.4byte	0xb8
 1979 073f 3C       		.byte	0x3c
 1980 0740 0B       		.uleb128 0xb
 1981 0741 9F070000 		.4byte	.LASF120
 1982 0745 08       		.byte	0x8
 1983 0746 56       		.byte	0x56
 1984 0747 B8000000 		.4byte	0xb8
 1985 074b 3D       		.byte	0x3d
 1986 074c 0B       		.uleb128 0xb
 1987 074d 090F0000 		.4byte	.LASF121
 1988 0751 08       		.byte	0x8
 1989 0752 57       		.byte	0x57
 1990 0753 B8000000 		.4byte	0xb8
 1991 0757 3E       		.byte	0x3e
 1992 0758 0B       		.uleb128 0xb
 1993 0759 AA000000 		.4byte	.LASF122
 1994 075d 08       		.byte	0x8
 1995 075e 58       		.byte	0x58
 1996 075f B8000000 		.4byte	0xb8
 1997 0763 3F       		.byte	0x3f
 1998 0764 0B       		.uleb128 0xb
 1999 0765 9A010000 		.4byte	.LASF123
 2000 0769 08       		.byte	0x8
 2001 076a 59       		.byte	0x59
 2002 076b B8000000 		.4byte	0xb8
 2003 076f 40       		.byte	0x40
 2004 0770 0B       		.uleb128 0xb
 2005 0771 C00D0000 		.4byte	.LASF124
 2006 0775 08       		.byte	0x8
 2007 0776 5A       		.byte	0x5a
 2008 0777 B8000000 		.4byte	0xb8
 2009 077b 41       		.byte	0x41
 2010 077c 0B       		.uleb128 0xb
 2011 077d A9140000 		.4byte	.LASF125
 2012 0781 08       		.byte	0x8
 2013 0782 5B       		.byte	0x5b
 2014 0783 B8000000 		.4byte	0xb8
 2015 0787 42       		.byte	0x42
 2016 0788 0B       		.uleb128 0xb
 2017 0789 5D090000 		.4byte	.LASF126
 2018 078d 08       		.byte	0x8
ARM GAS  C:\Users\LOCALA~1\AppData\Local\Temp\ccJ6EDbl.s 			page 72


 2019 078e 5C       		.byte	0x5c
 2020 078f B8000000 		.4byte	0xb8
 2021 0793 43       		.byte	0x43
 2022 0794 0B       		.uleb128 0xb
 2023 0795 5B0A0000 		.4byte	.LASF127
 2024 0799 08       		.byte	0x8
 2025 079a 5D       		.byte	0x5d
 2026 079b B8000000 		.4byte	0xb8
 2027 079f 44       		.byte	0x44
 2028 07a0 0B       		.uleb128 0xb
 2029 07a1 CB100000 		.4byte	.LASF128
 2030 07a5 08       		.byte	0x8
 2031 07a6 5E       		.byte	0x5e
 2032 07a7 E4000000 		.4byte	0xe4
 2033 07ab 48       		.byte	0x48
 2034 07ac 0B       		.uleb128 0xb
 2035 07ad 7D0A0000 		.4byte	.LASF129
 2036 07b1 08       		.byte	0x8
 2037 07b2 5F       		.byte	0x5f
 2038 07b3 E4000000 		.4byte	0xe4
 2039 07b7 4C       		.byte	0x4c
 2040 07b8 0B       		.uleb128 0xb
 2041 07b9 5F0E0000 		.4byte	.LASF130
 2042 07bd 08       		.byte	0x8
 2043 07be 60       		.byte	0x60
 2044 07bf B8000000 		.4byte	0xb8
 2045 07c3 50       		.byte	0x50
 2046 07c4 0B       		.uleb128 0xb
 2047 07c5 0B130000 		.4byte	.LASF131
 2048 07c9 08       		.byte	0x8
 2049 07ca 61       		.byte	0x61
 2050 07cb B8000000 		.4byte	0xb8
 2051 07cf 51       		.byte	0x51
 2052 07d0 0B       		.uleb128 0xb
 2053 07d1 37090000 		.4byte	.LASF132
 2054 07d5 08       		.byte	0x8
 2055 07d6 62       		.byte	0x62
 2056 07d7 B8000000 		.4byte	0xb8
 2057 07db 52       		.byte	0x52
 2058 07dc 0B       		.uleb128 0xb
 2059 07dd 9B050000 		.4byte	.LASF133
 2060 07e1 08       		.byte	0x8
 2061 07e2 63       		.byte	0x63
 2062 07e3 B8000000 		.4byte	0xb8
 2063 07e7 53       		.byte	0x53
 2064 07e8 0B       		.uleb128 0xb
 2065 07e9 56070000 		.4byte	.LASF134
 2066 07ed 08       		.byte	0x8
 2067 07ee 64       		.byte	0x64
 2068 07ef B8000000 		.4byte	0xb8
 2069 07f3 54       		.byte	0x54
 2070 07f4 0B       		.uleb128 0xb
 2071 07f5 9C080000 		.4byte	.LASF135
 2072 07f9 08       		.byte	0x8
 2073 07fa 65       		.byte	0x65
 2074 07fb B8000000 		.4byte	0xb8
 2075 07ff 55       		.byte	0x55
ARM GAS  C:\Users\LOCALA~1\AppData\Local\Temp\ccJ6EDbl.s 			page 73


 2076 0800 0B       		.uleb128 0xb
 2077 0801 00000000 		.4byte	.LASF136
 2078 0805 08       		.byte	0x8
 2079 0806 66       		.byte	0x66
 2080 0807 B8000000 		.4byte	0xb8
 2081 080b 56       		.byte	0x56
 2082 080c 0B       		.uleb128 0xb
 2083 080d 64150000 		.4byte	.LASF137
 2084 0811 08       		.byte	0x8
 2085 0812 67       		.byte	0x67
 2086 0813 B8000000 		.4byte	0xb8
 2087 0817 57       		.byte	0x57
 2088 0818 0B       		.uleb128 0xb
 2089 0819 8B070000 		.4byte	.LASF138
 2090 081d 08       		.byte	0x8
 2091 081e 68       		.byte	0x68
 2092 081f B8000000 		.4byte	0xb8
 2093 0823 58       		.byte	0x58
 2094 0824 0B       		.uleb128 0xb
 2095 0825 BD150000 		.4byte	.LASF139
 2096 0829 08       		.byte	0x8
 2097 082a 69       		.byte	0x69
 2098 082b B8000000 		.4byte	0xb8
 2099 082f 59       		.byte	0x59
 2100 0830 0B       		.uleb128 0xb
 2101 0831 C8140000 		.4byte	.LASF140
 2102 0835 08       		.byte	0x8
 2103 0836 6E       		.byte	0x6e
 2104 0837 CE000000 		.4byte	0xce
 2105 083b 5A       		.byte	0x5a
 2106 083c 0B       		.uleb128 0xb
 2107 083d 30010000 		.4byte	.LASF141
 2108 0841 08       		.byte	0x8
 2109 0842 6F       		.byte	0x6f
 2110 0843 CE000000 		.4byte	0xce
 2111 0847 5C       		.byte	0x5c
 2112 0848 0B       		.uleb128 0xb
 2113 0849 A20B0000 		.4byte	.LASF142
 2114 084d 08       		.byte	0x8
 2115 084e 70       		.byte	0x70
 2116 084f B8000000 		.4byte	0xb8
 2117 0853 5E       		.byte	0x5e
 2118 0854 0B       		.uleb128 0xb
 2119 0855 F8140000 		.4byte	.LASF143
 2120 0859 08       		.byte	0x8
 2121 085a 71       		.byte	0x71
 2122 085b B8000000 		.4byte	0xb8
 2123 085f 5F       		.byte	0x5f
 2124 0860 0B       		.uleb128 0xb
 2125 0861 68090000 		.4byte	.LASF144
 2126 0865 08       		.byte	0x8
 2127 0866 72       		.byte	0x72
 2128 0867 B8000000 		.4byte	0xb8
 2129 086b 60       		.byte	0x60
 2130 086c 0B       		.uleb128 0xb
 2131 086d CD0A0000 		.4byte	.LASF145
 2132 0871 08       		.byte	0x8
ARM GAS  C:\Users\LOCALA~1\AppData\Local\Temp\ccJ6EDbl.s 			page 74


 2133 0872 73       		.byte	0x73
 2134 0873 E4000000 		.4byte	0xe4
 2135 0877 64       		.byte	0x64
 2136 0878 0B       		.uleb128 0xb
 2137 0879 46170000 		.4byte	.LASF146
 2138 087d 08       		.byte	0x8
 2139 087e 76       		.byte	0x76
 2140 087f CE000000 		.4byte	0xce
 2141 0883 68       		.byte	0x68
 2142 0884 0B       		.uleb128 0xb
 2143 0885 AA020000 		.4byte	.LASF147
 2144 0889 08       		.byte	0x8
 2145 088a 77       		.byte	0x77
 2146 088b CE000000 		.4byte	0xce
 2147 088f 6A       		.byte	0x6a
 2148 0890 0B       		.uleb128 0xb
 2149 0891 050D0000 		.4byte	.LASF148
 2150 0895 08       		.byte	0x8
 2151 0896 78       		.byte	0x78
 2152 0897 CE000000 		.4byte	0xce
 2153 089b 6C       		.byte	0x6c
 2154 089c 0B       		.uleb128 0xb
 2155 089d 2A030000 		.4byte	.LASF149
 2156 08a1 08       		.byte	0x8
 2157 08a2 79       		.byte	0x79
 2158 08a3 CE000000 		.4byte	0xce
 2159 08a7 6E       		.byte	0x6e
 2160 08a8 0B       		.uleb128 0xb
 2161 08a9 030B0000 		.4byte	.LASF150
 2162 08ad 08       		.byte	0x8
 2163 08ae 7B       		.byte	0x7b
 2164 08af B8000000 		.4byte	0xb8
 2165 08b3 70       		.byte	0x70
 2166 08b4 0B       		.uleb128 0xb
 2167 08b5 3B040000 		.4byte	.LASF151
 2168 08b9 08       		.byte	0x8
 2169 08ba 7C       		.byte	0x7c
 2170 08bb B8000000 		.4byte	0xb8
 2171 08bf 71       		.byte	0x71
 2172 08c0 0B       		.uleb128 0xb
 2173 08c1 37030000 		.4byte	.LASF152
 2174 08c5 08       		.byte	0x8
 2175 08c6 7D       		.byte	0x7d
 2176 08c7 B8000000 		.4byte	0xb8
 2177 08cb 72       		.byte	0x72
 2178 08cc 0B       		.uleb128 0xb
 2179 08cd C1010000 		.4byte	.LASF153
 2180 08d1 08       		.byte	0x8
 2181 08d2 7E       		.byte	0x7e
 2182 08d3 B8000000 		.4byte	0xb8
 2183 08d7 73       		.byte	0x73
 2184 08d8 0B       		.uleb128 0xb
 2185 08d9 CD0F0000 		.4byte	.LASF154
 2186 08dd 08       		.byte	0x8
 2187 08de 80       		.byte	0x80
 2188 08df CE000000 		.4byte	0xce
 2189 08e3 74       		.byte	0x74
ARM GAS  C:\Users\LOCALA~1\AppData\Local\Temp\ccJ6EDbl.s 			page 75


 2190 08e4 0B       		.uleb128 0xb
 2191 08e5 270E0000 		.4byte	.LASF155
 2192 08e9 08       		.byte	0x8
 2193 08ea 81       		.byte	0x81
 2194 08eb CE000000 		.4byte	0xce
 2195 08ef 76       		.byte	0x76
 2196 08f0 0B       		.uleb128 0xb
 2197 08f1 1F0A0000 		.4byte	.LASF156
 2198 08f5 08       		.byte	0x8
 2199 08f6 82       		.byte	0x82
 2200 08f7 CE000000 		.4byte	0xce
 2201 08fb 78       		.byte	0x78
 2202 08fc 0B       		.uleb128 0xb
 2203 08fd 27060000 		.4byte	.LASF157
 2204 0901 08       		.byte	0x8
 2205 0902 83       		.byte	0x83
 2206 0903 CE000000 		.4byte	0xce
 2207 0907 7A       		.byte	0x7a
 2208 0908 0B       		.uleb128 0xb
 2209 0909 D4110000 		.4byte	.LASF158
 2210 090d 08       		.byte	0x8
 2211 090e 86       		.byte	0x86
 2212 090f B8000000 		.4byte	0xb8
 2213 0913 7C       		.byte	0x7c
 2214 0914 0B       		.uleb128 0xb
 2215 0915 80130000 		.4byte	.LASF159
 2216 0919 08       		.byte	0x8
 2217 091a 87       		.byte	0x87
 2218 091b B8000000 		.4byte	0xb8
 2219 091f 7D       		.byte	0x7d
 2220 0920 0B       		.uleb128 0xb
 2221 0921 A10C0000 		.4byte	.LASF160
 2222 0925 08       		.byte	0x8
 2223 0926 88       		.byte	0x88
 2224 0927 B8000000 		.4byte	0xb8
 2225 092b 7E       		.byte	0x7e
 2226 092c 0B       		.uleb128 0xb
 2227 092d 43050000 		.4byte	.LASF161
 2228 0931 08       		.byte	0x8
 2229 0932 89       		.byte	0x89
 2230 0933 B8000000 		.4byte	0xb8
 2231 0937 7F       		.byte	0x7f
 2232 0938 0B       		.uleb128 0xb
 2233 0939 3C060000 		.4byte	.LASF162
 2234 093d 08       		.byte	0x8
 2235 093e 8A       		.byte	0x8a
 2236 093f B8000000 		.4byte	0xb8
 2237 0943 80       		.byte	0x80
 2238 0944 0B       		.uleb128 0xb
 2239 0945 93000000 		.4byte	.LASF163
 2240 0949 08       		.byte	0x8
 2241 094a 8D       		.byte	0x8d
 2242 094b E4000000 		.4byte	0xe4
 2243 094f 84       		.byte	0x84
 2244 0950 0B       		.uleb128 0xb
 2245 0951 08120000 		.4byte	.LASF164
 2246 0955 08       		.byte	0x8
ARM GAS  C:\Users\LOCALA~1\AppData\Local\Temp\ccJ6EDbl.s 			page 76


 2247 0956 8E       		.byte	0x8e
 2248 0957 E4000000 		.4byte	0xe4
 2249 095b 88       		.byte	0x88
 2250 095c 0B       		.uleb128 0xb
 2251 095d F9060000 		.4byte	.LASF165
 2252 0961 08       		.byte	0x8
 2253 0962 8F       		.byte	0x8f
 2254 0963 E4000000 		.4byte	0xe4
 2255 0967 8C       		.byte	0x8c
 2256 0968 0B       		.uleb128 0xb
 2257 0969 E0120000 		.4byte	.LASF166
 2258 096d 08       		.byte	0x8
 2259 096e 90       		.byte	0x90
 2260 096f E4000000 		.4byte	0xe4
 2261 0973 90       		.byte	0x90
 2262 0974 0B       		.uleb128 0xb
 2263 0975 FB0D0000 		.4byte	.LASF167
 2264 0979 08       		.byte	0x8
 2265 097a 91       		.byte	0x91
 2266 097b E4000000 		.4byte	0xe4
 2267 097f 94       		.byte	0x94
 2268 0980 0B       		.uleb128 0xb
 2269 0981 50040000 		.4byte	.LASF168
 2270 0985 08       		.byte	0x8
 2271 0986 92       		.byte	0x92
 2272 0987 E4000000 		.4byte	0xe4
 2273 098b 98       		.byte	0x98
 2274 098c 0B       		.uleb128 0xb
 2275 098d 27120000 		.4byte	.LASF169
 2276 0991 08       		.byte	0x8
 2277 0992 93       		.byte	0x93
 2278 0993 E4000000 		.4byte	0xe4
 2279 0997 9C       		.byte	0x9c
 2280 0998 0B       		.uleb128 0xb
 2281 0999 47090000 		.4byte	.LASF170
 2282 099d 08       		.byte	0x8
 2283 099e 94       		.byte	0x94
 2284 099f E4000000 		.4byte	0xe4
 2285 09a3 A0       		.byte	0xa0
 2286 09a4 0B       		.uleb128 0xb
 2287 09a5 1B010000 		.4byte	.LASF171
 2288 09a9 08       		.byte	0x8
 2289 09aa 95       		.byte	0x95
 2290 09ab CE000000 		.4byte	0xce
 2291 09af A4       		.byte	0xa4
 2292 09b0 0B       		.uleb128 0xb
 2293 09b1 A70F0000 		.4byte	.LASF172
 2294 09b5 08       		.byte	0x8
 2295 09b6 96       		.byte	0x96
 2296 09b7 CE000000 		.4byte	0xce
 2297 09bb A6       		.byte	0xa6
 2298 09bc 0B       		.uleb128 0xb
 2299 09bd 8B120000 		.4byte	.LASF173
 2300 09c1 08       		.byte	0x8
 2301 09c2 97       		.byte	0x97
 2302 09c3 CE000000 		.4byte	0xce
 2303 09c7 A8       		.byte	0xa8
ARM GAS  C:\Users\LOCALA~1\AppData\Local\Temp\ccJ6EDbl.s 			page 77


 2304 09c8 0B       		.uleb128 0xb
 2305 09c9 7E0B0000 		.4byte	.LASF174
 2306 09cd 08       		.byte	0x8
 2307 09ce 98       		.byte	0x98
 2308 09cf CE000000 		.4byte	0xce
 2309 09d3 AA       		.byte	0xaa
 2310 09d4 0B       		.uleb128 0xb
 2311 09d5 7B030000 		.4byte	.LASF175
 2312 09d9 08       		.byte	0x8
 2313 09da 99       		.byte	0x99
 2314 09db CE000000 		.4byte	0xce
 2315 09df AC       		.byte	0xac
 2316 09e0 0B       		.uleb128 0xb
 2317 09e1 E10D0000 		.4byte	.LASF176
 2318 09e5 08       		.byte	0x8
 2319 09e6 9A       		.byte	0x9a
 2320 09e7 CE000000 		.4byte	0xce
 2321 09eb AE       		.byte	0xae
 2322 09ec 0B       		.uleb128 0xb
 2323 09ed B4030000 		.4byte	.LASF177
 2324 09f1 08       		.byte	0x8
 2325 09f2 9D       		.byte	0x9d
 2326 09f3 CE000000 		.4byte	0xce
 2327 09f7 B0       		.byte	0xb0
 2328 09f8 0B       		.uleb128 0xb
 2329 09f9 4A130000 		.4byte	.LASF178
 2330 09fd 08       		.byte	0x8
 2331 09fe 9E       		.byte	0x9e
 2332 09ff E4000000 		.4byte	0xe4
 2333 0a03 B4       		.byte	0xb4
 2334 0a04 00       		.byte	0
 2335 0a05 03       		.uleb128 0x3
 2336 0a06 A5040000 		.4byte	.LASF179
 2337 0a0a 08       		.byte	0x8
 2338 0a0b 9F       		.byte	0x9f
 2339 0a0c F4050000 		.4byte	0x5f4
 2340 0a10 0D       		.uleb128 0xd
 2341 0a11 15110000 		.4byte	.LASF180
 2342 0a15 09       		.byte	0x9
 2343 0a16 F601     		.2byte	0x1f6
 2344 0a18 1C0A0000 		.4byte	0xa1c
 2345 0a1c 02       		.uleb128 0x2
 2346 0a1d 01       		.byte	0x1
 2347 0a1e 08       		.byte	0x8
 2348 0a1f F7090000 		.4byte	.LASF181
 2349 0a23 02       		.uleb128 0x2
 2350 0a24 04       		.byte	0x4
 2351 0a25 04       		.byte	0x4
 2352 0a26 97120000 		.4byte	.LASF182
 2353 0a2a 02       		.uleb128 0x2
 2354 0a2b 08       		.byte	0x8
 2355 0a2c 04       		.byte	0x4
 2356 0a2d 4C080000 		.4byte	.LASF183
 2357 0a31 0F       		.uleb128 0xf
 2358 0a32 04       		.byte	0x4
 2359 0a33 02       		.uleb128 0x2
 2360 0a34 01       		.byte	0x1
ARM GAS  C:\Users\LOCALA~1\AppData\Local\Temp\ccJ6EDbl.s 			page 78


 2361 0a35 02       		.byte	0x2
 2362 0a36 53080000 		.4byte	.LASF184
 2363 0a3a 10       		.uleb128 0x10
 2364 0a3b 01       		.byte	0x1
 2365 0a3c 49000000 		.4byte	0x49
 2366 0a40 0A       		.byte	0xa
 2367 0a41 1304     		.2byte	0x413
 2368 0a43 600A0000 		.4byte	0xa60
 2369 0a47 11       		.uleb128 0x11
 2370 0a48 350F0000 		.4byte	.LASF185
 2371 0a4c 00       		.byte	0
 2372 0a4d 11       		.uleb128 0x11
 2373 0a4e BC060000 		.4byte	.LASF186
 2374 0a52 01       		.byte	0x1
 2375 0a53 11       		.uleb128 0x11
 2376 0a54 FD100000 		.4byte	.LASF187
 2377 0a58 02       		.byte	0x2
 2378 0a59 11       		.uleb128 0x11
 2379 0a5a A7010000 		.4byte	.LASF188
 2380 0a5e 03       		.byte	0x3
 2381 0a5f 00       		.byte	0
 2382 0a60 0D       		.uleb128 0xd
 2383 0a61 EA150000 		.4byte	.LASF189
 2384 0a65 0A       		.byte	0xa
 2385 0a66 1804     		.2byte	0x418
 2386 0a68 3A0A0000 		.4byte	0xa3a
 2387 0a6c 12       		.uleb128 0x12
 2388 0a6d 78       		.byte	0x78
 2389 0a6e 0A       		.byte	0xa
 2390 0a6f 0205     		.2byte	0x502
 2391 0a71 390B0000 		.4byte	0xb39
 2392 0a75 13       		.uleb128 0x13
 2393 0a76 0E070000 		.4byte	.LASF190
 2394 0a7a 0A       		.byte	0xa
 2395 0a7b 0405     		.2byte	0x504
 2396 0a7d E4000000 		.4byte	0xe4
 2397 0a81 00       		.byte	0
 2398 0a82 13       		.uleb128 0x13
 2399 0a83 F5120000 		.4byte	.LASF191
 2400 0a87 0A       		.byte	0xa
 2401 0a88 0505     		.2byte	0x505
 2402 0a8a E4000000 		.4byte	0xe4
 2403 0a8e 04       		.byte	0x4
 2404 0a8f 13       		.uleb128 0x13
 2405 0a90 F40E0000 		.4byte	.LASF192
 2406 0a94 0A       		.byte	0xa
 2407 0a95 0605     		.2byte	0x506
 2408 0a97 E4000000 		.4byte	0xe4
 2409 0a9b 08       		.byte	0x8
 2410 0a9c 13       		.uleb128 0x13
 2411 0a9d 3D120000 		.4byte	.LASF193
 2412 0aa1 0A       		.byte	0xa
 2413 0aa2 0705     		.2byte	0x507
 2414 0aa4 E4000000 		.4byte	0xe4
 2415 0aa8 0C       		.byte	0xc
 2416 0aa9 13       		.uleb128 0x13
 2417 0aaa 94060000 		.4byte	.LASF194
ARM GAS  C:\Users\LOCALA~1\AppData\Local\Temp\ccJ6EDbl.s 			page 79


 2418 0aae 0A       		.byte	0xa
 2419 0aaf 0805     		.2byte	0x508
 2420 0ab1 E4000000 		.4byte	0xe4
 2421 0ab5 10       		.byte	0x10
 2422 0ab6 13       		.uleb128 0x13
 2423 0ab7 5F0B0000 		.4byte	.LASF195
 2424 0abb 0A       		.byte	0xa
 2425 0abc 0905     		.2byte	0x509
 2426 0abe 600A0000 		.4byte	0xa60
 2427 0ac2 14       		.byte	0x14
 2428 0ac3 13       		.uleb128 0x13
 2429 0ac4 0A0A0000 		.4byte	.LASF196
 2430 0ac8 0A       		.byte	0xa
 2431 0ac9 0A05     		.2byte	0x50a
 2432 0acb E4000000 		.4byte	0xe4
 2433 0acf 18       		.byte	0x18
 2434 0ad0 13       		.uleb128 0x13
 2435 0ad1 21150000 		.4byte	.LASF197
 2436 0ad5 0A       		.byte	0xa
 2437 0ad6 0B05     		.2byte	0x50b
 2438 0ad8 390B0000 		.4byte	0xb39
 2439 0adc 1C       		.byte	0x1c
 2440 0add 13       		.uleb128 0x13
 2441 0ade 3D170000 		.4byte	.LASF198
 2442 0ae2 0A       		.byte	0xa
 2443 0ae3 0C05     		.2byte	0x50c
 2444 0ae5 E4000000 		.4byte	0xe4
 2445 0ae9 5C       		.byte	0x5c
 2446 0aea 13       		.uleb128 0x13
 2447 0aeb 6F030000 		.4byte	.LASF199
 2448 0aef 0A       		.byte	0xa
 2449 0af0 0D05     		.2byte	0x50d
 2450 0af2 E4000000 		.4byte	0xe4
 2451 0af6 60       		.byte	0x60
 2452 0af7 13       		.uleb128 0x13
 2453 0af8 D1150000 		.4byte	.LASF200
 2454 0afc 0A       		.byte	0xa
 2455 0afd 0E05     		.2byte	0x50e
 2456 0aff E4000000 		.4byte	0xe4
 2457 0b03 64       		.byte	0x64
 2458 0b04 13       		.uleb128 0x13
 2459 0b05 700E0000 		.4byte	.LASF201
 2460 0b09 0A       		.byte	0xa
 2461 0b0a 0F05     		.2byte	0x50f
 2462 0b0c E4000000 		.4byte	0xe4
 2463 0b10 68       		.byte	0x68
 2464 0b11 13       		.uleb128 0x13
 2465 0b12 260B0000 		.4byte	.LASF202
 2466 0b16 0A       		.byte	0xa
 2467 0b17 1005     		.2byte	0x510
 2468 0b19 E4000000 		.4byte	0xe4
 2469 0b1d 6C       		.byte	0x6c
 2470 0b1e 13       		.uleb128 0x13
 2471 0b1f 4D150000 		.4byte	.LASF203
 2472 0b23 0A       		.byte	0xa
 2473 0b24 1105     		.2byte	0x511
 2474 0b26 330A0000 		.4byte	0xa33
ARM GAS  C:\Users\LOCALA~1\AppData\Local\Temp\ccJ6EDbl.s 			page 80


 2475 0b2a 70       		.byte	0x70
 2476 0b2b 13       		.uleb128 0x13
 2477 0b2c 8A090000 		.4byte	.LASF204
 2478 0b30 0A       		.byte	0xa
 2479 0b31 1205     		.2byte	0x512
 2480 0b33 E4000000 		.4byte	0xe4
 2481 0b37 74       		.byte	0x74
 2482 0b38 00       		.byte	0
 2483 0b39 07       		.uleb128 0x7
 2484 0b3a E4000000 		.4byte	0xe4
 2485 0b3e 490B0000 		.4byte	0xb49
 2486 0b42 08       		.uleb128 0x8
 2487 0b43 EF000000 		.4byte	0xef
 2488 0b47 0F       		.byte	0xf
 2489 0b48 00       		.byte	0
 2490 0b49 0D       		.uleb128 0xd
 2491 0b4a E5060000 		.4byte	.LASF205
 2492 0b4e 0A       		.byte	0xa
 2493 0b4f 1305     		.2byte	0x513
 2494 0b51 6C0A0000 		.4byte	0xa6c
 2495 0b55 10       		.uleb128 0x10
 2496 0b56 01       		.byte	0x1
 2497 0b57 49000000 		.4byte	0x49
 2498 0b5b 0B       		.byte	0xb
 2499 0b5c 2402     		.2byte	0x224
 2500 0b5e 6F0B0000 		.4byte	0xb6f
 2501 0b62 11       		.uleb128 0x11
 2502 0b63 D7020000 		.4byte	.LASF206
 2503 0b67 00       		.byte	0
 2504 0b68 11       		.uleb128 0x11
 2505 0b69 C2030000 		.4byte	.LASF207
 2506 0b6d 01       		.byte	0x1
 2507 0b6e 00       		.byte	0
 2508 0b6f 0D       		.uleb128 0xd
 2509 0b70 12030000 		.4byte	.LASF208
 2510 0b74 0B       		.byte	0xb
 2511 0b75 2702     		.2byte	0x227
 2512 0b77 550B0000 		.4byte	0xb55
 2513 0b7b 0D       		.uleb128 0xd
 2514 0b7c 61010000 		.4byte	.LASF209
 2515 0b80 0B       		.byte	0xb
 2516 0b81 3902     		.2byte	0x239
 2517 0b83 870B0000 		.4byte	0xb87
 2518 0b87 14       		.uleb128 0x14
 2519 0b88 04       		.byte	0x4
 2520 0b89 8D0B0000 		.4byte	0xb8d
 2521 0b8d 15       		.uleb128 0x15
 2522 0b8e 980B0000 		.4byte	0xb98
 2523 0b92 16       		.uleb128 0x16
 2524 0b93 E4000000 		.4byte	0xe4
 2525 0b97 00       		.byte	0
 2526 0b98 0D       		.uleb128 0xd
 2527 0b99 D1030000 		.4byte	.LASF210
 2528 0b9d 0B       		.byte	0xb
 2529 0b9e 4402     		.2byte	0x244
 2530 0ba0 A40B0000 		.4byte	0xba4
 2531 0ba4 14       		.uleb128 0x14
ARM GAS  C:\Users\LOCALA~1\AppData\Local\Temp\ccJ6EDbl.s 			page 81


 2532 0ba5 04       		.byte	0x4
 2533 0ba6 AA0B0000 		.4byte	0xbaa
 2534 0baa 17       		.uleb128 0x17
 2535 0bab 6F0B0000 		.4byte	0xb6f
 2536 0baf B90B0000 		.4byte	0xbb9
 2537 0bb3 16       		.uleb128 0x16
 2538 0bb4 E4000000 		.4byte	0xe4
 2539 0bb8 00       		.byte	0
 2540 0bb9 18       		.uleb128 0x18
 2541 0bba 0B040000 		.4byte	.LASF258
 2542 0bbe 4C       		.byte	0x4c
 2543 0bbf 0B       		.byte	0xb
 2544 0bc0 C302     		.2byte	0x2c3
 2545 0bc2 D80C0000 		.4byte	0xcd8
 2546 0bc6 13       		.uleb128 0x13
 2547 0bc7 B0080000 		.4byte	.LASF211
 2548 0bcb 0B       		.byte	0xb
 2549 0bcc C602     		.2byte	0x2c6
 2550 0bce 330A0000 		.4byte	0xa33
 2551 0bd2 00       		.byte	0
 2552 0bd3 13       		.uleb128 0x13
 2553 0bd4 360B0000 		.4byte	.LASF212
 2554 0bd8 0B       		.byte	0xb
 2555 0bd9 C702     		.2byte	0x2c7
 2556 0bdb 330A0000 		.4byte	0xa33
 2557 0bdf 01       		.byte	0x1
 2558 0be0 13       		.uleb128 0x13
 2559 0be1 14140000 		.4byte	.LASF213
 2560 0be5 0B       		.byte	0xb
 2561 0be6 C902     		.2byte	0x2c9
 2562 0be8 F6000000 		.4byte	0xf6
 2563 0bec 04       		.byte	0x4
 2564 0bed 13       		.uleb128 0x13
 2565 0bee B6000000 		.4byte	.LASF214
 2566 0bf2 0B       		.byte	0xb
 2567 0bf3 CB02     		.2byte	0x2cb
 2568 0bf5 F6000000 		.4byte	0xf6
 2569 0bf9 08       		.byte	0x8
 2570 0bfa 13       		.uleb128 0x13
 2571 0bfb EF0D0000 		.4byte	.LASF215
 2572 0bff 0B       		.byte	0xb
 2573 0c00 CC02     		.2byte	0x2cc
 2574 0c02 330A0000 		.4byte	0xa33
 2575 0c06 0C       		.byte	0xc
 2576 0c07 13       		.uleb128 0x13
 2577 0c08 F90C0000 		.4byte	.LASF216
 2578 0c0c 0B       		.byte	0xb
 2579 0c0d CD02     		.2byte	0x2cd
 2580 0c0f 330A0000 		.4byte	0xa33
 2581 0c13 0D       		.byte	0xd
 2582 0c14 13       		.uleb128 0x13
 2583 0c15 E00E0000 		.4byte	.LASF217
 2584 0c19 0B       		.byte	0xb
 2585 0c1a CF02     		.2byte	0x2cf
 2586 0c1c D80C0000 		.4byte	0xcd8
 2587 0c20 10       		.byte	0x10
 2588 0c21 13       		.uleb128 0x13
ARM GAS  C:\Users\LOCALA~1\AppData\Local\Temp\ccJ6EDbl.s 			page 82


 2589 0c22 6C0A0000 		.4byte	.LASF218
 2590 0c26 0B       		.byte	0xb
 2591 0c27 D002     		.2byte	0x2d0
 2592 0c29 E4000000 		.4byte	0xe4
 2593 0c2d 14       		.byte	0x14
 2594 0c2e 13       		.uleb128 0x13
 2595 0c2f 7F010000 		.4byte	.LASF219
 2596 0c33 0B       		.byte	0xb
 2597 0c34 D102     		.2byte	0x2d1
 2598 0c36 F6000000 		.4byte	0xf6
 2599 0c3a 18       		.byte	0x18
 2600 0c3b 13       		.uleb128 0x13
 2601 0c3c BF090000 		.4byte	.LASF220
 2602 0c40 0B       		.byte	0xb
 2603 0c41 D202     		.2byte	0x2d2
 2604 0c43 F6000000 		.4byte	0xf6
 2605 0c47 1C       		.byte	0x1c
 2606 0c48 13       		.uleb128 0x13
 2607 0c49 48010000 		.4byte	.LASF221
 2608 0c4d 0B       		.byte	0xb
 2609 0c4e D402     		.2byte	0x2d4
 2610 0c50 F6000000 		.4byte	0xf6
 2611 0c54 20       		.byte	0x20
 2612 0c55 13       		.uleb128 0x13
 2613 0c56 D5060000 		.4byte	.LASF222
 2614 0c5a 0B       		.byte	0xb
 2615 0c5b D502     		.2byte	0x2d5
 2616 0c5d DE0C0000 		.4byte	0xcde
 2617 0c61 24       		.byte	0x24
 2618 0c62 13       		.uleb128 0x13
 2619 0c63 BD040000 		.4byte	.LASF223
 2620 0c67 0B       		.byte	0xb
 2621 0c68 D702     		.2byte	0x2d7
 2622 0c6a D80C0000 		.4byte	0xcd8
 2623 0c6e 28       		.byte	0x28
 2624 0c6f 13       		.uleb128 0x13
 2625 0c70 AA060000 		.4byte	.LASF224
 2626 0c74 0B       		.byte	0xb
 2627 0c75 D802     		.2byte	0x2d8
 2628 0c77 E4000000 		.4byte	0xe4
 2629 0c7b 2C       		.byte	0x2c
 2630 0c7c 13       		.uleb128 0x13
 2631 0c7d D8040000 		.4byte	.LASF225
 2632 0c81 0B       		.byte	0xb
 2633 0c82 D902     		.2byte	0x2d9
 2634 0c84 F6000000 		.4byte	0xf6
 2635 0c88 30       		.byte	0x30
 2636 0c89 13       		.uleb128 0x13
 2637 0c8a E60A0000 		.4byte	.LASF226
 2638 0c8e 0B       		.byte	0xb
 2639 0c8f DA02     		.2byte	0x2da
 2640 0c91 F6000000 		.4byte	0xf6
 2641 0c95 34       		.byte	0x34
 2642 0c96 13       		.uleb128 0x13
 2643 0c97 69020000 		.4byte	.LASF227
 2644 0c9b 0B       		.byte	0xb
 2645 0c9c DC02     		.2byte	0x2dc
ARM GAS  C:\Users\LOCALA~1\AppData\Local\Temp\ccJ6EDbl.s 			page 83


 2646 0c9e D80C0000 		.4byte	0xcd8
 2647 0ca2 38       		.byte	0x38
 2648 0ca3 13       		.uleb128 0x13
 2649 0ca4 3A0E0000 		.4byte	.LASF228
 2650 0ca8 0B       		.byte	0xb
 2651 0ca9 DD02     		.2byte	0x2dd
 2652 0cab E4000000 		.4byte	0xe4
 2653 0caf 3C       		.byte	0x3c
 2654 0cb0 13       		.uleb128 0x13
 2655 0cb1 D00D0000 		.4byte	.LASF229
 2656 0cb5 0B       		.byte	0xb
 2657 0cb6 DE02     		.2byte	0x2de
 2658 0cb8 F6000000 		.4byte	0xf6
 2659 0cbc 40       		.byte	0x40
 2660 0cbd 13       		.uleb128 0x13
 2661 0cbe 39080000 		.4byte	.LASF230
 2662 0cc2 0B       		.byte	0xb
 2663 0cc3 E402     		.2byte	0x2e4
 2664 0cc5 7B0B0000 		.4byte	0xb7b
 2665 0cc9 44       		.byte	0x44
 2666 0cca 13       		.uleb128 0x13
 2667 0ccb 6F0F0000 		.4byte	.LASF231
 2668 0ccf 0B       		.byte	0xb
 2669 0cd0 EB02     		.2byte	0x2eb
 2670 0cd2 980B0000 		.4byte	0xb98
 2671 0cd6 48       		.byte	0x48
 2672 0cd7 00       		.byte	0
 2673 0cd8 14       		.uleb128 0x14
 2674 0cd9 04       		.byte	0x4
 2675 0cda B8000000 		.4byte	0xb8
 2676 0cde 05       		.uleb128 0x5
 2677 0cdf 330A0000 		.4byte	0xa33
 2678 0ce3 0D       		.uleb128 0xd
 2679 0ce4 A4150000 		.4byte	.LASF232
 2680 0ce8 0B       		.byte	0xb
 2681 0ce9 EE02     		.2byte	0x2ee
 2682 0ceb B90B0000 		.4byte	0xbb9
 2683 0cef 10       		.uleb128 0x10
 2684 0cf0 04       		.byte	0x4
 2685 0cf1 A6000000 		.4byte	0xa6
 2686 0cf5 01       		.byte	0x1
 2687 0cf6 9401     		.2byte	0x194
 2688 0cf8 1E0D0000 		.4byte	0xd1e
 2689 0cfc 11       		.uleb128 0x11
 2690 0cfd 2B130000 		.4byte	.LASF233
 2691 0d01 00       		.byte	0
 2692 0d02 19       		.uleb128 0x19
 2693 0d03 D10B0000 		.4byte	.LASF234
 2694 0d07 0160AA00 		.4byte	0xaa6001
 2695 0d0b 19       		.uleb128 0x19
 2696 0d0c CD0C0000 		.4byte	.LASF235
 2697 0d10 0260AA00 		.4byte	0xaa6002
 2698 0d14 19       		.uleb128 0x19
 2699 0d15 F6050000 		.4byte	.LASF236
 2700 0d19 0360AA00 		.4byte	0xaa6003
 2701 0d1d 00       		.byte	0
 2702 0d1e 0D       		.uleb128 0xd
ARM GAS  C:\Users\LOCALA~1\AppData\Local\Temp\ccJ6EDbl.s 			page 84


 2703 0d1f 89030000 		.4byte	.LASF237
 2704 0d23 01       		.byte	0x1
 2705 0d24 A401     		.2byte	0x1a4
 2706 0d26 EF0C0000 		.4byte	0xcef
 2707 0d2a 10       		.uleb128 0x10
 2708 0d2b 01       		.byte	0x1
 2709 0d2c 49000000 		.4byte	0x49
 2710 0d30 01       		.byte	0x1
 2711 0d31 A801     		.2byte	0x1a8
 2712 0d33 4A0D0000 		.4byte	0xd4a
 2713 0d37 11       		.uleb128 0x11
 2714 0d38 CB120000 		.4byte	.LASF238
 2715 0d3c 00       		.byte	0
 2716 0d3d 11       		.uleb128 0x11
 2717 0d3e 23080000 		.4byte	.LASF239
 2718 0d42 01       		.byte	0x1
 2719 0d43 11       		.uleb128 0x11
 2720 0d44 E9040000 		.4byte	.LASF240
 2721 0d48 02       		.byte	0x2
 2722 0d49 00       		.byte	0
 2723 0d4a 0D       		.uleb128 0xd
 2724 0d4b F2110000 		.4byte	.LASF241
 2725 0d4f 01       		.byte	0x1
 2726 0d50 AC01     		.2byte	0x1ac
 2727 0d52 2A0D0000 		.4byte	0xd2a
 2728 0d56 10       		.uleb128 0x10
 2729 0d57 01       		.byte	0x1
 2730 0d58 49000000 		.4byte	0x49
 2731 0d5c 01       		.byte	0x1
 2732 0d5d B001     		.2byte	0x1b0
 2733 0d5f 8E0D0000 		.4byte	0xd8e
 2734 0d63 11       		.uleb128 0x11
 2735 0d64 410C0000 		.4byte	.LASF242
 2736 0d68 02       		.byte	0x2
 2737 0d69 11       		.uleb128 0x11
 2738 0d6a 59080000 		.4byte	.LASF243
 2739 0d6e 03       		.byte	0x3
 2740 0d6f 11       		.uleb128 0x11
 2741 0d70 590C0000 		.4byte	.LASF244
 2742 0d74 04       		.byte	0x4
 2743 0d75 11       		.uleb128 0x11
 2744 0d76 EF070000 		.4byte	.LASF245
 2745 0d7a 05       		.byte	0x5
 2746 0d7b 11       		.uleb128 0x11
 2747 0d7c 710C0000 		.4byte	.LASF246
 2748 0d80 06       		.byte	0x6
 2749 0d81 11       		.uleb128 0x11
 2750 0d82 F8020000 		.4byte	.LASF247
 2751 0d86 07       		.byte	0x7
 2752 0d87 11       		.uleb128 0x11
 2753 0d88 890C0000 		.4byte	.LASF248
 2754 0d8c 08       		.byte	0x8
 2755 0d8d 00       		.byte	0
 2756 0d8e 0D       		.uleb128 0xd
 2757 0d8f 22170000 		.4byte	.LASF249
 2758 0d93 01       		.byte	0x1
 2759 0d94 B801     		.2byte	0x1b8
ARM GAS  C:\Users\LOCALA~1\AppData\Local\Temp\ccJ6EDbl.s 			page 85


 2760 0d96 560D0000 		.4byte	0xd56
 2761 0d9a 10       		.uleb128 0x10
 2762 0d9b 01       		.byte	0x1
 2763 0d9c 49000000 		.4byte	0x49
 2764 0da0 01       		.byte	0x1
 2765 0da1 BC01     		.2byte	0x1bc
 2766 0da3 BA0D0000 		.4byte	0xdba
 2767 0da7 11       		.uleb128 0x11
 2768 0da8 6E140000 		.4byte	.LASF250
 2769 0dac 00       		.byte	0
 2770 0dad 11       		.uleb128 0x11
 2771 0dae 71040000 		.4byte	.LASF251
 2772 0db2 02       		.byte	0x2
 2773 0db3 11       		.uleb128 0x11
 2774 0db4 A90D0000 		.4byte	.LASF252
 2775 0db8 03       		.byte	0x3
 2776 0db9 00       		.byte	0
 2777 0dba 0D       		.uleb128 0xd
 2778 0dbb 1F090000 		.4byte	.LASF253
 2779 0dbf 01       		.byte	0x1
 2780 0dc0 C001     		.2byte	0x1c0
 2781 0dc2 9A0D0000 		.4byte	0xd9a
 2782 0dc6 10       		.uleb128 0x10
 2783 0dc7 01       		.byte	0x1
 2784 0dc8 49000000 		.4byte	0x49
 2785 0dcc 01       		.byte	0x1
 2786 0dcd C401     		.2byte	0x1c4
 2787 0dcf E00D0000 		.4byte	0xde0
 2788 0dd3 11       		.uleb128 0x11
 2789 0dd4 5E130000 		.4byte	.LASF254
 2790 0dd8 00       		.byte	0
 2791 0dd9 11       		.uleb128 0x11
 2792 0dda 7C060000 		.4byte	.LASF255
 2793 0dde 01       		.byte	0x1
 2794 0ddf 00       		.byte	0
 2795 0de0 0D       		.uleb128 0xd
 2796 0de1 AA070000 		.4byte	.LASF256
 2797 0de5 01       		.byte	0x1
 2798 0de6 C701     		.2byte	0x1c7
 2799 0de8 C60D0000 		.4byte	0xdc6
 2800 0dec 0D       		.uleb128 0xd
 2801 0ded 400B0000 		.4byte	.LASF257
 2802 0df1 01       		.byte	0x1
 2803 0df2 D901     		.2byte	0x1d9
 2804 0df4 870B0000 		.4byte	0xb87
 2805 0df8 18       		.uleb128 0x18
 2806 0df9 6B050000 		.4byte	.LASF259
 2807 0dfd 40       		.byte	0x40
 2808 0dfe 01       		.byte	0x1
 2809 0dff DC01     		.2byte	0x1dc
 2810 0e01 4B0F0000 		.4byte	0xf4b
 2811 0e05 13       		.uleb128 0x13
 2812 0e06 79110000 		.4byte	.LASF260
 2813 0e0a 01       		.byte	0x1
 2814 0e0b DF01     		.2byte	0x1df
 2815 0e0d 4A0D0000 		.4byte	0xd4a
 2816 0e11 00       		.byte	0
ARM GAS  C:\Users\LOCALA~1\AppData\Local\Temp\ccJ6EDbl.s 			page 86


 2817 0e12 13       		.uleb128 0x13
 2818 0e13 DF150000 		.4byte	.LASF261
 2819 0e17 01       		.byte	0x1
 2820 0e18 E901     		.2byte	0x1e9
 2821 0e1a E4000000 		.4byte	0xe4
 2822 0e1e 04       		.byte	0x4
 2823 0e1f 13       		.uleb128 0x13
 2824 0e20 0D160000 		.4byte	.LASF262
 2825 0e24 01       		.byte	0x1
 2826 0e25 EC01     		.2byte	0x1ec
 2827 0e27 E4000000 		.4byte	0xe4
 2828 0e2b 08       		.byte	0x8
 2829 0e2c 13       		.uleb128 0x13
 2830 0e2d C3000000 		.4byte	.LASF263
 2831 0e31 01       		.byte	0x1
 2832 0e32 F201     		.2byte	0x1f2
 2833 0e34 330A0000 		.4byte	0xa33
 2834 0e38 0C       		.byte	0xc
 2835 0e39 13       		.uleb128 0x13
 2836 0e3a E60C0000 		.4byte	.LASF264
 2837 0e3e 01       		.byte	0x1
 2838 0e3f F801     		.2byte	0x1f8
 2839 0e41 8E0D0000 		.4byte	0xd8e
 2840 0e45 0D       		.byte	0xd
 2841 0e46 13       		.uleb128 0x13
 2842 0e47 680F0000 		.4byte	.LASF265
 2843 0e4b 01       		.byte	0x1
 2844 0e4c FB01     		.2byte	0x1fb
 2845 0e4e BA0D0000 		.4byte	0xdba
 2846 0e52 0E       		.byte	0xe
 2847 0e53 13       		.uleb128 0x13
 2848 0e54 E6020000 		.4byte	.LASF266
 2849 0e58 01       		.byte	0x1
 2850 0e59 0302     		.2byte	0x203
 2851 0e5b 330A0000 		.4byte	0xa33
 2852 0e5f 0F       		.byte	0xf
 2853 0e60 13       		.uleb128 0x13
 2854 0e61 AD0A0000 		.4byte	.LASF267
 2855 0e65 01       		.byte	0x1
 2856 0e66 0902     		.2byte	0x209
 2857 0e68 330A0000 		.4byte	0xa33
 2858 0e6c 10       		.byte	0x10
 2859 0e6d 13       		.uleb128 0x13
 2860 0e6e EA160000 		.4byte	.LASF268
 2861 0e72 01       		.byte	0x1
 2862 0e73 0F02     		.2byte	0x20f
 2863 0e75 330A0000 		.4byte	0xa33
 2864 0e79 11       		.byte	0x11
 2865 0e7a 13       		.uleb128 0x13
 2866 0e7b D8010000 		.4byte	.LASF269
 2867 0e7f 01       		.byte	0x1
 2868 0e80 1502     		.2byte	0x215
 2869 0e82 330A0000 		.4byte	0xa33
 2870 0e86 12       		.byte	0x12
 2871 0e87 13       		.uleb128 0x13
 2872 0e88 340A0000 		.4byte	.LASF270
 2873 0e8c 01       		.byte	0x1
ARM GAS  C:\Users\LOCALA~1\AppData\Local\Temp\ccJ6EDbl.s 			page 87


 2874 0e8d 1C02     		.2byte	0x21c
 2875 0e8f E4000000 		.4byte	0xe4
 2876 0e93 14       		.byte	0x14
 2877 0e94 13       		.uleb128 0x13
 2878 0e95 760F0000 		.4byte	.LASF271
 2879 0e99 01       		.byte	0x1
 2880 0e9a 2402     		.2byte	0x224
 2881 0e9c E4000000 		.4byte	0xe4
 2882 0ea0 18       		.byte	0x18
 2883 0ea1 13       		.uleb128 0x13
 2884 0ea2 79090000 		.4byte	.LASF272
 2885 0ea6 01       		.byte	0x1
 2886 0ea7 2A02     		.2byte	0x22a
 2887 0ea9 330A0000 		.4byte	0xa33
 2888 0ead 1C       		.byte	0x1c
 2889 0eae 13       		.uleb128 0x13
 2890 0eaf 28050000 		.4byte	.LASF273
 2891 0eb3 01       		.byte	0x1
 2892 0eb4 2D02     		.2byte	0x22d
 2893 0eb6 330A0000 		.4byte	0xa33
 2894 0eba 1D       		.byte	0x1d
 2895 0ebb 13       		.uleb128 0x13
 2896 0ebc 260C0000 		.4byte	.LASF274
 2897 0ec0 01       		.byte	0x1
 2898 0ec1 3302     		.2byte	0x233
 2899 0ec3 330A0000 		.4byte	0xa33
 2900 0ec7 1E       		.byte	0x1e
 2901 0ec8 13       		.uleb128 0x13
 2902 0ec9 690B0000 		.4byte	.LASF275
 2903 0ecd 01       		.byte	0x1
 2904 0ece 3A02     		.2byte	0x23a
 2905 0ed0 330A0000 		.4byte	0xa33
 2906 0ed4 1F       		.byte	0x1f
 2907 0ed5 13       		.uleb128 0x13
 2908 0ed6 81070000 		.4byte	.LASF276
 2909 0eda 01       		.byte	0x1
 2910 0edb 4002     		.2byte	0x240
 2911 0edd 330A0000 		.4byte	0xa33
 2912 0ee1 20       		.byte	0x20
 2913 0ee2 13       		.uleb128 0x13
 2914 0ee3 2F140000 		.4byte	.LASF277
 2915 0ee7 01       		.byte	0x1
 2916 0ee8 4302     		.2byte	0x243
 2917 0eea E00D0000 		.4byte	0xde0
 2918 0eee 21       		.byte	0x21
 2919 0eef 13       		.uleb128 0x13
 2920 0ef0 5F140000 		.4byte	.LASF278
 2921 0ef4 01       		.byte	0x1
 2922 0ef5 4902     		.2byte	0x249
 2923 0ef7 E4000000 		.4byte	0xe4
 2924 0efb 24       		.byte	0x24
 2925 0efc 13       		.uleb128 0x13
 2926 0efd DE050000 		.4byte	.LASF279
 2927 0f01 01       		.byte	0x1
 2928 0f02 4C02     		.2byte	0x24c
 2929 0f04 E00D0000 		.4byte	0xde0
 2930 0f08 28       		.byte	0x28
ARM GAS  C:\Users\LOCALA~1\AppData\Local\Temp\ccJ6EDbl.s 			page 88


 2931 0f09 13       		.uleb128 0x13
 2932 0f0a 440A0000 		.4byte	.LASF280
 2933 0f0e 01       		.byte	0x1
 2934 0f0f 4F02     		.2byte	0x24f
 2935 0f11 E4000000 		.4byte	0xe4
 2936 0f15 2C       		.byte	0x2c
 2937 0f16 13       		.uleb128 0x13
 2938 0f17 0A050000 		.4byte	.LASF281
 2939 0f1b 01       		.byte	0x1
 2940 0f1c 5702     		.2byte	0x257
 2941 0f1e E4000000 		.4byte	0xe4
 2942 0f22 30       		.byte	0x30
 2943 0f23 13       		.uleb128 0x13
 2944 0f24 FB160000 		.4byte	.LASF282
 2945 0f28 01       		.byte	0x1
 2946 0f29 5D02     		.2byte	0x25d
 2947 0f2b E4000000 		.4byte	0xe4
 2948 0f2f 34       		.byte	0x34
 2949 0f30 13       		.uleb128 0x13
 2950 0f31 B8120000 		.4byte	.LASF283
 2951 0f35 01       		.byte	0x1
 2952 0f36 6502     		.2byte	0x265
 2953 0f38 E4000000 		.4byte	0xe4
 2954 0f3c 38       		.byte	0x38
 2955 0f3d 13       		.uleb128 0x13
 2956 0f3e 86140000 		.4byte	.LASF284
 2957 0f42 01       		.byte	0x1
 2958 0f43 6B02     		.2byte	0x26b
 2959 0f45 E4000000 		.4byte	0xe4
 2960 0f49 3C       		.byte	0x3c
 2961 0f4a 00       		.byte	0
 2962 0f4b 0D       		.uleb128 0xd
 2963 0f4c 3B140000 		.4byte	.LASF285
 2964 0f50 01       		.byte	0x1
 2965 0f51 6C02     		.2byte	0x26c
 2966 0f53 F80D0000 		.4byte	0xdf8
 2967 0f57 18       		.uleb128 0x18
 2968 0f58 B2050000 		.4byte	.LASF286
 2969 0f5c 38       		.byte	0x38
 2970 0f5d 01       		.byte	0x1
 2971 0f5e 7502     		.2byte	0x275
 2972 0f60 1B100000 		.4byte	0x101b
 2973 0f64 13       		.uleb128 0x13
 2974 0f65 D2000000 		.4byte	.LASF287
 2975 0f69 01       		.byte	0x1
 2976 0f6a 7802     		.2byte	0x278
 2977 0f6c F6000000 		.4byte	0xf6
 2978 0f70 00       		.byte	0
 2979 0f71 13       		.uleb128 0x13
 2980 0f72 66070000 		.4byte	.LASF288
 2981 0f76 01       		.byte	0x1
 2982 0f77 7902     		.2byte	0x279
 2983 0f79 F6000000 		.4byte	0xf6
 2984 0f7d 04       		.byte	0x4
 2985 0f7e 13       		.uleb128 0x13
 2986 0f7f 8D0E0000 		.4byte	.LASF289
 2987 0f83 01       		.byte	0x1
ARM GAS  C:\Users\LOCALA~1\AppData\Local\Temp\ccJ6EDbl.s 			page 89


 2988 0f84 7B02     		.2byte	0x27b
 2989 0f86 310A0000 		.4byte	0xa31
 2990 0f8a 08       		.byte	0x8
 2991 0f8b 13       		.uleb128 0x13
 2992 0f8c 35050000 		.4byte	.LASF290
 2993 0f90 01       		.byte	0x1
 2994 0f91 7C02     		.2byte	0x27c
 2995 0f93 E4000000 		.4byte	0xe4
 2996 0f97 0C       		.byte	0xc
 2997 0f98 13       		.uleb128 0x13
 2998 0f99 290D0000 		.4byte	.LASF291
 2999 0f9d 01       		.byte	0x1
 3000 0f9e 7D02     		.2byte	0x27d
 3001 0fa0 F6000000 		.4byte	0xf6
 3002 0fa4 10       		.byte	0x10
 3003 0fa5 13       		.uleb128 0x13
 3004 0fa6 110A0000 		.4byte	.LASF292
 3005 0faa 01       		.byte	0x1
 3006 0fab 7E02     		.2byte	0x27e
 3007 0fad F6000000 		.4byte	0xf6
 3008 0fb1 14       		.byte	0x14
 3009 0fb2 13       		.uleb128 0x13
 3010 0fb3 6F070000 		.4byte	.LASF293
 3011 0fb7 01       		.byte	0x1
 3012 0fb8 8002     		.2byte	0x280
 3013 0fba 310A0000 		.4byte	0xa31
 3014 0fbe 18       		.byte	0x18
 3015 0fbf 13       		.uleb128 0x13
 3016 0fc0 56170000 		.4byte	.LASF294
 3017 0fc4 01       		.byte	0x1
 3018 0fc5 8102     		.2byte	0x281
 3019 0fc7 E4000000 		.4byte	0xe4
 3020 0fcb 1C       		.byte	0x1c
 3021 0fcc 13       		.uleb128 0x13
 3022 0fcd BF0A0000 		.4byte	.LASF295
 3023 0fd1 01       		.byte	0x1
 3024 0fd2 8202     		.2byte	0x282
 3025 0fd4 F6000000 		.4byte	0xf6
 3026 0fd8 20       		.byte	0x20
 3027 0fd9 13       		.uleb128 0x13
 3028 0fda 180E0000 		.4byte	.LASF296
 3029 0fde 01       		.byte	0x1
 3030 0fdf 8402     		.2byte	0x284
 3031 0fe1 310A0000 		.4byte	0xa31
 3032 0fe5 24       		.byte	0x24
 3033 0fe6 13       		.uleb128 0x13
 3034 0fe7 880D0000 		.4byte	.LASF297
 3035 0feb 01       		.byte	0x1
 3036 0fec 8502     		.2byte	0x285
 3037 0fee E4000000 		.4byte	0xe4
 3038 0ff2 28       		.byte	0x28
 3039 0ff3 13       		.uleb128 0x13
 3040 0ff4 5B110000 		.4byte	.LASF298
 3041 0ff8 01       		.byte	0x1
 3042 0ff9 8602     		.2byte	0x286
 3043 0ffb F6000000 		.4byte	0xf6
 3044 0fff 2C       		.byte	0x2c
ARM GAS  C:\Users\LOCALA~1\AppData\Local\Temp\ccJ6EDbl.s 			page 90


 3045 1000 13       		.uleb128 0x13
 3046 1001 39080000 		.4byte	.LASF230
 3047 1005 01       		.byte	0x1
 3048 1006 8B02     		.2byte	0x28b
 3049 1008 EC0D0000 		.4byte	0xdec
 3050 100c 30       		.byte	0x30
 3051 100d 13       		.uleb128 0x13
 3052 100e 45150000 		.4byte	.LASF299
 3053 1012 01       		.byte	0x1
 3054 1013 8E02     		.2byte	0x28e
 3055 1015 E4000000 		.4byte	0xe4
 3056 1019 34       		.byte	0x34
 3057 101a 00       		.byte	0
 3058 101b 0D       		.uleb128 0xd
 3059 101c 33020000 		.4byte	.LASF300
 3060 1020 01       		.byte	0x1
 3061 1021 9102     		.2byte	0x291
 3062 1023 570F0000 		.4byte	0xf57
 3063 1027 1A       		.uleb128 0x1a
 3064 1028 80080000 		.4byte	.LASF301
 3065 102c 4C       		.byte	0x4c
 3066 102d 0C       		.byte	0xc
 3067 102e 2F       		.byte	0x2f
 3068 102f 18110000 		.4byte	0x1118
 3069 1033 0B       		.uleb128 0xb
 3070 1034 C1140000 		.4byte	.LASF302
 3071 1038 0C       		.byte	0xc
 3072 1039 31       		.byte	0x31
 3073 103a E4000000 		.4byte	0xe4
 3074 103e 00       		.byte	0
 3075 103f 0B       		.uleb128 0xb
 3076 1040 9E0A0000 		.4byte	.LASF303
 3077 1044 0C       		.byte	0xc
 3078 1045 33       		.byte	0x33
 3079 1046 E4000000 		.4byte	0xe4
 3080 104a 04       		.byte	0x4
 3081 104b 0B       		.uleb128 0xb
 3082 104c C60E0000 		.4byte	.LASF304
 3083 1050 0C       		.byte	0xc
 3084 1051 34       		.byte	0x34
 3085 1052 E4000000 		.4byte	0xe4
 3086 1056 08       		.byte	0x8
 3087 1057 0B       		.uleb128 0xb
 3088 1058 EE100000 		.4byte	.LASF305
 3089 105c 0C       		.byte	0xc
 3090 105d 35       		.byte	0x35
 3091 105e E4000000 		.4byte	0xe4
 3092 1062 0C       		.byte	0xc
 3093 1063 0B       		.uleb128 0xb
 3094 1064 BC0F0000 		.4byte	.LASF306
 3095 1068 0C       		.byte	0xc
 3096 1069 37       		.byte	0x37
 3097 106a E4000000 		.4byte	0xe4
 3098 106e 10       		.byte	0x10
 3099 106f 0B       		.uleb128 0xb
 3100 1070 ED030000 		.4byte	.LASF307
 3101 1074 0C       		.byte	0xc
ARM GAS  C:\Users\LOCALA~1\AppData\Local\Temp\ccJ6EDbl.s 			page 91


 3102 1075 38       		.byte	0x38
 3103 1076 E4000000 		.4byte	0xe4
 3104 107a 14       		.byte	0x14
 3105 107b 0B       		.uleb128 0xb
 3106 107c F6030000 		.4byte	.LASF308
 3107 1080 0C       		.byte	0xc
 3108 1081 39       		.byte	0x39
 3109 1082 E4000000 		.4byte	0xe4
 3110 1086 18       		.byte	0x18
 3111 1087 0B       		.uleb128 0xb
 3112 1088 53100000 		.4byte	.LASF309
 3113 108c 0C       		.byte	0xc
 3114 108d 3A       		.byte	0x3a
 3115 108e 330A0000 		.4byte	0xa33
 3116 1092 1C       		.byte	0x1c
 3117 1093 0B       		.uleb128 0xb
 3118 1094 42100000 		.4byte	.LASF310
 3119 1098 0C       		.byte	0xc
 3120 1099 3C       		.byte	0x3c
 3121 109a E4000000 		.4byte	0xe4
 3122 109e 20       		.byte	0x20
 3123 109f 0B       		.uleb128 0xb
 3124 10a0 2A070000 		.4byte	.LASF311
 3125 10a4 0C       		.byte	0xc
 3126 10a5 3D       		.byte	0x3d
 3127 10a6 E4000000 		.4byte	0xe4
 3128 10aa 24       		.byte	0x24
 3129 10ab 0B       		.uleb128 0xb
 3130 10ac DF090000 		.4byte	.LASF312
 3131 10b0 0C       		.byte	0xc
 3132 10b1 3F       		.byte	0x3f
 3133 10b2 E4000000 		.4byte	0xe4
 3134 10b6 28       		.byte	0x28
 3135 10b7 0B       		.uleb128 0xb
 3136 10b8 430D0000 		.4byte	.LASF313
 3137 10bc 0C       		.byte	0xc
 3138 10bd 40       		.byte	0x40
 3139 10be E4000000 		.4byte	0xe4
 3140 10c2 2C       		.byte	0x2c
 3141 10c3 0B       		.uleb128 0xb
 3142 10c4 CA050000 		.4byte	.LASF314
 3143 10c8 0C       		.byte	0xc
 3144 10c9 42       		.byte	0x42
 3145 10ca E4000000 		.4byte	0xe4
 3146 10ce 30       		.byte	0x30
 3147 10cf 0B       		.uleb128 0xb
 3148 10d0 13070000 		.4byte	.LASF315
 3149 10d4 0C       		.byte	0xc
 3150 10d5 43       		.byte	0x43
 3151 10d6 E4000000 		.4byte	0xe4
 3152 10da 34       		.byte	0x34
 3153 10db 0B       		.uleb128 0xb
 3154 10dc F1010000 		.4byte	.LASF316
 3155 10e0 0C       		.byte	0xc
 3156 10e1 45       		.byte	0x45
 3157 10e2 E4000000 		.4byte	0xe4
 3158 10e6 38       		.byte	0x38
ARM GAS  C:\Users\LOCALA~1\AppData\Local\Temp\ccJ6EDbl.s 			page 92


 3159 10e7 0B       		.uleb128 0xb
 3160 10e8 3B070000 		.4byte	.LASF317
 3161 10ec 0C       		.byte	0xc
 3162 10ed 46       		.byte	0x46
 3163 10ee E4000000 		.4byte	0xe4
 3164 10f2 3C       		.byte	0x3c
 3165 10f3 0B       		.uleb128 0xb
 3166 10f4 91130000 		.4byte	.LASF318
 3167 10f8 0C       		.byte	0xc
 3168 10f9 48       		.byte	0x48
 3169 10fa E4000000 		.4byte	0xe4
 3170 10fe 40       		.byte	0x40
 3171 10ff 0B       		.uleb128 0xb
 3172 1100 86100000 		.4byte	.LASF319
 3173 1104 0C       		.byte	0xc
 3174 1105 49       		.byte	0x49
 3175 1106 E4000000 		.4byte	0xe4
 3176 110a 44       		.byte	0x44
 3177 110b 0B       		.uleb128 0xb
 3178 110c 75130000 		.4byte	.LASF320
 3179 1110 0C       		.byte	0xc
 3180 1111 4B       		.byte	0x4b
 3181 1112 E4000000 		.4byte	0xe4
 3182 1116 48       		.byte	0x48
 3183 1117 00       		.byte	0
 3184 1118 03       		.uleb128 0x3
 3185 1119 170F0000 		.4byte	.LASF321
 3186 111d 0C       		.byte	0xc
 3187 111e 4C       		.byte	0x4c
 3188 111f 27100000 		.4byte	0x1027
 3189 1123 0E       		.uleb128 0xe
 3190 1124 14       		.byte	0x14
 3191 1125 0D       		.byte	0xd
 3192 1126 3B       		.byte	0x3b
 3193 1127 68110000 		.4byte	0x1168
 3194 112b 0B       		.uleb128 0xb
 3195 112c 5D020000 		.4byte	.LASF322
 3196 1130 0D       		.byte	0xd
 3197 1131 3D       		.byte	0x3d
 3198 1132 E4000000 		.4byte	0xe4
 3199 1136 00       		.byte	0
 3200 1137 0B       		.uleb128 0xb
 3201 1138 EA050000 		.4byte	.LASF323
 3202 113c 0D       		.byte	0xd
 3203 113d 3E       		.byte	0x3e
 3204 113e E4000000 		.4byte	0xe4
 3205 1142 04       		.byte	0x4
 3206 1143 0B       		.uleb128 0xb
 3207 1144 9E020000 		.4byte	.LASF324
 3208 1148 0D       		.byte	0xd
 3209 1149 3F       		.byte	0x3f
 3210 114a 68110000 		.4byte	0x1168
 3211 114e 08       		.byte	0x8
 3212 114f 0B       		.uleb128 0xb
 3213 1150 8C110000 		.4byte	.LASF325
 3214 1154 0D       		.byte	0xd
 3215 1155 40       		.byte	0x40
ARM GAS  C:\Users\LOCALA~1\AppData\Local\Temp\ccJ6EDbl.s 			page 93


 3216 1156 E4000000 		.4byte	0xe4
 3217 115a 0C       		.byte	0xc
 3218 115b 0B       		.uleb128 0xb
 3219 115c 09140000 		.4byte	.LASF326
 3220 1160 0D       		.byte	0xd
 3221 1161 45       		.byte	0x45
 3222 1162 E4000000 		.4byte	0xe4
 3223 1166 10       		.byte	0x10
 3224 1167 00       		.byte	0
 3225 1168 14       		.uleb128 0x14
 3226 1169 04       		.byte	0x4
 3227 116a 6E110000 		.4byte	0x116e
 3228 116e 06       		.uleb128 0x6
 3229 116f 490B0000 		.4byte	0xb49
 3230 1173 03       		.uleb128 0x3
 3231 1174 13020000 		.4byte	.LASF327
 3232 1178 0D       		.byte	0xd
 3233 1179 48       		.byte	0x48
 3234 117a 23110000 		.4byte	0x1123
 3235 117e 14       		.uleb128 0x14
 3236 117f 04       		.byte	0x4
 3237 1180 1C0A0000 		.4byte	0xa1c
 3238 1184 1B       		.uleb128 0x1b
 3239 1185 01       		.byte	0x1
 3240 1186 49000000 		.4byte	0x49
 3241 118a 02       		.byte	0x2
 3242 118b 75       		.byte	0x75
 3243 118c A3110000 		.4byte	0x11a3
 3244 1190 11       		.uleb128 0x11
 3245 1191 73080000 		.4byte	.LASF328
 3246 1195 7C       		.byte	0x7c
 3247 1196 11       		.uleb128 0x11
 3248 1197 110C0000 		.4byte	.LASF329
 3249 119b 83       		.byte	0x83
 3250 119c 11       		.uleb128 0x11
 3251 119d 2F040000 		.4byte	.LASF330
 3252 11a1 F2       		.byte	0xf2
 3253 11a2 00       		.byte	0
 3254 11a3 03       		.uleb128 0x3
 3255 11a4 9D0D0000 		.4byte	.LASF331
 3256 11a8 02       		.byte	0x2
 3257 11a9 79       		.byte	0x79
 3258 11aa 84110000 		.4byte	0x1184
 3259 11ae 0E       		.uleb128 0xe
 3260 11af 01       		.byte	0x1
 3261 11b0 02       		.byte	0x2
 3262 11b1 7C       		.byte	0x7c
 3263 11b2 C3110000 		.4byte	0x11c3
 3264 11b6 0B       		.uleb128 0xb
 3265 11b7 57020000 		.4byte	.LASF332
 3266 11bb 02       		.byte	0x2
 3267 11bc 7E       		.byte	0x7e
 3268 11bd B8000000 		.4byte	0xb8
 3269 11c1 00       		.byte	0
 3270 11c2 00       		.byte	0
 3271 11c3 03       		.uleb128 0x3
 3272 11c4 57050000 		.4byte	.LASF333
ARM GAS  C:\Users\LOCALA~1\AppData\Local\Temp\ccJ6EDbl.s 			page 94


 3273 11c8 02       		.byte	0x2
 3274 11c9 7F       		.byte	0x7f
 3275 11ca AE110000 		.4byte	0x11ae
 3276 11ce 1C       		.uleb128 0x1c
 3277 11cf 03       		.byte	0x3
 3278 11d0 02       		.byte	0x2
 3279 11d1 85       		.byte	0x85
 3280 11d2 F8110000 		.4byte	0x11f8
 3281 11d6 1D       		.uleb128 0x1d
 3282 11d7 FA0B0000 		.4byte	.LASF334
 3283 11db 02       		.byte	0x2
 3284 11dc 87       		.byte	0x87
 3285 11dd 70010000 		.4byte	0x170
 3286 11e1 1D       		.uleb128 0x1d
 3287 11e2 37100000 		.4byte	.LASF335
 3288 11e6 02       		.byte	0x2
 3289 11e7 88       		.byte	0x88
 3290 11e8 B8000000 		.4byte	0xb8
 3291 11ec 1D       		.uleb128 0x1d
 3292 11ed 54140000 		.4byte	.LASF336
 3293 11f1 02       		.byte	0x2
 3294 11f2 89       		.byte	0x89
 3295 11f3 C3110000 		.4byte	0x11c3
 3296 11f7 00       		.byte	0
 3297 11f8 0E       		.uleb128 0xe
 3298 11f9 05       		.byte	0x5
 3299 11fa 02       		.byte	0x2
 3300 11fb 82       		.byte	0x82
 3301 11fc 25120000 		.4byte	0x1225
 3302 1200 0B       		.uleb128 0xb
 3303 1201 F00B0000 		.4byte	.LASF337
 3304 1205 02       		.byte	0x2
 3305 1206 84       		.byte	0x84
 3306 1207 A3110000 		.4byte	0x11a3
 3307 120b 00       		.byte	0
 3308 120c 0B       		.uleb128 0xb
 3309 120d 4C000000 		.4byte	.LASF338
 3310 1211 02       		.byte	0x2
 3311 1212 8A       		.byte	0x8a
 3312 1213 CE110000 		.4byte	0x11ce
 3313 1217 01       		.byte	0x1
 3314 1218 0B       		.uleb128 0xb
 3315 1219 D4070000 		.4byte	.LASF339
 3316 121d 02       		.byte	0x2
 3317 121e 8B       		.byte	0x8b
 3318 121f 330A0000 		.4byte	0xa33
 3319 1223 04       		.byte	0x4
 3320 1224 00       		.byte	0
 3321 1225 03       		.uleb128 0x3
 3322 1226 180C0000 		.4byte	.LASF340
 3323 122a 02       		.byte	0x2
 3324 122b 8C       		.byte	0x8c
 3325 122c F8110000 		.4byte	0x11f8
 3326 1230 1E       		.uleb128 0x1e
 3327 1231 15080000 		.4byte	.LASF341
 3328 1235 03       		.byte	0x3
 3329 1236 8C       		.byte	0x8c
ARM GAS  C:\Users\LOCALA~1\AppData\Local\Temp\ccJ6EDbl.s 			page 95


 3330 1237 03       		.byte	0x3
 3331 1238 1E       		.uleb128 0x1e
 3332 1239 2C150000 		.4byte	.LASF342
 3333 123d 03       		.byte	0x3
 3334 123e 81       		.byte	0x81
 3335 123f 03       		.byte	0x3
 3336 1240 1F       		.uleb128 0x1f
 3337 1241 4C0E0000 		.4byte	.LASF363
 3338 1245 01       		.byte	0x1
 3339 1246 1304     		.2byte	0x413
 3340 1248 00000000 		.4byte	.LFB359
 3341 124c 20000000 		.4byte	.LFE359-.LFB359
 3342 1250 01       		.uleb128 0x1
 3343 1251 9C       		.byte	0x9c
 3344 1252 66120000 		.4byte	0x1266
 3345 1256 20       		.uleb128 0x20
 3346 1257 AD050000 		.4byte	.LASF343
 3347 125b 01       		.byte	0x1
 3348 125c 1304     		.2byte	0x413
 3349 125e 66120000 		.4byte	0x1266
 3350 1262 02       		.uleb128 0x2
 3351 1263 91       		.byte	0x91
 3352 1264 74       		.sleb128 -12
 3353 1265 00       		.byte	0
 3354 1266 14       		.uleb128 0x14
 3355 1267 04       		.byte	0x4
 3356 1268 E1050000 		.4byte	0x5e1
 3357 126c 21       		.uleb128 0x21
 3358 126d CA160000 		.4byte	.LASF401
 3359 1271 01       		.byte	0x1
 3360 1272 7105     		.2byte	0x571
 3361 1274 E4000000 		.4byte	0xe4
 3362 1278 00000000 		.4byte	.LFB374
 3363 127c 3C000000 		.4byte	.LFE374-.LFB374
 3364 1280 01       		.uleb128 0x1
 3365 1281 9C       		.byte	0x9c
 3366 1282 B4120000 		.4byte	0x12b4
 3367 1286 20       		.uleb128 0x20
 3368 1287 AD050000 		.4byte	.LASF343
 3369 128b 01       		.byte	0x1
 3370 128c 7105     		.2byte	0x571
 3371 128e 66120000 		.4byte	0x1266
 3372 1292 02       		.uleb128 0x2
 3373 1293 91       		.byte	0x91
 3374 1294 74       		.sleb128 -12
 3375 1295 20       		.uleb128 0x20
 3376 1296 5A0D0000 		.4byte	.LASF344
 3377 129a 01       		.byte	0x1
 3378 129b 7105     		.2byte	0x571
 3379 129d 310A0000 		.4byte	0xa31
 3380 12a1 02       		.uleb128 0x2
 3381 12a2 91       		.byte	0x91
 3382 12a3 70       		.sleb128 -16
 3383 12a4 20       		.uleb128 0x20
 3384 12a5 610D0000 		.4byte	.LASF345
 3385 12a9 01       		.byte	0x1
 3386 12aa 7105     		.2byte	0x571
ARM GAS  C:\Users\LOCALA~1\AppData\Local\Temp\ccJ6EDbl.s 			page 96


 3387 12ac E4000000 		.4byte	0xe4
 3388 12b0 02       		.uleb128 0x2
 3389 12b1 91       		.byte	0x91
 3390 12b2 6C       		.sleb128 -20
 3391 12b3 00       		.byte	0
 3392 12b4 22       		.uleb128 0x22
 3393 12b5 4A120000 		.4byte	.LASF353
 3394 12b9 02       		.byte	0x2
 3395 12ba 9B       		.byte	0x9b
 3396 12bb D80C0000 		.4byte	0xcd8
 3397 12bf 00000000 		.4byte	.LFB659
 3398 12c3 DC000000 		.4byte	.LFE659-.LFB659
 3399 12c7 01       		.uleb128 0x1
 3400 12c8 9C       		.byte	0x9c
 3401 12c9 09130000 		.4byte	0x1309
 3402 12cd 23       		.uleb128 0x23
 3403 12ce B5090000 		.4byte	.LASF346
 3404 12d2 02       		.byte	0x2
 3405 12d3 9B       		.byte	0x9b
 3406 12d4 310A0000 		.4byte	0xa31
 3407 12d8 02       		.uleb128 0x2
 3408 12d9 91       		.byte	0x91
 3409 12da 74       		.sleb128 -12
 3410 12db 23       		.uleb128 0x23
 3411 12dc 42080000 		.4byte	.LASF347
 3412 12e0 02       		.byte	0x2
 3413 12e1 9B       		.byte	0x9b
 3414 12e2 CE000000 		.4byte	0xce
 3415 12e6 02       		.uleb128 0x2
 3416 12e7 91       		.byte	0x91
 3417 12e8 72       		.sleb128 -14
 3418 12e9 23       		.uleb128 0x23
 3419 12ea 09010000 		.4byte	.LASF348
 3420 12ee 02       		.byte	0x2
 3421 12ef 9B       		.byte	0x9b
 3422 12f0 09130000 		.4byte	0x1309
 3423 12f4 02       		.uleb128 0x2
 3424 12f5 91       		.byte	0x91
 3425 12f6 6C       		.sleb128 -20
 3426 12f7 24       		.uleb128 0x24
 3427 12f8 09080000 		.4byte	.LASF350
 3428 12fc 02       		.byte	0x2
 3429 12fd 9D       		.byte	0x9d
 3430 12fe 0F130000 		.4byte	0x130f
 3431 1302 05       		.uleb128 0x5
 3432 1303 03       		.byte	0x3
 3433 1304 0C000000 		.4byte	serialFrame.17363
 3434 1308 00       		.byte	0
 3435 1309 14       		.uleb128 0x14
 3436 130a 04       		.byte	0x4
 3437 130b 25120000 		.4byte	0x1225
 3438 130f 07       		.uleb128 0x7
 3439 1310 B8000000 		.4byte	0xb8
 3440 1314 20130000 		.4byte	0x1320
 3441 1318 09       		.uleb128 0x9
 3442 1319 EF000000 		.4byte	0xef
 3443 131d 3001     		.2byte	0x130
ARM GAS  C:\Users\LOCALA~1\AppData\Local\Temp\ccJ6EDbl.s 			page 97


 3444 131f 00       		.byte	0
 3445 1320 25       		.uleb128 0x25
 3446 1321 930F0000 		.4byte	.LASF402
 3447 1325 02       		.byte	0x2
 3448 1326 CD       		.byte	0xcd
 3449 1327 00000000 		.4byte	.LFB660
 3450 132b 60000000 		.4byte	.LFE660-.LFB660
 3451 132f 01       		.uleb128 0x1
 3452 1330 9C       		.byte	0x9c
 3453 1331 60130000 		.4byte	0x1360
 3454 1335 23       		.uleb128 0x23
 3455 1336 530D0000 		.4byte	.LASF349
 3456 133a 02       		.byte	0x2
 3457 133b CD       		.byte	0xcd
 3458 133c D80C0000 		.4byte	0xcd8
 3459 1340 02       		.uleb128 0x2
 3460 1341 91       		.byte	0x91
 3461 1342 6C       		.sleb128 -20
 3462 1343 24       		.uleb128 0x24
 3463 1344 CB040000 		.4byte	.LASF351
 3464 1348 02       		.byte	0x2
 3465 1349 CF       		.byte	0xcf
 3466 134a 330A0000 		.4byte	0xa33
 3467 134e 02       		.uleb128 0x2
 3468 134f 91       		.byte	0x91
 3469 1350 77       		.sleb128 -9
 3470 1351 24       		.uleb128 0x24
 3471 1352 6B000000 		.4byte	.LASF352
 3472 1356 02       		.byte	0x2
 3473 1357 D0       		.byte	0xd0
 3474 1358 330A0000 		.4byte	0xa33
 3475 135c 02       		.uleb128 0x2
 3476 135d 91       		.byte	0x91
 3477 135e 76       		.sleb128 -10
 3478 135f 00       		.byte	0
 3479 1360 22       		.uleb128 0x22
 3480 1361 F70A0000 		.4byte	.LASF354
 3481 1365 02       		.byte	0x2
 3482 1366 F0       		.byte	0xf0
 3483 1367 E4000000 		.4byte	0xe4
 3484 136b 00000000 		.4byte	.LFB661
 3485 136f 42000000 		.4byte	.LFE661-.LFB661
 3486 1373 01       		.uleb128 0x1
 3487 1374 9C       		.byte	0x9c
 3488 1375 96130000 		.4byte	0x1396
 3489 1379 23       		.uleb128 0x23
 3490 137a 010F0000 		.4byte	.LASF355
 3491 137e 02       		.byte	0x2
 3492 137f F0       		.byte	0xf0
 3493 1380 B8000000 		.4byte	0xb8
 3494 1384 02       		.uleb128 0x2
 3495 1385 91       		.byte	0x91
 3496 1386 6F       		.sleb128 -17
 3497 1387 24       		.uleb128 0x24
 3498 1388 6C110000 		.4byte	.LASF356
 3499 138c 02       		.byte	0x2
 3500 138d F2       		.byte	0xf2
ARM GAS  C:\Users\LOCALA~1\AppData\Local\Temp\ccJ6EDbl.s 			page 98


 3501 138e E4000000 		.4byte	0xe4
 3502 1392 02       		.uleb128 0x2
 3503 1393 91       		.byte	0x91
 3504 1394 74       		.sleb128 -12
 3505 1395 00       		.byte	0
 3506 1396 26       		.uleb128 0x26
 3507 1397 50060000 		.4byte	.LASF357
 3508 139b 02       		.byte	0x2
 3509 139c 0D01     		.2byte	0x10d
 3510 139e 330A0000 		.4byte	0xa33
 3511 13a2 00000000 		.4byte	.LFB662
 3512 13a6 EC000000 		.4byte	.LFE662-.LFB662
 3513 13aa 01       		.uleb128 0x1
 3514 13ab 9C       		.byte	0x9c
 3515 13ac DE130000 		.4byte	0x13de
 3516 13b0 20       		.uleb128 0x20
 3517 13b1 020C0000 		.4byte	.LASF358
 3518 13b5 02       		.byte	0x2
 3519 13b6 0D01     		.2byte	0x10d
 3520 13b8 DE130000 		.4byte	0x13de
 3521 13bc 02       		.uleb128 0x2
 3522 13bd 91       		.byte	0x91
 3523 13be 64       		.sleb128 -28
 3524 13bf 20       		.uleb128 0x20
 3525 13c0 8A000000 		.4byte	.LASF359
 3526 13c4 02       		.byte	0x2
 3527 13c5 0D01     		.2byte	0x10d
 3528 13c7 330A0000 		.4byte	0xa33
 3529 13cb 02       		.uleb128 0x2
 3530 13cc 91       		.byte	0x91
 3531 13cd 63       		.sleb128 -29
 3532 13ce 27       		.uleb128 0x27
 3533 13cf DD100000 		.4byte	.LASF360
 3534 13d3 02       		.byte	0x2
 3535 13d4 0F01     		.2byte	0x10f
 3536 13d6 330A0000 		.4byte	0xa33
 3537 13da 02       		.uleb128 0x2
 3538 13db 91       		.byte	0x91
 3539 13dc 6F       		.sleb128 -17
 3540 13dd 00       		.byte	0
 3541 13de 14       		.uleb128 0x14
 3542 13df 04       		.byte	0x4
 3543 13e0 CE000000 		.4byte	0xce
 3544 13e4 26       		.uleb128 0x26
 3545 13e5 0E150000 		.4byte	.LASF361
 3546 13e9 02       		.byte	0x2
 3547 13ea 3401     		.2byte	0x134
 3548 13ec 9F000000 		.4byte	0x9f
 3549 13f0 00000000 		.4byte	.LFB663
 3550 13f4 6C020000 		.4byte	.LFE663-.LFB663
 3551 13f8 01       		.uleb128 0x1
 3552 13f9 9C       		.byte	0x9c
 3553 13fa 6B140000 		.4byte	0x146b
 3554 13fe 27       		.uleb128 0x27
 3555 13ff 75070000 		.4byte	.LASF362
 3556 1403 02       		.byte	0x2
 3557 1404 4101     		.2byte	0x141
ARM GAS  C:\Users\LOCALA~1\AppData\Local\Temp\ccJ6EDbl.s 			page 99


 3558 1406 1E0D0000 		.4byte	0xd1e
 3559 140a 02       		.uleb128 0x2
 3560 140b 91       		.byte	0x91
 3561 140c 70       		.sleb128 -16
 3562 140d 28       		.uleb128 0x28
 3563 140e 38120000 		.4byte	0x1238
 3564 1412 0A000000 		.4byte	.LBB9
 3565 1416 02000000 		.4byte	.LBE9-.LBB9
 3566 141a 02       		.byte	0x2
 3567 141b 3901     		.2byte	0x139
 3568 141d 29       		.uleb128 0x29
 3569 141e 54000000 		.4byte	.LBB11
 3570 1422 38000000 		.4byte	.LBE11-.LBB11
 3571 1426 38140000 		.4byte	0x1438
 3572 142a 2A       		.uleb128 0x2a
 3573 142b 6900     		.ascii	"i\000"
 3574 142d 02       		.byte	0x2
 3575 142e 5601     		.2byte	0x156
 3576 1430 B8000000 		.4byte	0xb8
 3577 1434 02       		.uleb128 0x2
 3578 1435 91       		.byte	0x91
 3579 1436 77       		.sleb128 -9
 3580 1437 00       		.byte	0
 3581 1438 29       		.uleb128 0x29
 3582 1439 22010000 		.4byte	.LBB12
 3583 143d 24000000 		.4byte	.LBE12-.LBB12
 3584 1441 53140000 		.4byte	0x1453
 3585 1445 2A       		.uleb128 0x2a
 3586 1446 7800     		.ascii	"x\000"
 3587 1448 02       		.byte	0x2
 3588 1449 7301     		.2byte	0x173
 3589 144b B8000000 		.4byte	0xb8
 3590 144f 02       		.uleb128 0x2
 3591 1450 91       		.byte	0x91
 3592 1451 76       		.sleb128 -10
 3593 1452 00       		.byte	0
 3594 1453 2B       		.uleb128 0x2b
 3595 1454 9A010000 		.4byte	.LBB13
 3596 1458 2E000000 		.4byte	.LBE13-.LBB13
 3597 145c 2A       		.uleb128 0x2a
 3598 145d 7800     		.ascii	"x\000"
 3599 145f 02       		.byte	0x2
 3600 1460 7E01     		.2byte	0x17e
 3601 1462 B8000000 		.4byte	0xb8
 3602 1466 02       		.uleb128 0x2
 3603 1467 91       		.byte	0x91
 3604 1468 75       		.sleb128 -11
 3605 1469 00       		.byte	0
 3606 146a 00       		.byte	0
 3607 146b 1F       		.uleb128 0x1f
 3608 146c 40000000 		.4byte	.LASF364
 3609 1470 02       		.byte	0x2
 3610 1471 A601     		.2byte	0x1a6
 3611 1473 00000000 		.4byte	.LFB664
 3612 1477 08000000 		.4byte	.LFE664-.LFB664
 3613 147b 01       		.uleb128 0x1
 3614 147c 9C       		.byte	0x9c
ARM GAS  C:\Users\LOCALA~1\AppData\Local\Temp\ccJ6EDbl.s 			page 100


 3615 147d 92140000 		.4byte	0x1492
 3616 1481 28       		.uleb128 0x28
 3617 1482 30120000 		.4byte	0x1230
 3618 1486 04000000 		.4byte	.LBB14
 3619 148a 02000000 		.4byte	.LBE14-.LBB14
 3620 148e 02       		.byte	0x2
 3621 148f A901     		.2byte	0x1a9
 3622 1491 00       		.byte	0
 3623 1492 26       		.uleb128 0x26
 3624 1493 ED0E0000 		.4byte	.LASF365
 3625 1497 02       		.byte	0x2
 3626 1498 C701     		.2byte	0x1c7
 3627 149a 9F000000 		.4byte	0x9f
 3628 149e 00000000 		.4byte	.LFB665
 3629 14a2 30000000 		.4byte	.LFE665-.LFB665
 3630 14a6 01       		.uleb128 0x1
 3631 14a7 9C       		.byte	0x9c
 3632 14a8 E9140000 		.4byte	0x14e9
 3633 14ac 20       		.uleb128 0x20
 3634 14ad C80A0000 		.4byte	.LASF366
 3635 14b1 02       		.byte	0x2
 3636 14b2 C701     		.2byte	0x1c7
 3637 14b4 9F000000 		.4byte	0x9f
 3638 14b8 02       		.uleb128 0x2
 3639 14b9 91       		.byte	0x91
 3640 14ba 6C       		.sleb128 -20
 3641 14bb 2C       		.uleb128 0x2c
 3642 14bc 70747200 		.ascii	"ptr\000"
 3643 14c0 02       		.byte	0x2
 3644 14c1 C701     		.2byte	0x1c7
 3645 14c3 7E110000 		.4byte	0x117e
 3646 14c7 02       		.uleb128 0x2
 3647 14c8 91       		.byte	0x91
 3648 14c9 68       		.sleb128 -24
 3649 14ca 2C       		.uleb128 0x2c
 3650 14cb 6C656E00 		.ascii	"len\000"
 3651 14cf 02       		.byte	0x2
 3652 14d0 C701     		.2byte	0x1c7
 3653 14d2 9F000000 		.4byte	0x9f
 3654 14d6 02       		.uleb128 0x2
 3655 14d7 91       		.byte	0x91
 3656 14d8 64       		.sleb128 -28
 3657 14d9 27       		.uleb128 0x27
 3658 14da 02140000 		.4byte	.LASF367
 3659 14de 02       		.byte	0x2
 3660 14df C901     		.2byte	0x1c9
 3661 14e1 9F000000 		.4byte	0x9f
 3662 14e5 02       		.uleb128 0x2
 3663 14e6 91       		.byte	0x91
 3664 14e7 74       		.sleb128 -12
 3665 14e8 00       		.byte	0
 3666 14e9 2D       		.uleb128 0x2d
 3667 14ea EF080000 		.4byte	.LASF368
 3668 14ee 0E       		.byte	0xe
 3669 14ef F907     		.2byte	0x7f9
 3670 14f1 F5140000 		.4byte	0x14f5
 3671 14f5 05       		.uleb128 0x5
ARM GAS  C:\Users\LOCALA~1\AppData\Local\Temp\ccJ6EDbl.s 			page 101


 3672 14f6 D9000000 		.4byte	0xd9
 3673 14fa 2E       		.uleb128 0x2e
 3674 14fb 76000000 		.4byte	.LASF369
 3675 14ff 08       		.byte	0x8
 3676 1500 A7       		.byte	0xa7
 3677 1501 05150000 		.4byte	0x1505
 3678 1505 14       		.uleb128 0x14
 3679 1506 04       		.byte	0x4
 3680 1507 0B150000 		.4byte	0x150b
 3681 150b 06       		.uleb128 0x6
 3682 150c 050A0000 		.4byte	0xa05
 3683 1510 2E       		.uleb128 0x2e
 3684 1511 60170000 		.4byte	.LASF370
 3685 1515 0F       		.byte	0xf
 3686 1516 7F       		.byte	0x7f
 3687 1517 E30C0000 		.4byte	0xce3
 3688 151b 2E       		.uleb128 0x2e
 3689 151c 53000000 		.4byte	.LASF371
 3690 1520 10       		.byte	0x10
 3691 1521 1F       		.byte	0x1f
 3692 1522 26150000 		.4byte	0x1526
 3693 1526 06       		.uleb128 0x6
 3694 1527 18110000 		.4byte	0x1118
 3695 152b 2E       		.uleb128 0x2e
 3696 152c A1030000 		.4byte	.LASF372
 3697 1530 11       		.byte	0x11
 3698 1531 86       		.byte	0x86
 3699 1532 36150000 		.4byte	0x1536
 3700 1536 06       		.uleb128 0x6
 3701 1537 4B0F0000 		.4byte	0xf4b
 3702 153b 2E       		.uleb128 0x2e
 3703 153c A1090000 		.4byte	.LASF373
 3704 1540 11       		.byte	0x11
 3705 1541 87       		.byte	0x87
 3706 1542 1B100000 		.4byte	0x101b
 3707 1546 2D       		.uleb128 0x2d
 3708 1547 B10B0000 		.4byte	.LASF374
 3709 154b 0D       		.byte	0xd
 3710 154c 6001     		.2byte	0x160
 3711 154e E4000000 		.4byte	0xe4
 3712 1552 07       		.uleb128 0x7
 3713 1553 62150000 		.4byte	0x1562
 3714 1557 62150000 		.4byte	0x1562
 3715 155b 08       		.uleb128 0x8
 3716 155c EF000000 		.4byte	0xef
 3717 1560 00       		.byte	0
 3718 1561 00       		.byte	0
 3719 1562 06       		.uleb128 0x6
 3720 1563 73110000 		.4byte	0x1173
 3721 1567 2D       		.uleb128 0x2d
 3722 1568 660D0000 		.4byte	.LASF375
 3723 156c 0D       		.byte	0xd
 3724 156d 6401     		.2byte	0x164
 3725 156f 73150000 		.4byte	0x1573
 3726 1573 06       		.uleb128 0x6
 3727 1574 52150000 		.4byte	0x1552
 3728 1578 2E       		.uleb128 0x2e
ARM GAS  C:\Users\LOCALA~1\AppData\Local\Temp\ccJ6EDbl.s 			page 102


 3729 1579 30110000 		.4byte	.LASF376
 3730 157d 12       		.byte	0x12
 3731 157e 1F       		.byte	0x1f
 3732 157f 26150000 		.4byte	0x1526
 3733 1583 2E       		.uleb128 0x2e
 3734 1584 14000000 		.4byte	.LASF377
 3735 1588 13       		.byte	0x13
 3736 1589 1F       		.byte	0x1f
 3737 158a 26150000 		.4byte	0x1526
 3738 158e 2F       		.uleb128 0x2f
 3739 158f B0100000 		.4byte	.LASF378
 3740 1593 02       		.byte	0x2
 3741 1594 30       		.byte	0x30
 3742 1595 E4000000 		.4byte	0xe4
 3743 1599 05       		.uleb128 0x5
 3744 159a 03       		.byte	0x3
 3745 159b 00000000 		.4byte	samplesTaken
 3746 159f 07       		.uleb128 0x7
 3747 15a0 CE000000 		.4byte	0xce
 3748 15a4 B0150000 		.4byte	0x15b0
 3749 15a8 09       		.uleb128 0x9
 3750 15a9 EF000000 		.4byte	0xef
 3751 15ad 2B01     		.2byte	0x12b
 3752 15af 00       		.byte	0
 3753 15b0 2F       		.uleb128 0x2f
 3754 15b1 7A170000 		.4byte	.LASF379
 3755 15b5 02       		.byte	0x2
 3756 15b6 32       		.byte	0x32
 3757 15b7 9F150000 		.4byte	0x159f
 3758 15bb 05       		.uleb128 0x5
 3759 15bc 03       		.byte	0x3
 3760 15bd 00000000 		.4byte	FIFO_Buffer
 3761 15c1 07       		.uleb128 0x7
 3762 15c2 E4000000 		.4byte	0xe4
 3763 15c6 D1150000 		.4byte	0x15d1
 3764 15ca 08       		.uleb128 0x8
 3765 15cb EF000000 		.4byte	0xef
 3766 15cf 02       		.byte	0x2
 3767 15d0 00       		.byte	0
 3768 15d1 2F       		.uleb128 0x2f
 3769 15d2 170B0000 		.4byte	.LASF380
 3770 15d6 02       		.byte	0x2
 3771 15d7 33       		.byte	0x33
 3772 15d8 C1150000 		.4byte	0x15c1
 3773 15dc 05       		.uleb128 0x5
 3774 15dd 03       		.byte	0x3
 3775 15de 00000000 		.4byte	channelsValues
 3776 15e2 2F       		.uleb128 0x2f
 3777 15e3 830D0000 		.4byte	.LASF381
 3778 15e7 02       		.byte	0x2
 3779 15e8 36       		.byte	0x36
 3780 15e9 D9000000 		.4byte	0xd9
 3781 15ed 05       		.uleb128 0x5
 3782 15ee 03       		.byte	0x3
 3783 15ef 00000000 		.4byte	spo2
 3784 15f3 2F       		.uleb128 0x2f
 3785 15f4 1A140000 		.4byte	.LASF382
ARM GAS  C:\Users\LOCALA~1\AppData\Local\Temp\ccJ6EDbl.s 			page 103


 3786 15f8 02       		.byte	0x2
 3787 15f9 38       		.byte	0x38
 3788 15fa AD000000 		.4byte	0xad
 3789 15fe 05       		.uleb128 0x5
 3790 15ff 03       		.byte	0x3
 3791 1600 00000000 		.4byte	validSPO2
 3792 1604 2F       		.uleb128 0x2f
 3793 1605 A4110000 		.4byte	.LASF383
 3794 1609 02       		.byte	0x2
 3795 160a 3A       		.byte	0x3a
 3796 160b D9000000 		.4byte	0xd9
 3797 160f 05       		.uleb128 0x5
 3798 1610 03       		.byte	0x3
 3799 1611 00000000 		.4byte	heartRate
 3800 1615 2F       		.uleb128 0x2f
 3801 1616 9A140000 		.4byte	.LASF384
 3802 161a 02       		.byte	0x2
 3803 161b 3C       		.byte	0x3c
 3804 161c D9000000 		.4byte	0xd9
 3805 1620 05       		.uleb128 0x5
 3806 1621 03       		.byte	0x3
 3807 1622 00000000 		.4byte	gLastHeartRate
 3808 1626 2F       		.uleb128 0x2f
 3809 1627 96040000 		.4byte	.LASF385
 3810 162b 02       		.byte	0x2
 3811 162c 3E       		.byte	0x3e
 3812 162d AD000000 		.4byte	0xad
 3813 1631 05       		.uleb128 0x5
 3814 1632 03       		.byte	0x3
 3815 1633 00000000 		.4byte	validHeartRate
 3816 1637 2F       		.uleb128 0x2f
 3817 1638 E70B0000 		.4byte	.LASF386
 3818 163c 02       		.byte	0x2
 3819 163d 41       		.byte	0x41
 3820 163e B8000000 		.4byte	0xb8
 3821 1642 05       		.uleb128 0x5
 3822 1643 03       		.byte	0x3
 3823 1644 00000000 		.4byte	gBeatAvg
 3824 1648 07       		.uleb128 0x7
 3825 1649 B8000000 		.4byte	0xb8
 3826 164d 58160000 		.4byte	0x1658
 3827 1651 08       		.uleb128 0x8
 3828 1652 EF000000 		.4byte	0xef
 3829 1656 05       		.byte	0x5
 3830 1657 00       		.byte	0
 3831 1658 2F       		.uleb128 0x2f
 3832 1659 CB110000 		.4byte	.LASF387
 3833 165d 02       		.byte	0x2
 3834 165e 42       		.byte	0x42
 3835 165f 48160000 		.4byte	0x1648
 3836 1663 05       		.uleb128 0x5
 3837 1664 03       		.byte	0x3
 3838 1665 00000000 		.4byte	gBpmBuff
 3839 1669 2F       		.uleb128 0x2f
 3840 166a 8D020000 		.4byte	.LASF388
 3841 166e 02       		.byte	0x2
 3842 166f 43       		.byte	0x43
ARM GAS  C:\Users\LOCALA~1\AppData\Local\Temp\ccJ6EDbl.s 			page 104


 3843 1670 B8000000 		.4byte	0xb8
 3844 1674 05       		.uleb128 0x5
 3845 1675 03       		.byte	0x3
 3846 1676 00000000 		.4byte	gBpmCurrentIndex
 3847 167a 2F       		.uleb128 0x2f
 3848 167b 4E110000 		.4byte	.LASF389
 3849 167f 02       		.byte	0x2
 3850 1680 46       		.byte	0x46
 3851 1681 230A0000 		.4byte	0xa23
 3852 1685 05       		.uleb128 0x5
 3853 1686 03       		.byte	0x3
 3854 1687 00000000 		.4byte	gTempSpO2Avg
 3855 168b 2F       		.uleb128 0x2f
 3856 168c 4D030000 		.4byte	.LASF390
 3857 1690 02       		.byte	0x2
 3858 1691 47       		.byte	0x47
 3859 1692 E4000000 		.4byte	0xe4
 3860 1696 05       		.uleb128 0x5
 3861 1697 03       		.byte	0x3
 3862 1698 00000000 		.4byte	gTempSpO2AvgInt1
 3863 169c 2F       		.uleb128 0x2f
 3864 169d 5E030000 		.4byte	.LASF391
 3865 16a1 02       		.byte	0x2
 3866 16a2 48       		.byte	0x48
 3867 16a3 E4000000 		.4byte	0xe4
 3868 16a7 05       		.uleb128 0x5
 3869 16a8 03       		.byte	0x3
 3870 16a9 00000000 		.4byte	gTempSpO2AvgInt2
 3871 16ad 2F       		.uleb128 0x2f
 3872 16ae 89040000 		.4byte	.LASF392
 3873 16b2 02       		.byte	0x2
 3874 16b3 49       		.byte	0x49
 3875 16b4 E4000000 		.4byte	0xe4
 3876 16b8 05       		.uleb128 0x5
 3877 16b9 03       		.byte	0x3
 3878 16ba 00000000 		.4byte	gTempbeatAvg
 3879 16be 07       		.uleb128 0x7
 3880 16bf 230A0000 		.4byte	0xa23
 3881 16c3 CE160000 		.4byte	0x16ce
 3882 16c7 08       		.uleb128 0x8
 3883 16c8 EF000000 		.4byte	0xef
 3884 16cc 05       		.byte	0x5
 3885 16cd 00       		.byte	0
 3886 16ce 2F       		.uleb128 0x2f
 3887 16cf 36000000 		.4byte	.LASF393
 3888 16d3 02       		.byte	0x2
 3889 16d4 4C       		.byte	0x4c
 3890 16d5 BE160000 		.4byte	0x16be
 3891 16d9 05       		.uleb128 0x5
 3892 16da 03       		.byte	0x3
 3893 16db 00000000 		.4byte	gSpO2Buff
 3894 16df 2F       		.uleb128 0x2f
 3895 16e0 25100000 		.4byte	.LASF394
 3896 16e4 02       		.byte	0x2
 3897 16e5 4D       		.byte	0x4d
 3898 16e6 B8000000 		.4byte	0xb8
 3899 16ea 05       		.uleb128 0x5
ARM GAS  C:\Users\LOCALA~1\AppData\Local\Temp\ccJ6EDbl.s 			page 105


 3900 16eb 03       		.byte	0x3
 3901 16ec 00000000 		.4byte	gSpO2CurrentIndex
 3902 16f0 2F       		.uleb128 0x2f
 3903 16f1 C4070000 		.4byte	.LASF395
 3904 16f5 02       		.byte	0x2
 3905 16f6 50       		.byte	0x50
 3906 16f7 330A0000 		.4byte	0xa33
 3907 16fb 05       		.uleb128 0x5
 3908 16fc 03       		.byte	0x3
 3909 16fd 00000000 		.4byte	gTissueDetected
 3910 1701 2F       		.uleb128 0x2f
 3911 1702 6A060000 		.4byte	.LASF396
 3912 1706 02       		.byte	0x2
 3913 1707 53       		.byte	0x53
 3914 1708 D80C0000 		.4byte	0xcd8
 3915 170c 05       		.uleb128 0x5
 3916 170d 03       		.byte	0x3
 3917 170e 00000000 		.4byte	gpFrame
 3918 1712 2F       		.uleb128 0x2f
 3919 1713 25110000 		.4byte	.LASF397
 3920 1717 02       		.byte	0x2
 3921 1718 8E       		.byte	0x8e
 3922 1719 25120000 		.4byte	0x1225
 3923 171d 05       		.uleb128 0x5
 3924 171e 03       		.byte	0x3
 3925 171f 00000000 		.4byte	frameParam
 3926 1723 00       		.byte	0
 3927              		.section	.debug_abbrev,"",%progbits
 3928              	.Ldebug_abbrev0:
 3929 0000 01       		.uleb128 0x1
 3930 0001 11       		.uleb128 0x11
 3931 0002 01       		.byte	0x1
 3932 0003 25       		.uleb128 0x25
 3933 0004 0E       		.uleb128 0xe
 3934 0005 13       		.uleb128 0x13
 3935 0006 0B       		.uleb128 0xb
 3936 0007 03       		.uleb128 0x3
 3937 0008 0E       		.uleb128 0xe
 3938 0009 1B       		.uleb128 0x1b
 3939 000a 0E       		.uleb128 0xe
 3940 000b 55       		.uleb128 0x55
 3941 000c 17       		.uleb128 0x17
 3942 000d 11       		.uleb128 0x11
 3943 000e 01       		.uleb128 0x1
 3944 000f 10       		.uleb128 0x10
 3945 0010 17       		.uleb128 0x17
 3946 0011 00       		.byte	0
 3947 0012 00       		.byte	0
 3948 0013 02       		.uleb128 0x2
 3949 0014 24       		.uleb128 0x24
 3950 0015 00       		.byte	0
 3951 0016 0B       		.uleb128 0xb
 3952 0017 0B       		.uleb128 0xb
 3953 0018 3E       		.uleb128 0x3e
 3954 0019 0B       		.uleb128 0xb
 3955 001a 03       		.uleb128 0x3
 3956 001b 0E       		.uleb128 0xe
ARM GAS  C:\Users\LOCALA~1\AppData\Local\Temp\ccJ6EDbl.s 			page 106


 3957 001c 00       		.byte	0
 3958 001d 00       		.byte	0
 3959 001e 03       		.uleb128 0x3
 3960 001f 16       		.uleb128 0x16
 3961 0020 00       		.byte	0
 3962 0021 03       		.uleb128 0x3
 3963 0022 0E       		.uleb128 0xe
 3964 0023 3A       		.uleb128 0x3a
 3965 0024 0B       		.uleb128 0xb
 3966 0025 3B       		.uleb128 0x3b
 3967 0026 0B       		.uleb128 0xb
 3968 0027 49       		.uleb128 0x49
 3969 0028 13       		.uleb128 0x13
 3970 0029 00       		.byte	0
 3971 002a 00       		.byte	0
 3972 002b 04       		.uleb128 0x4
 3973 002c 24       		.uleb128 0x24
 3974 002d 00       		.byte	0
 3975 002e 0B       		.uleb128 0xb
 3976 002f 0B       		.uleb128 0xb
 3977 0030 3E       		.uleb128 0x3e
 3978 0031 0B       		.uleb128 0xb
 3979 0032 03       		.uleb128 0x3
 3980 0033 08       		.uleb128 0x8
 3981 0034 00       		.byte	0
 3982 0035 00       		.byte	0
 3983 0036 05       		.uleb128 0x5
 3984 0037 35       		.uleb128 0x35
 3985 0038 00       		.byte	0
 3986 0039 49       		.uleb128 0x49
 3987 003a 13       		.uleb128 0x13
 3988 003b 00       		.byte	0
 3989 003c 00       		.byte	0
 3990 003d 06       		.uleb128 0x6
 3991 003e 26       		.uleb128 0x26
 3992 003f 00       		.byte	0
 3993 0040 49       		.uleb128 0x49
 3994 0041 13       		.uleb128 0x13
 3995 0042 00       		.byte	0
 3996 0043 00       		.byte	0
 3997 0044 07       		.uleb128 0x7
 3998 0045 01       		.uleb128 0x1
 3999 0046 01       		.byte	0x1
 4000 0047 49       		.uleb128 0x49
 4001 0048 13       		.uleb128 0x13
 4002 0049 01       		.uleb128 0x1
 4003 004a 13       		.uleb128 0x13
 4004 004b 00       		.byte	0
 4005 004c 00       		.byte	0
 4006 004d 08       		.uleb128 0x8
 4007 004e 21       		.uleb128 0x21
 4008 004f 00       		.byte	0
 4009 0050 49       		.uleb128 0x49
 4010 0051 13       		.uleb128 0x13
 4011 0052 2F       		.uleb128 0x2f
 4012 0053 0B       		.uleb128 0xb
 4013 0054 00       		.byte	0
ARM GAS  C:\Users\LOCALA~1\AppData\Local\Temp\ccJ6EDbl.s 			page 107


 4014 0055 00       		.byte	0
 4015 0056 09       		.uleb128 0x9
 4016 0057 21       		.uleb128 0x21
 4017 0058 00       		.byte	0
 4018 0059 49       		.uleb128 0x49
 4019 005a 13       		.uleb128 0x13
 4020 005b 2F       		.uleb128 0x2f
 4021 005c 05       		.uleb128 0x5
 4022 005d 00       		.byte	0
 4023 005e 00       		.byte	0
 4024 005f 0A       		.uleb128 0xa
 4025 0060 13       		.uleb128 0x13
 4026 0061 01       		.byte	0x1
 4027 0062 0B       		.uleb128 0xb
 4028 0063 05       		.uleb128 0x5
 4029 0064 3A       		.uleb128 0x3a
 4030 0065 0B       		.uleb128 0xb
 4031 0066 3B       		.uleb128 0x3b
 4032 0067 0B       		.uleb128 0xb
 4033 0068 01       		.uleb128 0x1
 4034 0069 13       		.uleb128 0x13
 4035 006a 00       		.byte	0
 4036 006b 00       		.byte	0
 4037 006c 0B       		.uleb128 0xb
 4038 006d 0D       		.uleb128 0xd
 4039 006e 00       		.byte	0
 4040 006f 03       		.uleb128 0x3
 4041 0070 0E       		.uleb128 0xe
 4042 0071 3A       		.uleb128 0x3a
 4043 0072 0B       		.uleb128 0xb
 4044 0073 3B       		.uleb128 0x3b
 4045 0074 0B       		.uleb128 0xb
 4046 0075 49       		.uleb128 0x49
 4047 0076 13       		.uleb128 0x13
 4048 0077 38       		.uleb128 0x38
 4049 0078 0B       		.uleb128 0xb
 4050 0079 00       		.byte	0
 4051 007a 00       		.byte	0
 4052 007b 0C       		.uleb128 0xc
 4053 007c 0D       		.uleb128 0xd
 4054 007d 00       		.byte	0
 4055 007e 03       		.uleb128 0x3
 4056 007f 0E       		.uleb128 0xe
 4057 0080 3A       		.uleb128 0x3a
 4058 0081 0B       		.uleb128 0xb
 4059 0082 3B       		.uleb128 0x3b
 4060 0083 0B       		.uleb128 0xb
 4061 0084 49       		.uleb128 0x49
 4062 0085 13       		.uleb128 0x13
 4063 0086 38       		.uleb128 0x38
 4064 0087 05       		.uleb128 0x5
 4065 0088 00       		.byte	0
 4066 0089 00       		.byte	0
 4067 008a 0D       		.uleb128 0xd
 4068 008b 16       		.uleb128 0x16
 4069 008c 00       		.byte	0
 4070 008d 03       		.uleb128 0x3
ARM GAS  C:\Users\LOCALA~1\AppData\Local\Temp\ccJ6EDbl.s 			page 108


 4071 008e 0E       		.uleb128 0xe
 4072 008f 3A       		.uleb128 0x3a
 4073 0090 0B       		.uleb128 0xb
 4074 0091 3B       		.uleb128 0x3b
 4075 0092 05       		.uleb128 0x5
 4076 0093 49       		.uleb128 0x49
 4077 0094 13       		.uleb128 0x13
 4078 0095 00       		.byte	0
 4079 0096 00       		.byte	0
 4080 0097 0E       		.uleb128 0xe
 4081 0098 13       		.uleb128 0x13
 4082 0099 01       		.byte	0x1
 4083 009a 0B       		.uleb128 0xb
 4084 009b 0B       		.uleb128 0xb
 4085 009c 3A       		.uleb128 0x3a
 4086 009d 0B       		.uleb128 0xb
 4087 009e 3B       		.uleb128 0x3b
 4088 009f 0B       		.uleb128 0xb
 4089 00a0 01       		.uleb128 0x1
 4090 00a1 13       		.uleb128 0x13
 4091 00a2 00       		.byte	0
 4092 00a3 00       		.byte	0
 4093 00a4 0F       		.uleb128 0xf
 4094 00a5 0F       		.uleb128 0xf
 4095 00a6 00       		.byte	0
 4096 00a7 0B       		.uleb128 0xb
 4097 00a8 0B       		.uleb128 0xb
 4098 00a9 00       		.byte	0
 4099 00aa 00       		.byte	0
 4100 00ab 10       		.uleb128 0x10
 4101 00ac 04       		.uleb128 0x4
 4102 00ad 01       		.byte	0x1
 4103 00ae 0B       		.uleb128 0xb
 4104 00af 0B       		.uleb128 0xb
 4105 00b0 49       		.uleb128 0x49
 4106 00b1 13       		.uleb128 0x13
 4107 00b2 3A       		.uleb128 0x3a
 4108 00b3 0B       		.uleb128 0xb
 4109 00b4 3B       		.uleb128 0x3b
 4110 00b5 05       		.uleb128 0x5
 4111 00b6 01       		.uleb128 0x1
 4112 00b7 13       		.uleb128 0x13
 4113 00b8 00       		.byte	0
 4114 00b9 00       		.byte	0
 4115 00ba 11       		.uleb128 0x11
 4116 00bb 28       		.uleb128 0x28
 4117 00bc 00       		.byte	0
 4118 00bd 03       		.uleb128 0x3
 4119 00be 0E       		.uleb128 0xe
 4120 00bf 1C       		.uleb128 0x1c
 4121 00c0 0B       		.uleb128 0xb
 4122 00c1 00       		.byte	0
 4123 00c2 00       		.byte	0
 4124 00c3 12       		.uleb128 0x12
 4125 00c4 13       		.uleb128 0x13
 4126 00c5 01       		.byte	0x1
 4127 00c6 0B       		.uleb128 0xb
ARM GAS  C:\Users\LOCALA~1\AppData\Local\Temp\ccJ6EDbl.s 			page 109


 4128 00c7 0B       		.uleb128 0xb
 4129 00c8 3A       		.uleb128 0x3a
 4130 00c9 0B       		.uleb128 0xb
 4131 00ca 3B       		.uleb128 0x3b
 4132 00cb 05       		.uleb128 0x5
 4133 00cc 01       		.uleb128 0x1
 4134 00cd 13       		.uleb128 0x13
 4135 00ce 00       		.byte	0
 4136 00cf 00       		.byte	0
 4137 00d0 13       		.uleb128 0x13
 4138 00d1 0D       		.uleb128 0xd
 4139 00d2 00       		.byte	0
 4140 00d3 03       		.uleb128 0x3
 4141 00d4 0E       		.uleb128 0xe
 4142 00d5 3A       		.uleb128 0x3a
 4143 00d6 0B       		.uleb128 0xb
 4144 00d7 3B       		.uleb128 0x3b
 4145 00d8 05       		.uleb128 0x5
 4146 00d9 49       		.uleb128 0x49
 4147 00da 13       		.uleb128 0x13
 4148 00db 38       		.uleb128 0x38
 4149 00dc 0B       		.uleb128 0xb
 4150 00dd 00       		.byte	0
 4151 00de 00       		.byte	0
 4152 00df 14       		.uleb128 0x14
 4153 00e0 0F       		.uleb128 0xf
 4154 00e1 00       		.byte	0
 4155 00e2 0B       		.uleb128 0xb
 4156 00e3 0B       		.uleb128 0xb
 4157 00e4 49       		.uleb128 0x49
 4158 00e5 13       		.uleb128 0x13
 4159 00e6 00       		.byte	0
 4160 00e7 00       		.byte	0
 4161 00e8 15       		.uleb128 0x15
 4162 00e9 15       		.uleb128 0x15
 4163 00ea 01       		.byte	0x1
 4164 00eb 27       		.uleb128 0x27
 4165 00ec 19       		.uleb128 0x19
 4166 00ed 01       		.uleb128 0x1
 4167 00ee 13       		.uleb128 0x13
 4168 00ef 00       		.byte	0
 4169 00f0 00       		.byte	0
 4170 00f1 16       		.uleb128 0x16
 4171 00f2 05       		.uleb128 0x5
 4172 00f3 00       		.byte	0
 4173 00f4 49       		.uleb128 0x49
 4174 00f5 13       		.uleb128 0x13
 4175 00f6 00       		.byte	0
 4176 00f7 00       		.byte	0
 4177 00f8 17       		.uleb128 0x17
 4178 00f9 15       		.uleb128 0x15
 4179 00fa 01       		.byte	0x1
 4180 00fb 27       		.uleb128 0x27
 4181 00fc 19       		.uleb128 0x19
 4182 00fd 49       		.uleb128 0x49
 4183 00fe 13       		.uleb128 0x13
 4184 00ff 01       		.uleb128 0x1
ARM GAS  C:\Users\LOCALA~1\AppData\Local\Temp\ccJ6EDbl.s 			page 110


 4185 0100 13       		.uleb128 0x13
 4186 0101 00       		.byte	0
 4187 0102 00       		.byte	0
 4188 0103 18       		.uleb128 0x18
 4189 0104 13       		.uleb128 0x13
 4190 0105 01       		.byte	0x1
 4191 0106 03       		.uleb128 0x3
 4192 0107 0E       		.uleb128 0xe
 4193 0108 0B       		.uleb128 0xb
 4194 0109 0B       		.uleb128 0xb
 4195 010a 3A       		.uleb128 0x3a
 4196 010b 0B       		.uleb128 0xb
 4197 010c 3B       		.uleb128 0x3b
 4198 010d 05       		.uleb128 0x5
 4199 010e 01       		.uleb128 0x1
 4200 010f 13       		.uleb128 0x13
 4201 0110 00       		.byte	0
 4202 0111 00       		.byte	0
 4203 0112 19       		.uleb128 0x19
 4204 0113 28       		.uleb128 0x28
 4205 0114 00       		.byte	0
 4206 0115 03       		.uleb128 0x3
 4207 0116 0E       		.uleb128 0xe
 4208 0117 1C       		.uleb128 0x1c
 4209 0118 06       		.uleb128 0x6
 4210 0119 00       		.byte	0
 4211 011a 00       		.byte	0
 4212 011b 1A       		.uleb128 0x1a
 4213 011c 13       		.uleb128 0x13
 4214 011d 01       		.byte	0x1
 4215 011e 03       		.uleb128 0x3
 4216 011f 0E       		.uleb128 0xe
 4217 0120 0B       		.uleb128 0xb
 4218 0121 0B       		.uleb128 0xb
 4219 0122 3A       		.uleb128 0x3a
 4220 0123 0B       		.uleb128 0xb
 4221 0124 3B       		.uleb128 0x3b
 4222 0125 0B       		.uleb128 0xb
 4223 0126 01       		.uleb128 0x1
 4224 0127 13       		.uleb128 0x13
 4225 0128 00       		.byte	0
 4226 0129 00       		.byte	0
 4227 012a 1B       		.uleb128 0x1b
 4228 012b 04       		.uleb128 0x4
 4229 012c 01       		.byte	0x1
 4230 012d 0B       		.uleb128 0xb
 4231 012e 0B       		.uleb128 0xb
 4232 012f 49       		.uleb128 0x49
 4233 0130 13       		.uleb128 0x13
 4234 0131 3A       		.uleb128 0x3a
 4235 0132 0B       		.uleb128 0xb
 4236 0133 3B       		.uleb128 0x3b
 4237 0134 0B       		.uleb128 0xb
 4238 0135 01       		.uleb128 0x1
 4239 0136 13       		.uleb128 0x13
 4240 0137 00       		.byte	0
 4241 0138 00       		.byte	0
ARM GAS  C:\Users\LOCALA~1\AppData\Local\Temp\ccJ6EDbl.s 			page 111


 4242 0139 1C       		.uleb128 0x1c
 4243 013a 17       		.uleb128 0x17
 4244 013b 01       		.byte	0x1
 4245 013c 0B       		.uleb128 0xb
 4246 013d 0B       		.uleb128 0xb
 4247 013e 3A       		.uleb128 0x3a
 4248 013f 0B       		.uleb128 0xb
 4249 0140 3B       		.uleb128 0x3b
 4250 0141 0B       		.uleb128 0xb
 4251 0142 01       		.uleb128 0x1
 4252 0143 13       		.uleb128 0x13
 4253 0144 00       		.byte	0
 4254 0145 00       		.byte	0
 4255 0146 1D       		.uleb128 0x1d
 4256 0147 0D       		.uleb128 0xd
 4257 0148 00       		.byte	0
 4258 0149 03       		.uleb128 0x3
 4259 014a 0E       		.uleb128 0xe
 4260 014b 3A       		.uleb128 0x3a
 4261 014c 0B       		.uleb128 0xb
 4262 014d 3B       		.uleb128 0x3b
 4263 014e 0B       		.uleb128 0xb
 4264 014f 49       		.uleb128 0x49
 4265 0150 13       		.uleb128 0x13
 4266 0151 00       		.byte	0
 4267 0152 00       		.byte	0
 4268 0153 1E       		.uleb128 0x1e
 4269 0154 2E       		.uleb128 0x2e
 4270 0155 00       		.byte	0
 4271 0156 03       		.uleb128 0x3
 4272 0157 0E       		.uleb128 0xe
 4273 0158 3A       		.uleb128 0x3a
 4274 0159 0B       		.uleb128 0xb
 4275 015a 3B       		.uleb128 0x3b
 4276 015b 0B       		.uleb128 0xb
 4277 015c 27       		.uleb128 0x27
 4278 015d 19       		.uleb128 0x19
 4279 015e 20       		.uleb128 0x20
 4280 015f 0B       		.uleb128 0xb
 4281 0160 00       		.byte	0
 4282 0161 00       		.byte	0
 4283 0162 1F       		.uleb128 0x1f
 4284 0163 2E       		.uleb128 0x2e
 4285 0164 01       		.byte	0x1
 4286 0165 03       		.uleb128 0x3
 4287 0166 0E       		.uleb128 0xe
 4288 0167 3A       		.uleb128 0x3a
 4289 0168 0B       		.uleb128 0xb
 4290 0169 3B       		.uleb128 0x3b
 4291 016a 05       		.uleb128 0x5
 4292 016b 27       		.uleb128 0x27
 4293 016c 19       		.uleb128 0x19
 4294 016d 11       		.uleb128 0x11
 4295 016e 01       		.uleb128 0x1
 4296 016f 12       		.uleb128 0x12
 4297 0170 06       		.uleb128 0x6
 4298 0171 40       		.uleb128 0x40
ARM GAS  C:\Users\LOCALA~1\AppData\Local\Temp\ccJ6EDbl.s 			page 112


 4299 0172 18       		.uleb128 0x18
 4300 0173 9742     		.uleb128 0x2117
 4301 0175 19       		.uleb128 0x19
 4302 0176 01       		.uleb128 0x1
 4303 0177 13       		.uleb128 0x13
 4304 0178 00       		.byte	0
 4305 0179 00       		.byte	0
 4306 017a 20       		.uleb128 0x20
 4307 017b 05       		.uleb128 0x5
 4308 017c 00       		.byte	0
 4309 017d 03       		.uleb128 0x3
 4310 017e 0E       		.uleb128 0xe
 4311 017f 3A       		.uleb128 0x3a
 4312 0180 0B       		.uleb128 0xb
 4313 0181 3B       		.uleb128 0x3b
 4314 0182 05       		.uleb128 0x5
 4315 0183 49       		.uleb128 0x49
 4316 0184 13       		.uleb128 0x13
 4317 0185 02       		.uleb128 0x2
 4318 0186 18       		.uleb128 0x18
 4319 0187 00       		.byte	0
 4320 0188 00       		.byte	0
 4321 0189 21       		.uleb128 0x21
 4322 018a 2E       		.uleb128 0x2e
 4323 018b 01       		.byte	0x1
 4324 018c 03       		.uleb128 0x3
 4325 018d 0E       		.uleb128 0xe
 4326 018e 3A       		.uleb128 0x3a
 4327 018f 0B       		.uleb128 0xb
 4328 0190 3B       		.uleb128 0x3b
 4329 0191 05       		.uleb128 0x5
 4330 0192 27       		.uleb128 0x27
 4331 0193 19       		.uleb128 0x19
 4332 0194 49       		.uleb128 0x49
 4333 0195 13       		.uleb128 0x13
 4334 0196 11       		.uleb128 0x11
 4335 0197 01       		.uleb128 0x1
 4336 0198 12       		.uleb128 0x12
 4337 0199 06       		.uleb128 0x6
 4338 019a 40       		.uleb128 0x40
 4339 019b 18       		.uleb128 0x18
 4340 019c 9642     		.uleb128 0x2116
 4341 019e 19       		.uleb128 0x19
 4342 019f 01       		.uleb128 0x1
 4343 01a0 13       		.uleb128 0x13
 4344 01a1 00       		.byte	0
 4345 01a2 00       		.byte	0
 4346 01a3 22       		.uleb128 0x22
 4347 01a4 2E       		.uleb128 0x2e
 4348 01a5 01       		.byte	0x1
 4349 01a6 3F       		.uleb128 0x3f
 4350 01a7 19       		.uleb128 0x19
 4351 01a8 03       		.uleb128 0x3
 4352 01a9 0E       		.uleb128 0xe
 4353 01aa 3A       		.uleb128 0x3a
 4354 01ab 0B       		.uleb128 0xb
 4355 01ac 3B       		.uleb128 0x3b
ARM GAS  C:\Users\LOCALA~1\AppData\Local\Temp\ccJ6EDbl.s 			page 113


 4356 01ad 0B       		.uleb128 0xb
 4357 01ae 27       		.uleb128 0x27
 4358 01af 19       		.uleb128 0x19
 4359 01b0 49       		.uleb128 0x49
 4360 01b1 13       		.uleb128 0x13
 4361 01b2 11       		.uleb128 0x11
 4362 01b3 01       		.uleb128 0x1
 4363 01b4 12       		.uleb128 0x12
 4364 01b5 06       		.uleb128 0x6
 4365 01b6 40       		.uleb128 0x40
 4366 01b7 18       		.uleb128 0x18
 4367 01b8 9642     		.uleb128 0x2116
 4368 01ba 19       		.uleb128 0x19
 4369 01bb 01       		.uleb128 0x1
 4370 01bc 13       		.uleb128 0x13
 4371 01bd 00       		.byte	0
 4372 01be 00       		.byte	0
 4373 01bf 23       		.uleb128 0x23
 4374 01c0 05       		.uleb128 0x5
 4375 01c1 00       		.byte	0
 4376 01c2 03       		.uleb128 0x3
 4377 01c3 0E       		.uleb128 0xe
 4378 01c4 3A       		.uleb128 0x3a
 4379 01c5 0B       		.uleb128 0xb
 4380 01c6 3B       		.uleb128 0x3b
 4381 01c7 0B       		.uleb128 0xb
 4382 01c8 49       		.uleb128 0x49
 4383 01c9 13       		.uleb128 0x13
 4384 01ca 02       		.uleb128 0x2
 4385 01cb 18       		.uleb128 0x18
 4386 01cc 00       		.byte	0
 4387 01cd 00       		.byte	0
 4388 01ce 24       		.uleb128 0x24
 4389 01cf 34       		.uleb128 0x34
 4390 01d0 00       		.byte	0
 4391 01d1 03       		.uleb128 0x3
 4392 01d2 0E       		.uleb128 0xe
 4393 01d3 3A       		.uleb128 0x3a
 4394 01d4 0B       		.uleb128 0xb
 4395 01d5 3B       		.uleb128 0x3b
 4396 01d6 0B       		.uleb128 0xb
 4397 01d7 49       		.uleb128 0x49
 4398 01d8 13       		.uleb128 0x13
 4399 01d9 02       		.uleb128 0x2
 4400 01da 18       		.uleb128 0x18
 4401 01db 00       		.byte	0
 4402 01dc 00       		.byte	0
 4403 01dd 25       		.uleb128 0x25
 4404 01de 2E       		.uleb128 0x2e
 4405 01df 01       		.byte	0x1
 4406 01e0 3F       		.uleb128 0x3f
 4407 01e1 19       		.uleb128 0x19
 4408 01e2 03       		.uleb128 0x3
 4409 01e3 0E       		.uleb128 0xe
 4410 01e4 3A       		.uleb128 0x3a
 4411 01e5 0B       		.uleb128 0xb
 4412 01e6 3B       		.uleb128 0x3b
ARM GAS  C:\Users\LOCALA~1\AppData\Local\Temp\ccJ6EDbl.s 			page 114


 4413 01e7 0B       		.uleb128 0xb
 4414 01e8 27       		.uleb128 0x27
 4415 01e9 19       		.uleb128 0x19
 4416 01ea 11       		.uleb128 0x11
 4417 01eb 01       		.uleb128 0x1
 4418 01ec 12       		.uleb128 0x12
 4419 01ed 06       		.uleb128 0x6
 4420 01ee 40       		.uleb128 0x40
 4421 01ef 18       		.uleb128 0x18
 4422 01f0 9642     		.uleb128 0x2116
 4423 01f2 19       		.uleb128 0x19
 4424 01f3 01       		.uleb128 0x1
 4425 01f4 13       		.uleb128 0x13
 4426 01f5 00       		.byte	0
 4427 01f6 00       		.byte	0
 4428 01f7 26       		.uleb128 0x26
 4429 01f8 2E       		.uleb128 0x2e
 4430 01f9 01       		.byte	0x1
 4431 01fa 3F       		.uleb128 0x3f
 4432 01fb 19       		.uleb128 0x19
 4433 01fc 03       		.uleb128 0x3
 4434 01fd 0E       		.uleb128 0xe
 4435 01fe 3A       		.uleb128 0x3a
 4436 01ff 0B       		.uleb128 0xb
 4437 0200 3B       		.uleb128 0x3b
 4438 0201 05       		.uleb128 0x5
 4439 0202 27       		.uleb128 0x27
 4440 0203 19       		.uleb128 0x19
 4441 0204 49       		.uleb128 0x49
 4442 0205 13       		.uleb128 0x13
 4443 0206 11       		.uleb128 0x11
 4444 0207 01       		.uleb128 0x1
 4445 0208 12       		.uleb128 0x12
 4446 0209 06       		.uleb128 0x6
 4447 020a 40       		.uleb128 0x40
 4448 020b 18       		.uleb128 0x18
 4449 020c 9642     		.uleb128 0x2116
 4450 020e 19       		.uleb128 0x19
 4451 020f 01       		.uleb128 0x1
 4452 0210 13       		.uleb128 0x13
 4453 0211 00       		.byte	0
 4454 0212 00       		.byte	0
 4455 0213 27       		.uleb128 0x27
 4456 0214 34       		.uleb128 0x34
 4457 0215 00       		.byte	0
 4458 0216 03       		.uleb128 0x3
 4459 0217 0E       		.uleb128 0xe
 4460 0218 3A       		.uleb128 0x3a
 4461 0219 0B       		.uleb128 0xb
 4462 021a 3B       		.uleb128 0x3b
 4463 021b 05       		.uleb128 0x5
 4464 021c 49       		.uleb128 0x49
 4465 021d 13       		.uleb128 0x13
 4466 021e 02       		.uleb128 0x2
 4467 021f 18       		.uleb128 0x18
 4468 0220 00       		.byte	0
 4469 0221 00       		.byte	0
ARM GAS  C:\Users\LOCALA~1\AppData\Local\Temp\ccJ6EDbl.s 			page 115


 4470 0222 28       		.uleb128 0x28
 4471 0223 1D       		.uleb128 0x1d
 4472 0224 00       		.byte	0
 4473 0225 31       		.uleb128 0x31
 4474 0226 13       		.uleb128 0x13
 4475 0227 11       		.uleb128 0x11
 4476 0228 01       		.uleb128 0x1
 4477 0229 12       		.uleb128 0x12
 4478 022a 06       		.uleb128 0x6
 4479 022b 58       		.uleb128 0x58
 4480 022c 0B       		.uleb128 0xb
 4481 022d 59       		.uleb128 0x59
 4482 022e 05       		.uleb128 0x5
 4483 022f 00       		.byte	0
 4484 0230 00       		.byte	0
 4485 0231 29       		.uleb128 0x29
 4486 0232 0B       		.uleb128 0xb
 4487 0233 01       		.byte	0x1
 4488 0234 11       		.uleb128 0x11
 4489 0235 01       		.uleb128 0x1
 4490 0236 12       		.uleb128 0x12
 4491 0237 06       		.uleb128 0x6
 4492 0238 01       		.uleb128 0x1
 4493 0239 13       		.uleb128 0x13
 4494 023a 00       		.byte	0
 4495 023b 00       		.byte	0
 4496 023c 2A       		.uleb128 0x2a
 4497 023d 34       		.uleb128 0x34
 4498 023e 00       		.byte	0
 4499 023f 03       		.uleb128 0x3
 4500 0240 08       		.uleb128 0x8
 4501 0241 3A       		.uleb128 0x3a
 4502 0242 0B       		.uleb128 0xb
 4503 0243 3B       		.uleb128 0x3b
 4504 0244 05       		.uleb128 0x5
 4505 0245 49       		.uleb128 0x49
 4506 0246 13       		.uleb128 0x13
 4507 0247 02       		.uleb128 0x2
 4508 0248 18       		.uleb128 0x18
 4509 0249 00       		.byte	0
 4510 024a 00       		.byte	0
 4511 024b 2B       		.uleb128 0x2b
 4512 024c 0B       		.uleb128 0xb
 4513 024d 01       		.byte	0x1
 4514 024e 11       		.uleb128 0x11
 4515 024f 01       		.uleb128 0x1
 4516 0250 12       		.uleb128 0x12
 4517 0251 06       		.uleb128 0x6
 4518 0252 00       		.byte	0
 4519 0253 00       		.byte	0
 4520 0254 2C       		.uleb128 0x2c
 4521 0255 05       		.uleb128 0x5
 4522 0256 00       		.byte	0
 4523 0257 03       		.uleb128 0x3
 4524 0258 08       		.uleb128 0x8
 4525 0259 3A       		.uleb128 0x3a
 4526 025a 0B       		.uleb128 0xb
ARM GAS  C:\Users\LOCALA~1\AppData\Local\Temp\ccJ6EDbl.s 			page 116


 4527 025b 3B       		.uleb128 0x3b
 4528 025c 05       		.uleb128 0x5
 4529 025d 49       		.uleb128 0x49
 4530 025e 13       		.uleb128 0x13
 4531 025f 02       		.uleb128 0x2
 4532 0260 18       		.uleb128 0x18
 4533 0261 00       		.byte	0
 4534 0262 00       		.byte	0
 4535 0263 2D       		.uleb128 0x2d
 4536 0264 34       		.uleb128 0x34
 4537 0265 00       		.byte	0
 4538 0266 03       		.uleb128 0x3
 4539 0267 0E       		.uleb128 0xe
 4540 0268 3A       		.uleb128 0x3a
 4541 0269 0B       		.uleb128 0xb
 4542 026a 3B       		.uleb128 0x3b
 4543 026b 05       		.uleb128 0x5
 4544 026c 49       		.uleb128 0x49
 4545 026d 13       		.uleb128 0x13
 4546 026e 3F       		.uleb128 0x3f
 4547 026f 19       		.uleb128 0x19
 4548 0270 3C       		.uleb128 0x3c
 4549 0271 19       		.uleb128 0x19
 4550 0272 00       		.byte	0
 4551 0273 00       		.byte	0
 4552 0274 2E       		.uleb128 0x2e
 4553 0275 34       		.uleb128 0x34
 4554 0276 00       		.byte	0
 4555 0277 03       		.uleb128 0x3
 4556 0278 0E       		.uleb128 0xe
 4557 0279 3A       		.uleb128 0x3a
 4558 027a 0B       		.uleb128 0xb
 4559 027b 3B       		.uleb128 0x3b
 4560 027c 0B       		.uleb128 0xb
 4561 027d 49       		.uleb128 0x49
 4562 027e 13       		.uleb128 0x13
 4563 027f 3F       		.uleb128 0x3f
 4564 0280 19       		.uleb128 0x19
 4565 0281 3C       		.uleb128 0x3c
 4566 0282 19       		.uleb128 0x19
 4567 0283 00       		.byte	0
 4568 0284 00       		.byte	0
 4569 0285 2F       		.uleb128 0x2f
 4570 0286 34       		.uleb128 0x34
 4571 0287 00       		.byte	0
 4572 0288 03       		.uleb128 0x3
 4573 0289 0E       		.uleb128 0xe
 4574 028a 3A       		.uleb128 0x3a
 4575 028b 0B       		.uleb128 0xb
 4576 028c 3B       		.uleb128 0x3b
 4577 028d 0B       		.uleb128 0xb
 4578 028e 49       		.uleb128 0x49
 4579 028f 13       		.uleb128 0x13
 4580 0290 3F       		.uleb128 0x3f
 4581 0291 19       		.uleb128 0x19
 4582 0292 02       		.uleb128 0x2
 4583 0293 18       		.uleb128 0x18
ARM GAS  C:\Users\LOCALA~1\AppData\Local\Temp\ccJ6EDbl.s 			page 117


 4584 0294 00       		.byte	0
 4585 0295 00       		.byte	0
 4586 0296 00       		.byte	0
 4587              		.section	.debug_aranges,"",%progbits
 4588 0000 5C000000 		.4byte	0x5c
 4589 0004 0200     		.2byte	0x2
 4590 0006 00000000 		.4byte	.Ldebug_info0
 4591 000a 04       		.byte	0x4
 4592 000b 00       		.byte	0
 4593 000c 0000     		.2byte	0
 4594 000e 0000     		.2byte	0
 4595 0010 00000000 		.4byte	.LFB359
 4596 0014 20000000 		.4byte	.LFE359-.LFB359
 4597 0018 00000000 		.4byte	.LFB374
 4598 001c 3C000000 		.4byte	.LFE374-.LFB374
 4599 0020 00000000 		.4byte	.LFB659
 4600 0024 DC000000 		.4byte	.LFE659-.LFB659
 4601 0028 00000000 		.4byte	.LFB660
 4602 002c 60000000 		.4byte	.LFE660-.LFB660
 4603 0030 00000000 		.4byte	.LFB661
 4604 0034 42000000 		.4byte	.LFE661-.LFB661
 4605 0038 00000000 		.4byte	.LFB662
 4606 003c EC000000 		.4byte	.LFE662-.LFB662
 4607 0040 00000000 		.4byte	.LFB663
 4608 0044 6C020000 		.4byte	.LFE663-.LFB663
 4609 0048 00000000 		.4byte	.LFB664
 4610 004c 08000000 		.4byte	.LFE664-.LFB664
 4611 0050 00000000 		.4byte	.LFB665
 4612 0054 30000000 		.4byte	.LFE665-.LFB665
 4613 0058 00000000 		.4byte	0
 4614 005c 00000000 		.4byte	0
 4615              		.section	.debug_ranges,"",%progbits
 4616              	.Ldebug_ranges0:
 4617 0000 00000000 		.4byte	.LFB359
 4618 0004 20000000 		.4byte	.LFE359
 4619 0008 00000000 		.4byte	.LFB374
 4620 000c 3C000000 		.4byte	.LFE374
 4621 0010 00000000 		.4byte	.LFB659
 4622 0014 DC000000 		.4byte	.LFE659
 4623 0018 00000000 		.4byte	.LFB660
 4624 001c 60000000 		.4byte	.LFE660
 4625 0020 00000000 		.4byte	.LFB661
 4626 0024 42000000 		.4byte	.LFE661
 4627 0028 00000000 		.4byte	.LFB662
 4628 002c EC000000 		.4byte	.LFE662
 4629 0030 00000000 		.4byte	.LFB663
 4630 0034 6C020000 		.4byte	.LFE663
 4631 0038 00000000 		.4byte	.LFB664
 4632 003c 08000000 		.4byte	.LFE664
 4633 0040 00000000 		.4byte	.LFB665
 4634 0044 30000000 		.4byte	.LFE665
 4635 0048 00000000 		.4byte	0
 4636 004c 00000000 		.4byte	0
 4637              		.section	.debug_line,"",%progbits
 4638              	.Ldebug_line0:
 4639 0000 62050000 		.section	.debug_str,"MS",%progbits,1
 4639      0200CF03 
ARM GAS  C:\Users\LOCALA~1\AppData\Local\Temp\ccJ6EDbl.s 			page 118


 4639      00000201 
 4639      FB0E0D00 
 4639      01010101 
 4640              	.LASF136:
 4641 0000 666C6173 		.ascii	"flashCtlMainWs1Freq\000"
 4641      6843746C 
 4641      4D61696E 
 4641      57733146 
 4641      72657100 
 4642              	.LASF377:
 4643 0014 54696D65 		.ascii	"Timer_FillBuffers_config\000"
 4643      725F4669 
 4643      6C6C4275 
 4643      66666572 
 4643      735F636F 
 4644              	.LASF26:
 4645 002d 52455345 		.ascii	"RESERVED\000"
 4645      52564544 
 4645      00
 4646              	.LASF393:
 4647 0036 6753704F 		.ascii	"gSpO2Buff\000"
 4647      32427566 
 4647      6600
 4648              	.LASF364:
 4649 0040 48616E64 		.ascii	"HandleError\000"
 4649      6C654572 
 4649      726F7200 
 4650              	.LASF338:
 4651 004c 70617261 		.ascii	"params\000"
 4651      6D7300
 4652              	.LASF371:
 4653 0053 54696D65 		.ascii	"Timer_config\000"
 4653      725F636F 
 4653      6E666967 
 4653      00
 4654              	.LASF399:
 4655 0060 6D61696E 		.ascii	"main_cm4.c\000"
 4655      5F636D34 
 4655      2E6300
 4656              	.LASF352:
 4657 006b 656E644F 		.ascii	"endOfFrame\000"
 4657      66467261 
 4657      6D6500
 4658              	.LASF369:
 4659 0076 63795F64 		.ascii	"cy_device\000"
 4659      65766963 
 4659      6500
 4660              	.LASF0:
 4661 0080 73686F72 		.ascii	"short int\000"
 4661      7420696E 
 4661      7400
 4662              	.LASF359:
 4663 008a 72656164 		.ascii	"readFIFO\000"
 4663      4649464F 
 4663      00
 4664              	.LASF163:
 4665 0093 63707573 		.ascii	"cpussCm0ClockCtlOffset\000"
ARM GAS  C:\Users\LOCALA~1\AppData\Local\Temp\ccJ6EDbl.s 			page 119


 4665      73436D30 
 4665      436C6F63 
 4665      6B43746C 
 4665      4F666673 
 4666              	.LASF122:
 4667 00aa 70657269 		.ascii	"periClockNr\000"
 4667      436C6F63 
 4667      6B4E7200 
 4668              	.LASF214:
 4669 00b6 6D617374 		.ascii	"masterStatus\000"
 4669      65725374 
 4669      61747573 
 4669      00
 4670              	.LASF263:
 4671 00c3 656E6162 		.ascii	"enableMsbFirst\000"
 4671      6C654D73 
 4671      62466972 
 4671      737400
 4672              	.LASF287:
 4673 00d2 74785374 		.ascii	"txStatus\000"
 4673      61747573 
 4673      00
 4674              	.LASF96:
 4675 00db 75646242 		.ascii	"udbBase\000"
 4675      61736500 
 4676              	.LASF25:
 4677 00e3 434D445F 		.ascii	"CMD_RESP_STATUS\000"
 4677      52455350 
 4677      5F535441 
 4677      54555300 
 4678              	.LASF83:
 4679 00f3 494E5452 		.ascii	"INTR_TX_MASK\000"
 4679      5F54585F 
 4679      4D41534B 
 4679      00
 4680              	.LASF95:
 4681 0100 70657269 		.ascii	"periBase\000"
 4681      42617365 
 4681      00
 4682              	.LASF348:
 4683 0109 73657269 		.ascii	"serialFrameStruct\000"
 4683      616C4672 
 4683      616D6553 
 4683      74727563 
 4683      7400
 4684              	.LASF171:
 4685 011b 63707573 		.ascii	"cpussCm0NmiCtlOffset\000"
 4685      73436D30 
 4685      4E6D6943 
 4685      746C4F66 
 4685      66736574 
 4686              	.LASF141:
 4687 0130 64774368 		.ascii	"dwChSize\000"
 4687      53697A65 
 4687      00
 4688              	.LASF44:
 4689 0139 54585F46 		.ascii	"TX_FIFO_STATUS\000"
ARM GAS  C:\Users\LOCALA~1\AppData\Local\Temp\ccJ6EDbl.s 			page 120


 4689      49464F5F 
 4689      53544154 
 4689      555300
 4690              	.LASF221:
 4691 0148 736C6176 		.ascii	"slaveStatus\000"
 4691      65537461 
 4691      74757300 
 4692              	.LASF14:
 4693 0154 756E7369 		.ascii	"unsigned int\000"
 4693      676E6564 
 4693      20696E74 
 4693      00
 4694              	.LASF209:
 4695 0161 63795F63 		.ascii	"cy_cb_scb_i2c_handle_events_t\000"
 4695      625F7363 
 4695      625F6932 
 4695      635F6861 
 4695      6E646C65 
 4696              	.LASF219:
 4697 017f 6D617374 		.ascii	"masterBufferIdx\000"
 4697      65724275 
 4697      66666572 
 4697      49647800 
 4698              	.LASF59:
 4699 018f 494E5452 		.ascii	"INTR_CAUSE\000"
 4699      5F434155 
 4699      534500
 4700              	.LASF123:
 4701 019a 736D6966 		.ascii	"smifDeviceNr\000"
 4701      44657669 
 4701      63654E72 
 4701      00
 4702              	.LASF188:
 4703 01a7 43595F53 		.ascii	"CY_SAR_RANGE_COND_OUTSIDE\000"
 4703      41525F52 
 4703      414E4745 
 4703      5F434F4E 
 4703      445F4F55 
 4704              	.LASF153:
 4705 01c1 70657269 		.ascii	"periDivCmdPaTypeSelPos\000"
 4705      44697643 
 4705      6D645061 
 4705      54797065 
 4705      53656C50 
 4706              	.LASF269:
 4707 01d8 656E6162 		.ascii	"enableMutliProcessorMode\000"
 4707      6C654D75 
 4707      746C6950 
 4707      726F6365 
 4707      73736F72 
 4708              	.LASF316:
 4709 01f1 73746172 		.ascii	"startInput\000"
 4709      74496E70 
 4709      757400
 4710              	.LASF49:
 4711 01fc 52585F46 		.ascii	"RX_FIFO_CTRL\000"
 4711      49464F5F 
ARM GAS  C:\Users\LOCALA~1\AppData\Local\Temp\ccJ6EDbl.s 			page 121


 4711      4354524C 
 4711      00
 4712              	.LASF8:
 4713 0209 5F5F696E 		.ascii	"__int32_t\000"
 4713      7433325F 
 4713      7400
 4714              	.LASF327:
 4715 0213 4144435F 		.ascii	"ADC_INVERTING_AMP_CONFIG_STRUCT\000"
 4715      494E5645 
 4715      5254494E 
 4715      475F414D 
 4715      505F434F 
 4716              	.LASF300:
 4717 0233 63795F73 		.ascii	"cy_stc_scb_uart_context_t\000"
 4717      74635F73 
 4717      63625F75 
 4717      6172745F 
 4717      636F6E74 
 4718              	.LASF93:
 4719 024d 63707573 		.ascii	"cpussBase\000"
 4719      73426173 
 4719      6500
 4720              	.LASF332:
 4721 0257 64756D6D 		.ascii	"dummy\000"
 4721      7900
 4722              	.LASF322:
 4723 025d 6368616E 		.ascii	"channelBase\000"
 4723      6E656C42 
 4723      61736500 
 4724              	.LASF227:
 4725 0269 736C6176 		.ascii	"slaveRxBuffer\000"
 4725      65527842 
 4725      75666665 
 4725      7200
 4726              	.LASF117:
 4727 0277 63707573 		.ascii	"cpussFmIrq\000"
 4727      73466D49 
 4727      727100
 4728              	.LASF77:
 4729 0282 494E5452 		.ascii	"INTR_S_SET\000"
 4729      5F535F53 
 4729      455400
 4730              	.LASF388:
 4731 028d 6742706D 		.ascii	"gBpmCurrentIndex\000"
 4731      43757272 
 4731      656E7449 
 4731      6E646578 
 4731      00
 4732              	.LASF324:
 4733 029e 6877436F 		.ascii	"hwConfigStc\000"
 4733      6E666967 
 4733      53746300 
 4734              	.LASF147:
 4735 02aa 70657269 		.ascii	"periTrCmdGrSelMsk\000"
 4735      5472436D 
 4735      64477253 
 4735      656C4D73 
ARM GAS  C:\Users\LOCALA~1\AppData\Local\Temp\ccJ6EDbl.s 			page 122


 4735      6B00
 4736              	.LASF82:
 4737 02bc 494E5452 		.ascii	"INTR_TX_SET\000"
 4737      5F54585F 
 4737      53455400 
 4738              	.LASF89:
 4739 02c8 494E5452 		.ascii	"INTR_RX_MASKED\000"
 4739      5F52585F 
 4739      4D41534B 
 4739      454400
 4740              	.LASF206:
 4741 02d7 43595F53 		.ascii	"CY_SCB_I2C_ACK\000"
 4741      43425F49 
 4741      32435F41 
 4741      434B00
 4742              	.LASF266:
 4743 02e6 656E6162 		.ascii	"enableInputFilter\000"
 4743      6C65496E 
 4743      70757446 
 4743      696C7465 
 4743      7200
 4744              	.LASF247:
 4745 02f8 43595F53 		.ascii	"CY_SCB_UART_STOP_BITS_3_5\000"
 4745      43425F55 
 4745      4152545F 
 4745      53544F50 
 4745      5F424954 
 4746              	.LASF208:
 4747 0312 63795F65 		.ascii	"cy_en_scb_i2c_command_t\000"
 4747      6E5F7363 
 4747      625F6932 
 4747      635F636F 
 4747      6D6D616E 
 4748              	.LASF149:
 4749 032a 70657269 		.ascii	"periTrGrSize\000"
 4749      54724772 
 4749      53697A65 
 4749      00
 4750              	.LASF152:
 4751 0337 70657269 		.ascii	"periDivCmdPaDivSelPos\000"
 4751      44697643 
 4751      6D645061 
 4751      44697653 
 4751      656C506F 
 4752              	.LASF390:
 4753 034d 6754656D 		.ascii	"gTempSpO2AvgInt1\000"
 4753      7053704F 
 4753      32417667 
 4753      496E7431 
 4753      00
 4754              	.LASF391:
 4755 035e 6754656D 		.ascii	"gTempSpO2AvgInt2\000"
 4755      7053704F 
 4755      32417667 
 4755      496E7432 
 4755      00
 4756              	.LASF199:
ARM GAS  C:\Users\LOCALA~1\AppData\Local\Temp\ccJ6EDbl.s 			page 123


 4757 036f 73617449 		.ascii	"satIntrMask\000"
 4757      6E74724D 
 4757      61736B00 
 4758              	.LASF175:
 4759 037b 63707573 		.ascii	"cpussRam1Ctl0\000"
 4759      7352616D 
 4759      3143746C 
 4759      3000
 4760              	.LASF237:
 4761 0389 63795F65 		.ascii	"cy_en_scb_uart_status_t\000"
 4761      6E5F7363 
 4761      625F7561 
 4761      72745F73 
 4761      74617475 
 4762              	.LASF372:
 4763 03a1 55617274 		.ascii	"Uart_Printf_config\000"
 4763      5F507269 
 4763      6E74665F 
 4763      636F6E66 
 4763      696700
 4764              	.LASF177:
 4765 03b4 69706353 		.ascii	"ipcStructSize\000"
 4765      74727563 
 4765      7453697A 
 4765      6500
 4766              	.LASF207:
 4767 03c2 43595F53 		.ascii	"CY_SCB_I2C_NAK\000"
 4767      43425F49 
 4767      32435F4E 
 4767      414B00
 4768              	.LASF210:
 4769 03d1 63795F63 		.ascii	"cy_cb_scb_i2c_handle_addr_t\000"
 4769      625F7363 
 4769      625F6932 
 4769      635F6861 
 4769      6E646C65 
 4770              	.LASF307:
 4771 03ed 636F6D70 		.ascii	"compare0\000"
 4771      61726530 
 4771      00
 4772              	.LASF308:
 4773 03f6 636F6D70 		.ascii	"compare1\000"
 4773      61726531 
 4773      00
 4774              	.LASF111:
 4775 03ff 70726F74 		.ascii	"protVersion\000"
 4775      56657273 
 4775      696F6E00 
 4776              	.LASF258:
 4777 040b 63795F73 		.ascii	"cy_stc_scb_i2c_context\000"
 4777      74635F73 
 4777      63625F69 
 4777      32635F63 
 4777      6F6E7465 
 4778              	.LASF32:
 4779 0422 55415254 		.ascii	"UART_RX_CTRL\000"
 4779      5F52585F 
ARM GAS  C:\Users\LOCALA~1\AppData\Local\Temp\ccJ6EDbl.s 			page 124


 4779      4354524C 
 4779      00
 4780              	.LASF330:
 4781 042f 44454255 		.ascii	"DEBUG_FRAME\000"
 4781      475F4652 
 4781      414D4500 
 4782              	.LASF151:
 4783 043b 70657269 		.ascii	"periDivCmdTypeSelPos\000"
 4783      44697643 
 4783      6D645479 
 4783      70655365 
 4783      6C506F73 
 4784              	.LASF168:
 4785 0450 63707573 		.ascii	"cpussTrimRamCtlOffset\000"
 4785      73547269 
 4785      6D52616D 
 4785      43746C4F 
 4785      66667365 
 4786              	.LASF91:
 4787 0466 43795343 		.ascii	"CySCB_Type\000"
 4787      425F5479 
 4787      706500
 4788              	.LASF251:
 4789 0471 43595F53 		.ascii	"CY_SCB_UART_PARITY_EVEN\000"
 4789      43425F55 
 4789      4152545F 
 4789      50415249 
 4789      54595F45 
 4790              	.LASF392:
 4791 0489 6754656D 		.ascii	"gTempbeatAvg\000"
 4791      70626561 
 4791      74417667 
 4791      00
 4792              	.LASF385:
 4793 0496 76616C69 		.ascii	"validHeartRate\000"
 4793      64486561 
 4793      72745261 
 4793      746500
 4794              	.LASF179:
 4795 04a5 63795F73 		.ascii	"cy_stc_device_t\000"
 4795      74635F64 
 4795      65766963 
 4795      655F7400 
 4796              	.LASF40:
 4797 04b5 4932435F 		.ascii	"I2C_CFG\000"
 4797      43464700 
 4798              	.LASF223:
 4799 04bd 736C6176 		.ascii	"slaveTxBuffer\000"
 4799      65547842 
 4799      75666665 
 4799      7200
 4800              	.LASF351:
 4801 04cb 7465726D 		.ascii	"terminator_1\000"
 4801      696E6174 
 4801      6F725F31 
 4801      00
 4802              	.LASF225:
ARM GAS  C:\Users\LOCALA~1\AppData\Local\Temp\ccJ6EDbl.s 			page 125


 4803 04d8 736C6176 		.ascii	"slaveTxBufferIdx\000"
 4803      65547842 
 4803      75666665 
 4803      72496478 
 4803      00
 4804              	.LASF240:
 4805 04e9 43595F53 		.ascii	"CY_SCB_UART_IRDA\000"
 4805      43425F55 
 4805      4152545F 
 4805      49524441 
 4805      00
 4806              	.LASF20:
 4807 04fa 75696E74 		.ascii	"uint32_t\000"
 4807      33325F74 
 4807      00
 4808              	.LASF15:
 4809 0503 696E7438 		.ascii	"int8_t\000"
 4809      5F7400
 4810              	.LASF281:
 4811 050a 72784669 		.ascii	"rxFifoTriggerLevel\000"
 4811      666F5472 
 4811      69676765 
 4811      724C6576 
 4811      656C00
 4812              	.LASF72:
 4813 051d 494E5452 		.ascii	"INTR_M_SET\000"
 4813      5F4D5F53 
 4813      455400
 4814              	.LASF273:
 4815 0528 69726461 		.ascii	"irdaInvertRx\000"
 4815      496E7665 
 4815      72745278 
 4815      00
 4816              	.LASF290:
 4817 0535 72785269 		.ascii	"rxRingBufSize\000"
 4817      6E674275 
 4817      6653697A 
 4817      6500
 4818              	.LASF161:
 4819 0543 6770696F 		.ascii	"gpioPrtCfgOutOffset\000"
 4819      50727443 
 4819      66674F75 
 4819      744F6666 
 4819      73657400 
 4820              	.LASF333:
 4821 0557 64656275 		.ascii	"debugType_t\000"
 4821      67547970 
 4821      655F7400 
 4822              	.LASF81:
 4823 0563 494E5452 		.ascii	"INTR_TX\000"
 4823      5F545800 
 4824              	.LASF259:
 4825 056b 7374635F 		.ascii	"stc_scb_uart_config\000"
 4825      7363625F 
 4825      75617274 
 4825      5F636F6E 
 4825      66696700 
ARM GAS  C:\Users\LOCALA~1\AppData\Local\Temp\ccJ6EDbl.s 			page 126


 4826              	.LASF104:
 4827 057f 63727970 		.ascii	"cryptoVersion\000"
 4827      746F5665 
 4827      7273696F 
 4827      6E00
 4828              	.LASF74:
 4829 058d 494E5452 		.ascii	"INTR_M_MASKED\000"
 4829      5F4D5F4D 
 4829      41534B45 
 4829      4400
 4830              	.LASF133:
 4831 059b 666C6173 		.ascii	"flashProgramDelay\000"
 4831      6850726F 
 4831      6772616D 
 4831      44656C61 
 4831      7900
 4832              	.LASF343:
 4833 05ad 62617365 		.ascii	"base\000"
 4833      00
 4834              	.LASF286:
 4835 05b2 63795F73 		.ascii	"cy_stc_scb_uart_context\000"
 4835      74635F73 
 4835      63625F75 
 4835      6172745F 
 4835      636F6E74 
 4836              	.LASF314:
 4837 05ca 72656C6F 		.ascii	"reloadInput\000"
 4837      6164496E 
 4837      70757400 
 4838              	.LASF17:
 4839 05d6 696E7431 		.ascii	"int16_t\000"
 4839      365F7400 
 4840              	.LASF279:
 4841 05de 72747350 		.ascii	"rtsPolarity\000"
 4841      6F6C6172 
 4841      69747900 
 4842              	.LASF323:
 4843 05ea 6E756D43 		.ascii	"numChannels\000"
 4843      68616E6E 
 4843      656C7300 
 4844              	.LASF236:
 4845 05f6 43595F53 		.ascii	"CY_SCB_UART_TRANSMIT_BUSY\000"
 4845      43425F55 
 4845      4152545F 
 4845      5452414E 
 4845      534D4954 
 4846              	.LASF13:
 4847 0610 6C6F6E67 		.ascii	"long long unsigned int\000"
 4847      206C6F6E 
 4847      6720756E 
 4847      7369676E 
 4847      65642069 
 4848              	.LASF157:
 4849 0627 70657269 		.ascii	"periDiv24_5CtlOffset\000"
 4849      44697632 
 4849      345F3543 
 4849      746C4F66 
ARM GAS  C:\Users\LOCALA~1\AppData\Local\Temp\ccJ6EDbl.s 			page 127


 4849      66736574 
 4850              	.LASF162:
 4851 063c 6770696F 		.ascii	"gpioPrtCfgSioOffset\000"
 4851      50727443 
 4851      66675369 
 4851      6F4F6666 
 4851      73657400 
 4852              	.LASF357:
 4853 0650 72656164 		.ascii	"readChannels\000"
 4853      4368616E 
 4853      6E656C73 
 4853      00
 4854              	.LASF116:
 4855 065d 63707573 		.ascii	"cpussIpc0Irq\000"
 4855      73497063 
 4855      30497271 
 4855      00
 4856              	.LASF396:
 4857 066a 67704672 		.ascii	"gpFrame\000"
 4857      616D6500 
 4858              	.LASF58:
 4859 0672 52455345 		.ascii	"RESERVED9\000"
 4859      52564544 
 4859      3900
 4860              	.LASF255:
 4861 067c 43595F53 		.ascii	"CY_SCB_UART_ACTIVE_HIGH\000"
 4861      43425F55 
 4861      4152545F 
 4861      41435449 
 4861      56455F48 
 4862              	.LASF194:
 4863 0694 72616E67 		.ascii	"rangeThres\000"
 4863      65546872 
 4863      657300
 4864              	.LASF6:
 4865 069f 5F5F7569 		.ascii	"__uint16_t\000"
 4865      6E743136 
 4865      5F7400
 4866              	.LASF224:
 4867 06aa 736C6176 		.ascii	"slaveTxBufferSize\000"
 4867      65547842 
 4867      75666665 
 4867      7253697A 
 4867      6500
 4868              	.LASF186:
 4869 06bc 43595F53 		.ascii	"CY_SAR_RANGE_COND_INSIDE\000"
 4869      41525F52 
 4869      414E4745 
 4869      5F434F4E 
 4869      445F494E 
 4870              	.LASF222:
 4871 06d5 736C6176 		.ascii	"slaveRdBufEmpty\000"
 4871      65526442 
 4871      7566456D 
 4871      70747900 
 4872              	.LASF205:
 4873 06e5 63795F73 		.ascii	"cy_stc_sar_config_t\000"
ARM GAS  C:\Users\LOCALA~1\AppData\Local\Temp\ccJ6EDbl.s 			page 128


 4873      74635F73 
 4873      61725F63 
 4873      6F6E6669 
 4873      675F7400 
 4874              	.LASF165:
 4875 06f9 63707573 		.ascii	"cpussCm4StatusOffset\000"
 4875      73436D34 
 4875      53746174 
 4875      75734F66 
 4875      66736574 
 4876              	.LASF190:
 4877 070e 6374726C 		.ascii	"ctrl\000"
 4877      00
 4878              	.LASF315:
 4879 0713 73746172 		.ascii	"startInputMode\000"
 4879      74496E70 
 4879      75744D6F 
 4879      646500
 4880              	.LASF42:
 4881 0722 54585F43 		.ascii	"TX_CTRL\000"
 4881      54524C00 
 4882              	.LASF311:
 4883 072a 63617074 		.ascii	"captureInputMode\000"
 4883      75726549 
 4883      6E707574 
 4883      4D6F6465 
 4883      00
 4884              	.LASF317:
 4885 073b 73746F70 		.ascii	"stopInputMode\000"
 4885      496E7075 
 4885      744D6F64 
 4885      6500
 4886              	.LASF31:
 4887 0749 55415254 		.ascii	"UART_TX_CTRL\000"
 4887      5F54585F 
 4887      4354524C 
 4887      00
 4888              	.LASF134:
 4889 0756 666C6173 		.ascii	"flashEraseDelay\000"
 4889      68457261 
 4889      73654465 
 4889      6C617900 
 4890              	.LASF288:
 4891 0766 72785374 		.ascii	"rxStatus\000"
 4891      61747573 
 4891      00
 4892              	.LASF293:
 4893 076f 72784275 		.ascii	"rxBuf\000"
 4893      6600
 4894              	.LASF362:
 4895 0775 75617274 		.ascii	"uart_status\000"
 4895      5F737461 
 4895      74757300 
 4896              	.LASF276:
 4897 0781 656E6162 		.ascii	"enableCts\000"
 4897      6C654374 
 4897      7300
ARM GAS  C:\Users\LOCALA~1\AppData\Local\Temp\ccJ6EDbl.s 			page 129


 4898              	.LASF138:
 4899 078b 666C6173 		.ascii	"flashCtlMainWs3Freq\000"
 4899      6843746C 
 4899      4D61696E 
 4899      57733346 
 4899      72657100 
 4900              	.LASF120:
 4901 079f 73727373 		.ascii	"srssNumPll\000"
 4901      4E756D50 
 4901      6C6C00
 4902              	.LASF256:
 4903 07aa 63795F65 		.ascii	"cy_en_scb_uart_polarity_t\000"
 4903      6E5F7363 
 4903      625F7561 
 4903      72745F70 
 4903      6F6C6172 
 4904              	.LASF395:
 4905 07c4 67546973 		.ascii	"gTissueDetected\000"
 4905      73756544 
 4905      65746563 
 4905      74656400 
 4906              	.LASF339:
 4907 07d4 74697373 		.ascii	"tissueDetected\000"
 4907      75654465 
 4907      74656374 
 4907      656400
 4908              	.LASF66:
 4909 07e3 494E5452 		.ascii	"INTR_SPI_EC\000"
 4909      5F535049 
 4909      5F454300 
 4910              	.LASF245:
 4911 07ef 43595F53 		.ascii	"CY_SCB_UART_STOP_BITS_2_5\000"
 4911      43425F55 
 4911      4152545F 
 4911      53544F50 
 4911      5F424954 
 4912              	.LASF350:
 4913 0809 73657269 		.ascii	"serialFrame\000"
 4913      616C4672 
 4913      616D6500 
 4914              	.LASF341:
 4915 0815 5F5F6469 		.ascii	"__disable_irq\000"
 4915      7361626C 
 4915      655F6972 
 4915      7100
 4916              	.LASF239:
 4917 0823 43595F53 		.ascii	"CY_SCB_UART_SMARTCARD\000"
 4917      43425F55 
 4917      4152545F 
 4917      534D4152 
 4917      54434152 
 4918              	.LASF230:
 4919 0839 63624576 		.ascii	"cbEvents\000"
 4919      656E7473 
 4919      00
 4920              	.LASF347:
 4921 0842 6E6F4F66 		.ascii	"noOfBytes\000"
ARM GAS  C:\Users\LOCALA~1\AppData\Local\Temp\ccJ6EDbl.s 			page 130


 4921      42797465 
 4921      7300
 4922              	.LASF183:
 4923 084c 646F7562 		.ascii	"double\000"
 4923      6C6500
 4924              	.LASF184:
 4925 0853 5F426F6F 		.ascii	"_Bool\000"
 4925      6C00
 4926              	.LASF243:
 4927 0859 43595F53 		.ascii	"CY_SCB_UART_STOP_BITS_1_5\000"
 4927      43425F55 
 4927      4152545F 
 4927      53544F50 
 4927      5F424954 
 4928              	.LASF328:
 4929 0873 4348414E 		.ascii	"CHANNEL_DATA\000"
 4929      4E454C5F 
 4929      44415441 
 4929      00
 4930              	.LASF301:
 4931 0880 63795F73 		.ascii	"cy_stc_tcpwm_counter_config\000"
 4931      74635F74 
 4931      6370776D 
 4931      5F636F75 
 4931      6E746572 
 4932              	.LASF135:
 4933 089c 666C6173 		.ascii	"flashCtlMainWs0Freq\000"
 4933      6843746C 
 4933      4D61696E 
 4933      57733046 
 4933      72657100 
 4934              	.LASF211:
 4935 08b0 75736552 		.ascii	"useRxFifo\000"
 4935      78466966 
 4935      6F00
 4936              	.LASF400:
 4937 08ba 443A5C56 		.ascii	"D:\\Vlad\\[4]_Hospital_APP\\PSOC_Project\\PSOC_PPG."
 4937      6C61645C 
 4937      5B345D5F 
 4937      486F7370 
 4937      6974616C 
 4938 08e9 63796473 		.ascii	"cydsn\000"
 4938      6E00
 4939              	.LASF368:
 4940 08ef 49544D5F 		.ascii	"ITM_RxBuffer\000"
 4940      52784275 
 4940      66666572 
 4940      00
 4941              	.LASF99:
 4942 08fc 6770696F 		.ascii	"gpioBase\000"
 4942      42617365 
 4942      00
 4943              	.LASF61:
 4944 0905 494E5452 		.ascii	"INTR_I2C_EC\000"
 4944      5F493243 
 4944      5F454300 
 4945              	.LASF79:
ARM GAS  C:\Users\LOCALA~1\AppData\Local\Temp\ccJ6EDbl.s 			page 131


 4946 0911 494E5452 		.ascii	"INTR_S_MASKED\000"
 4946      5F535F4D 
 4946      41534B45 
 4946      4400
 4947              	.LASF253:
 4948 091f 63795F65 		.ascii	"cy_en_scb_uart_parity_t\000"
 4948      6E5F7363 
 4948      625F7561 
 4948      72745F70 
 4948      61726974 
 4949              	.LASF132:
 4950 0937 666C6173 		.ascii	"flashWriteDelay\000"
 4950      68577269 
 4950      74654465 
 4950      6C617900 
 4951              	.LASF170:
 4952 0947 63707573 		.ascii	"cpussSysTickCtlOffset\000"
 4952      73537973 
 4952      5469636B 
 4952      43746C4F 
 4952      66667365 
 4953              	.LASF126:
 4954 095d 75646250 		.ascii	"udbPresent\000"
 4954      72657365 
 4954      6E7400
 4955              	.LASF144:
 4956 0968 64775374 		.ascii	"dwStatusChIdxPos\000"
 4956      61747573 
 4956      43684964 
 4956      78506F73 
 4956      00
 4957              	.LASF272:
 4958 0979 61636365 		.ascii	"acceptAddrInFifo\000"
 4958      70744164 
 4958      6472496E 
 4958      4669666F 
 4958      00
 4959              	.LASF204:
 4960 098a 76726566 		.ascii	"vrefMvValue\000"
 4960      4D765661 
 4960      6C756500 
 4961              	.LASF102:
 4962 0996 63727970 		.ascii	"cryptoBase\000"
 4962      746F4261 
 4962      736500
 4963              	.LASF373:
 4964 09a1 55617274 		.ascii	"Uart_Printf_context\000"
 4964      5F507269 
 4964      6E74665F 
 4964      636F6E74 
 4964      65787400 
 4965              	.LASF346:
 4966 09b5 696E7075 		.ascii	"inputData\000"
 4966      74446174 
 4966      6100
 4967              	.LASF220:
 4968 09bf 6D617374 		.ascii	"masterNumBytes\000"
ARM GAS  C:\Users\LOCALA~1\AppData\Local\Temp\ccJ6EDbl.s 			page 132


 4968      65724E75 
 4968      6D427974 
 4968      657300
 4969              	.LASF115:
 4970 09ce 63707573 		.ascii	"cpussFlashPaSize\000"
 4970      73466C61 
 4970      73685061 
 4970      53697A65 
 4970      00
 4971              	.LASF312:
 4972 09df 63617074 		.ascii	"captureInput\000"
 4972      75726549 
 4972      6E707574 
 4972      00
 4973              	.LASF94:
 4974 09ec 666C6173 		.ascii	"flashcBase\000"
 4974      68634261 
 4974      736500
 4975              	.LASF181:
 4976 09f7 63686172 		.ascii	"char\000"
 4976      00
 4977              	.LASF90:
 4978 09fc 43795343 		.ascii	"CySCB_V1_Type\000"
 4978      425F5631 
 4978      5F547970 
 4978      6500
 4979              	.LASF196:
 4980 0a0a 6368616E 		.ascii	"chanEn\000"
 4980      456E00
 4981              	.LASF292:
 4982 0a11 72785269 		.ascii	"rxRingBufTail\000"
 4982      6E674275 
 4982      66546169 
 4982      6C00
 4983              	.LASF156:
 4984 0a1f 70657269 		.ascii	"periDiv16_5CtlOffset\000"
 4984      44697631 
 4984      365F3543 
 4984      746C4F66 
 4984      66736574 
 4985              	.LASF270:
 4986 0a34 72656365 		.ascii	"receiverAddress\000"
 4986      69766572 
 4986      41646472 
 4986      65737300 
 4987              	.LASF280:
 4988 0a44 62726561 		.ascii	"breakWidth\000"
 4988      6B576964 
 4988      746800
 4989              	.LASF78:
 4990 0a4f 494E5452 		.ascii	"INTR_S_MASK\000"
 4990      5F535F4D 
 4990      41534B00 
 4991              	.LASF127:
 4992 0a5b 73797350 		.ascii	"sysPmSimoPresent\000"
 4992      6D53696D 
 4992      6F507265 
ARM GAS  C:\Users\LOCALA~1\AppData\Local\Temp\ccJ6EDbl.s 			page 133


 4992      73656E74 
 4992      00
 4993              	.LASF218:
 4994 0a6c 6D617374 		.ascii	"masterBufferSize\000"
 4994      65724275 
 4994      66666572 
 4994      53697A65 
 4994      00
 4995              	.LASF129:
 4996 0a7d 63727970 		.ascii	"cryptoMemSize\000"
 4996      746F4D65 
 4996      6D53697A 
 4996      6500
 4997              	.LASF64:
 4998 0a8b 494E5452 		.ascii	"INTR_I2C_EC_MASKED\000"
 4998      5F493243 
 4998      5F45435F 
 4998      4D41534B 
 4998      454400
 4999              	.LASF303:
 5000 0a9e 636C6F63 		.ascii	"clockPrescaler\000"
 5000      6B507265 
 5000      7363616C 
 5000      657200
 5001              	.LASF267:
 5002 0aad 64726F70 		.ascii	"dropOnParityError\000"
 5002      4F6E5061 
 5002      72697479 
 5002      4572726F 
 5002      7200
 5003              	.LASF295:
 5004 0abf 72784275 		.ascii	"rxBufIdx\000"
 5004      66496478 
 5004      00
 5005              	.LASF366:
 5006 0ac8 66696C65 		.ascii	"file\000"
 5006      00
 5007              	.LASF145:
 5008 0acd 64775374 		.ascii	"dwStatusChIdxMsk\000"
 5008      61747573 
 5008      43684964 
 5008      784D736B 
 5008      00
 5009              	.LASF16:
 5010 0ade 75696E74 		.ascii	"uint8_t\000"
 5010      385F7400 
 5011              	.LASF226:
 5012 0ae6 736C6176 		.ascii	"slaveTxBufferCnt\000"
 5012      65547842 
 5012      75666665 
 5012      72436E74 
 5012      00
 5013              	.LASF354:
 5014 0af7 72656164 		.ascii	"readChannel\000"
 5014      4368616E 
 5014      6E656C00 
 5015              	.LASF150:
ARM GAS  C:\Users\LOCALA~1\AppData\Local\Temp\ccJ6EDbl.s 			page 134


 5016 0b03 70657269 		.ascii	"periDivCmdDivSelMsk\000"
 5016      44697643 
 5016      6D644469 
 5016      7653656C 
 5016      4D736B00 
 5017              	.LASF380:
 5018 0b17 6368616E 		.ascii	"channelsValues\000"
 5018      6E656C73 
 5018      56616C75 
 5018      657300
 5019              	.LASF202:
 5020 0b26 6D757853 		.ascii	"muxSwitchSqCtrl\000"
 5020      77697463 
 5020      68537143 
 5020      74726C00 
 5021              	.LASF212:
 5022 0b36 75736554 		.ascii	"useTxFifo\000"
 5022      78466966 
 5022      6F00
 5023              	.LASF257:
 5024 0b40 63795F63 		.ascii	"cy_cb_scb_uart_handle_events_t\000"
 5024      625F7363 
 5024      625F7561 
 5024      72745F68 
 5024      616E646C 
 5025              	.LASF195:
 5026 0b5f 72616E67 		.ascii	"rangeCond\000"
 5026      65436F6E 
 5026      6400
 5027              	.LASF275:
 5028 0b69 736D6172 		.ascii	"smartCardRetryOnNack\000"
 5028      74436172 
 5028      64526574 
 5028      72794F6E 
 5028      4E61636B 
 5029              	.LASF174:
 5030 0b7e 63707573 		.ascii	"cpussRam0Ctl0\000"
 5030      7352616D 
 5030      3043746C 
 5030      3000
 5031              	.LASF12:
 5032 0b8c 6C6F6E67 		.ascii	"long long int\000"
 5032      206C6F6E 
 5032      6720696E 
 5032      7400
 5033              	.LASF101:
 5034 0b9a 69706342 		.ascii	"ipcBase\000"
 5034      61736500 
 5035              	.LASF142:
 5036 0ba2 64774368 		.ascii	"dwChCtlPrioPos\000"
 5036      43746C50 
 5036      72696F50 
 5036      6F7300
 5037              	.LASF374:
 5038 0bb1 4144435F 		.ascii	"ADC_INVERTING_AMP_currentConfig\000"
 5038      494E5645 
 5038      5254494E 
ARM GAS  C:\Users\LOCALA~1\AppData\Local\Temp\ccJ6EDbl.s 			page 135


 5038      475F414D 
 5038      505F6375 
 5039              	.LASF234:
 5040 0bd1 43595F53 		.ascii	"CY_SCB_UART_BAD_PARAM\000"
 5040      43425F55 
 5040      4152545F 
 5040      4241445F 
 5040      50415241 
 5041              	.LASF386:
 5042 0be7 67426561 		.ascii	"gBeatAvg\000"
 5042      74417667 
 5042      00
 5043              	.LASF337:
 5044 0bf0 6672616D 		.ascii	"frameType\000"
 5044      65547970 
 5044      6500
 5045              	.LASF334:
 5046 0bfa 68725F73 		.ascii	"hr_spo2\000"
 5046      706F3200 
 5047              	.LASF358:
 5048 0c02 6368616E 		.ascii	"channelsBuffer\000"
 5048      6E656C73 
 5048      42756666 
 5048      657200
 5049              	.LASF329:
 5050 0c11 50415241 		.ascii	"PARAMS\000"
 5050      4D5300
 5051              	.LASF340:
 5052 0c18 6672616D 		.ascii	"frameParams_t\000"
 5052      65506172 
 5052      616D735F 
 5052      7400
 5053              	.LASF274:
 5054 0c26 69726461 		.ascii	"irdaEnableLowPowerReceiver\000"
 5054      456E6162 
 5054      6C654C6F 
 5054      77506F77 
 5054      65725265 
 5055              	.LASF242:
 5056 0c41 43595F53 		.ascii	"CY_SCB_UART_STOP_BITS_1\000"
 5056      43425F55 
 5056      4152545F 
 5056      53544F50 
 5056      5F424954 
 5057              	.LASF244:
 5058 0c59 43595F53 		.ascii	"CY_SCB_UART_STOP_BITS_2\000"
 5058      43425F55 
 5058      4152545F 
 5058      53544F50 
 5058      5F424954 
 5059              	.LASF246:
 5060 0c71 43595F53 		.ascii	"CY_SCB_UART_STOP_BITS_3\000"
 5060      43425F55 
 5060      4152545F 
 5060      53544F50 
 5060      5F424954 
 5061              	.LASF248:
ARM GAS  C:\Users\LOCALA~1\AppData\Local\Temp\ccJ6EDbl.s 			page 136


 5062 0c89 43595F53 		.ascii	"CY_SCB_UART_STOP_BITS_4\000"
 5062      43425F55 
 5062      4152545F 
 5062      53544F50 
 5062      5F424954 
 5063              	.LASF160:
 5064 0ca1 6770696F 		.ascii	"gpioPrtCfgInOffset\000"
 5064      50727443 
 5064      6667496E 
 5064      4F666673 
 5064      657400
 5065              	.LASF5:
 5066 0cb4 5F5F696E 		.ascii	"__int16_t\000"
 5066      7431365F 
 5066      7400
 5067              	.LASF34:
 5068 0cbe 55415254 		.ascii	"UART_FLOW_CTRL\000"
 5068      5F464C4F 
 5068      575F4354 
 5068      524C00
 5069              	.LASF235:
 5070 0ccd 43595F53 		.ascii	"CY_SCB_UART_RECEIVE_BUSY\000"
 5070      43425F55 
 5070      4152545F 
 5070      52454345 
 5070      4956455F 
 5071              	.LASF264:
 5072 0ce6 73746F70 		.ascii	"stopBits\000"
 5072      42697473 
 5072      00
 5073              	.LASF98:
 5074 0cef 6873696F 		.ascii	"hsiomBase\000"
 5074      6D426173 
 5074      6500
 5075              	.LASF216:
 5076 0cf9 6D617374 		.ascii	"masterRdDir\000"
 5076      65725264 
 5076      44697200 
 5077              	.LASF148:
 5078 0d05 70657269 		.ascii	"periTrGrOffset\000"
 5078      54724772 
 5078      4F666673 
 5078      657400
 5079              	.LASF118:
 5080 0d14 63707573 		.ascii	"cpussNotConnectedIrq\000"
 5080      734E6F74 
 5080      436F6E6E 
 5080      65637465 
 5080      64497271 
 5081              	.LASF291:
 5082 0d29 72785269 		.ascii	"rxRingBufHead\000"
 5082      6E674275 
 5082      66486561 
 5082      6400
 5083              	.LASF114:
 5084 0d37 63707573 		.ascii	"cpussDwChNr\000"
 5084      73447743 
ARM GAS  C:\Users\LOCALA~1\AppData\Local\Temp\ccJ6EDbl.s 			page 137


 5084      684E7200 
 5085              	.LASF313:
 5086 0d43 72656C6F 		.ascii	"reloadInputMode\000"
 5086      6164496E 
 5086      7075744D 
 5086      6F646500 
 5087              	.LASF349:
 5088 0d53 70467261 		.ascii	"pFrame\000"
 5088      6D6500
 5089              	.LASF344:
 5090 0d5a 62756666 		.ascii	"buffer\000"
 5090      657200
 5091              	.LASF345:
 5092 0d61 73697A65 		.ascii	"size\000"
 5092      00
 5093              	.LASF375:
 5094 0d66 4144435F 		.ascii	"ADC_INVERTING_AMP_allConfigs\000"
 5094      494E5645 
 5094      5254494E 
 5094      475F414D 
 5094      505F616C 
 5095              	.LASF381:
 5096 0d83 73706F32 		.ascii	"spo2\000"
 5096      00
 5097              	.LASF297:
 5098 0d88 74784275 		.ascii	"txBufSize\000"
 5098      6653697A 
 5098      6500
 5099              	.LASF112:
 5100 0d92 63707573 		.ascii	"cpussIpcNr\000"
 5100      73497063 
 5100      4E7200
 5101              	.LASF331:
 5102 0d9d 6672616D 		.ascii	"frameType_t\000"
 5102      65547970 
 5102      655F7400 
 5103              	.LASF252:
 5104 0da9 43595F53 		.ascii	"CY_SCB_UART_PARITY_ODD\000"
 5104      43425F55 
 5104      4152545F 
 5104      50415249 
 5104      54595F4F 
 5105              	.LASF124:
 5106 0dc0 70617373 		.ascii	"passSarChannels\000"
 5106      53617243 
 5106      68616E6E 
 5106      656C7300 
 5107              	.LASF229:
 5108 0dd0 736C6176 		.ascii	"slaveRxBufferIdx\000"
 5108      65527842 
 5108      75666665 
 5108      72496478 
 5108      00
 5109              	.LASF176:
 5110 0de1 63707573 		.ascii	"cpussRam2Ctl0\000"
 5110      7352616D 
 5110      3243746C 
ARM GAS  C:\Users\LOCALA~1\AppData\Local\Temp\ccJ6EDbl.s 			page 138


 5110      3000
 5111              	.LASF215:
 5112 0def 6D617374 		.ascii	"masterPause\000"
 5112      65725061 
 5112      75736500 
 5113              	.LASF167:
 5114 0dfb 63707573 		.ascii	"cpussCm4PwrCtlOffset\000"
 5114      73436D34 
 5114      50777243 
 5114      746C4F66 
 5114      66736574 
 5115              	.LASF86:
 5116 0e10 494E5452 		.ascii	"INTR_RX\000"
 5116      5F525800 
 5117              	.LASF296:
 5118 0e18 74784275 		.ascii	"txBuf\000"
 5118      6600
 5119              	.LASF2:
 5120 0e1e 5F5F696E 		.ascii	"__int8_t\000"
 5120      74385F74 
 5120      00
 5121              	.LASF155:
 5122 0e27 70657269 		.ascii	"periDiv16CtlOffset\000"
 5122      44697631 
 5122      3643746C 
 5122      4F666673 
 5122      657400
 5123              	.LASF228:
 5124 0e3a 736C6176 		.ascii	"slaveRxBufferSize\000"
 5124      65527842 
 5124      75666665 
 5124      7253697A 
 5124      6500
 5125              	.LASF363:
 5126 0e4c 43795F53 		.ascii	"Cy_SCB_UART_Enable\000"
 5126      43425F55 
 5126      4152545F 
 5126      456E6162 
 5126      6C6500
 5127              	.LASF130:
 5128 0e5f 666C6173 		.ascii	"flashRwwRequired\000"
 5128      68527777 
 5128      52657175 
 5128      69726564 
 5128      00
 5129              	.LASF201:
 5130 0e70 6D757853 		.ascii	"muxSwitch\000"
 5130      77697463 
 5130      6800
 5131              	.LASF7:
 5132 0e7a 73686F72 		.ascii	"short unsigned int\000"
 5132      7420756E 
 5132      7369676E 
 5132      65642069 
 5132      6E7400
 5133              	.LASF289:
 5134 0e8d 72785269 		.ascii	"rxRingBuf\000"
ARM GAS  C:\Users\LOCALA~1\AppData\Local\Temp\ccJ6EDbl.s 			page 139


 5134      6E674275 
 5134      6600
 5135              	.LASF92:
 5136 0e97 6C6F6E67 		.ascii	"long double\000"
 5136      20646F75 
 5136      626C6500 
 5137              	.LASF18:
 5138 0ea3 75696E74 		.ascii	"uint16_t\000"
 5138      31365F74 
 5138      00
 5139              	.LASF63:
 5140 0eac 494E5452 		.ascii	"INTR_I2C_EC_MASK\000"
 5140      5F493243 
 5140      5F45435F 
 5140      4D41534B 
 5140      00
 5141              	.LASF97:
 5142 0ebd 70726F74 		.ascii	"protBase\000"
 5142      42617365 
 5142      00
 5143              	.LASF304:
 5144 0ec6 72756E4D 		.ascii	"runMode\000"
 5144      6F646500 
 5145              	.LASF55:
 5146 0ece 52585F46 		.ascii	"RX_FIFO_RD_SILENT\000"
 5146      49464F5F 
 5146      52445F53 
 5146      494C454E 
 5146      5400
 5147              	.LASF217:
 5148 0ee0 6D617374 		.ascii	"masterBuffer\000"
 5148      65724275 
 5148      66666572 
 5148      00
 5149              	.LASF365:
 5150 0eed 5F777269 		.ascii	"_write\000"
 5150      746500
 5151              	.LASF192:
 5152 0ef4 73616D70 		.ascii	"sampleTime01\000"
 5152      6C655469 
 5152      6D653031 
 5152      00
 5153              	.LASF355:
 5154 0f01 6368616E 		.ascii	"channel\000"
 5154      6E656C00 
 5155              	.LASF121:
 5156 0f09 73727373 		.ascii	"srssNumHfroot\000"
 5156      4E756D48 
 5156      66726F6F 
 5156      7400
 5157              	.LASF321:
 5158 0f17 63795F73 		.ascii	"cy_stc_tcpwm_counter_config_t\000"
 5158      74635F74 
 5158      6370776D 
 5158      5F636F75 
 5158      6E746572 
 5159              	.LASF185:
ARM GAS  C:\Users\LOCALA~1\AppData\Local\Temp\ccJ6EDbl.s 			page 140


 5160 0f35 43595F53 		.ascii	"CY_SAR_RANGE_COND_BELOW\000"
 5160      41525F52 
 5160      414E4745 
 5160      5F434F4E 
 5160      445F4245 
 5161              	.LASF105:
 5162 0f4d 64775665 		.ascii	"dwVersion\000"
 5162      7273696F 
 5162      6E00
 5163              	.LASF68:
 5164 0f57 494E5452 		.ascii	"INTR_SPI_EC_MASK\000"
 5164      5F535049 
 5164      5F45435F 
 5164      4D41534B 
 5164      00
 5165              	.LASF265:
 5166 0f68 70617269 		.ascii	"parity\000"
 5166      747900
 5167              	.LASF231:
 5168 0f6f 63624164 		.ascii	"cbAddr\000"
 5168      647200
 5169              	.LASF271:
 5170 0f76 72656365 		.ascii	"receiverAddressMask\000"
 5170      69766572 
 5170      41646472 
 5170      6573734D 
 5170      61736B00 
 5171              	.LASF21:
 5172 0f8a 73697A65 		.ascii	"sizetype\000"
 5172      74797065 
 5172      00
 5173              	.LASF402:
 5174 0f93 73656E64 		.ascii	"sendFrame\000"
 5174      4672616D 
 5174      6500
 5175              	.LASF39:
 5176 0f9d 4932435F 		.ascii	"I2C_S_CMD\000"
 5176      535F434D 
 5176      4400
 5177              	.LASF172:
 5178 0fa7 63707573 		.ascii	"cpussCm4NmiCtlOffset\000"
 5178      73436D34 
 5178      4E6D6943 
 5178      746C4F66 
 5178      66736574 
 5179              	.LASF306:
 5180 0fbc 636F6D70 		.ascii	"compareOrCapture\000"
 5180      6172654F 
 5180      72436170 
 5180      74757265 
 5180      00
 5181              	.LASF154:
 5182 0fcd 70657269 		.ascii	"periDiv8CtlOffset\000"
 5182      44697638 
 5182      43746C4F 
 5182      66667365 
 5182      7400
ARM GAS  C:\Users\LOCALA~1\AppData\Local\Temp\ccJ6EDbl.s 			page 141


 5183              	.LASF35:
 5184 0fdf 52455345 		.ascii	"RESERVED2\000"
 5184      52564544 
 5184      3200
 5185              	.LASF41:
 5186 0fe9 52455345 		.ascii	"RESERVED3\000"
 5186      52564544 
 5186      3300
 5187              	.LASF45:
 5188 0ff3 52455345 		.ascii	"RESERVED4\000"
 5188      52564544 
 5188      3400
 5189              	.LASF47:
 5190 0ffd 52455345 		.ascii	"RESERVED5\000"
 5190      52564544 
 5190      3500
 5191              	.LASF51:
 5192 1007 52455345 		.ascii	"RESERVED6\000"
 5192      52564544 
 5192      3600
 5193              	.LASF53:
 5194 1011 52455345 		.ascii	"RESERVED7\000"
 5194      52564544 
 5194      3700
 5195              	.LASF56:
 5196 101b 52455345 		.ascii	"RESERVED8\000"
 5196      52564544 
 5196      3800
 5197              	.LASF394:
 5198 1025 6753704F 		.ascii	"gSpO2CurrentIndex\000"
 5198      32437572 
 5198      72656E74 
 5198      496E6465 
 5198      7800
 5199              	.LASF335:
 5200 1037 77617665 		.ascii	"wavelength\000"
 5200      6C656E67 
 5200      746800
 5201              	.LASF310:
 5202 1042 696E7465 		.ascii	"interruptSources\000"
 5202      72727570 
 5202      74536F75 
 5202      72636573 
 5202      00
 5203              	.LASF309:
 5204 1053 656E6162 		.ascii	"enableCompareSwap\000"
 5204      6C65436F 
 5204      6D706172 
 5204      65537761 
 5204      7000
 5205              	.LASF9:
 5206 1065 6C6F6E67 		.ascii	"long int\000"
 5206      20696E74 
 5206      00
 5207              	.LASF103:
 5208 106e 63707573 		.ascii	"cpussVersion\000"
 5208      73566572 
ARM GAS  C:\Users\LOCALA~1\AppData\Local\Temp\ccJ6EDbl.s 			page 142


 5208      73696F6E 
 5208      00
 5209              	.LASF37:
 5210 107b 4932435F 		.ascii	"I2C_STATUS\000"
 5210      53544154 
 5210      555300
 5211              	.LASF319:
 5212 1086 636F756E 		.ascii	"countInputMode\000"
 5212      74496E70 
 5212      75744D6F 
 5212      646500
 5213              	.LASF107:
 5214 1095 6770696F 		.ascii	"gpioVersion\000"
 5214      56657273 
 5214      696F6E00 
 5215              	.LASF84:
 5216 10a1 494E5452 		.ascii	"INTR_TX_MASKED\000"
 5216      5F54585F 
 5216      4D41534B 
 5216      454400
 5217              	.LASF378:
 5218 10b0 73616D70 		.ascii	"samplesTaken\000"
 5218      6C657354 
 5218      616B656E 
 5218      00
 5219              	.LASF106:
 5220 10bd 666C6173 		.ascii	"flashcVersion\000"
 5220      68635665 
 5220      7273696F 
 5220      6E00
 5221              	.LASF128:
 5222 10cb 70726F74 		.ascii	"protBusMasterMask\000"
 5222      4275734D 
 5222      61737465 
 5222      724D6173 
 5222      6B00
 5223              	.LASF360:
 5224 10dd 62497354 		.ascii	"bIsTissuePresent\000"
 5224      69737375 
 5224      65507265 
 5224      73656E74 
 5224      00
 5225              	.LASF305:
 5226 10ee 636F756E 		.ascii	"countDirection\000"
 5226      74446972 
 5226      65637469 
 5226      6F6E00
 5227              	.LASF187:
 5228 10fd 43595F53 		.ascii	"CY_SAR_RANGE_COND_ABOVE\000"
 5228      41525F52 
 5228      414E4745 
 5228      5F434F4E 
 5228      445F4142 
 5229              	.LASF180:
 5230 1115 63686172 		.ascii	"char_t\000"
 5230      5F7400
 5231              	.LASF52:
ARM GAS  C:\Users\LOCALA~1\AppData\Local\Temp\ccJ6EDbl.s 			page 143


 5232 111c 52585F4D 		.ascii	"RX_MATCH\000"
 5232      41544348 
 5232      00
 5233              	.LASF397:
 5234 1125 6672616D 		.ascii	"frameParam\000"
 5234      65506172 
 5234      616D00
 5235              	.LASF376:
 5236 1130 54696D65 		.ascii	"Timer_1_config\000"
 5236      725F315F 
 5236      636F6E66 
 5236      696700
 5237              	.LASF33:
 5238 113f 55415254 		.ascii	"UART_RX_STATUS\000"
 5238      5F52585F 
 5238      53544154 
 5238      555300
 5239              	.LASF389:
 5240 114e 6754656D 		.ascii	"gTempSpO2Avg\000"
 5240      7053704F 
 5240      32417667 
 5240      00
 5241              	.LASF298:
 5242 115b 74784C65 		.ascii	"txLeftToTransmit\000"
 5242      6674546F 
 5242      5472616E 
 5242      736D6974 
 5242      00
 5243              	.LASF356:
 5244 116c 6368616E 		.ascii	"channelValue\000"
 5244      6E656C56 
 5244      616C7565 
 5244      00
 5245              	.LASF260:
 5246 1179 75617274 		.ascii	"uartMode\000"
 5246      4D6F6465 
 5246      00
 5247              	.LASF3:
 5248 1182 5F5F7569 		.ascii	"__uint8_t\000"
 5248      6E74385F 
 5248      7400
 5249              	.LASF325:
 5250 118c 6D697363 		.ascii	"miscConfig\000"
 5250      436F6E66 
 5250      696700
 5251              	.LASF43:
 5252 1197 54585F46 		.ascii	"TX_FIFO_CTRL\000"
 5252      49464F5F 
 5252      4354524C 
 5252      00
 5253              	.LASF383:
 5254 11a4 68656172 		.ascii	"heartRate\000"
 5254      74526174 
 5254      6500
 5255              	.LASF38:
 5256 11ae 4932435F 		.ascii	"I2C_M_CMD\000"
 5256      4D5F434D 
ARM GAS  C:\Users\LOCALA~1\AppData\Local\Temp\ccJ6EDbl.s 			page 144


 5256      4400
 5257              	.LASF69:
 5258 11b8 494E5452 		.ascii	"INTR_SPI_EC_MASKED\000"
 5258      5F535049 
 5258      5F45435F 
 5258      4D41534B 
 5258      454400
 5259              	.LASF387:
 5260 11cb 6742706D 		.ascii	"gBpmBuff\000"
 5260      42756666 
 5260      00
 5261              	.LASF158:
 5262 11d4 6770696F 		.ascii	"gpioPrtIntrCfgOffset\000"
 5262      50727449 
 5262      6E747243 
 5262      66674F66 
 5262      66736574 
 5263              	.LASF27:
 5264 11e9 5350495F 		.ascii	"SPI_CTRL\000"
 5264      4354524C 
 5264      00
 5265              	.LASF241:
 5266 11f2 63795F65 		.ascii	"cy_en_scb_uart_mode_t\000"
 5266      6E5F7363 
 5266      625F7561 
 5266      72745F6D 
 5266      6F64655F 
 5267              	.LASF164:
 5268 1208 63707573 		.ascii	"cpussCm4ClockCtlOffset\000"
 5268      73436D34 
 5268      436C6F63 
 5268      6B43746C 
 5268      4F666673 
 5269              	.LASF48:
 5270 121f 52585F43 		.ascii	"RX_CTRL\000"
 5270      54524C00 
 5271              	.LASF169:
 5272 1227 63707573 		.ascii	"cpussTrimRomCtlOffset\000"
 5272      73547269 
 5272      6D526F6D 
 5272      43746C4F 
 5272      66667365 
 5273              	.LASF193:
 5274 123d 73616D70 		.ascii	"sampleTime23\000"
 5274      6C655469 
 5274      6D653233 
 5274      00
 5275              	.LASF353:
 5276 124a 63726561 		.ascii	"createSerialFrame\000"
 5276      74655365 
 5276      7269616C 
 5276      4672616D 
 5276      6500
 5277              	.LASF36:
 5278 125c 4932435F 		.ascii	"I2C_CTRL\000"
 5278      4354524C 
 5278      00
ARM GAS  C:\Users\LOCALA~1\AppData\Local\Temp\ccJ6EDbl.s 			page 145


 5279              	.LASF108:
 5280 1265 6873696F 		.ascii	"hsiomVersion\000"
 5280      6D566572 
 5280      73696F6E 
 5280      00
 5281              	.LASF11:
 5282 1272 6C6F6E67 		.ascii	"long unsigned int\000"
 5282      20756E73 
 5282      69676E65 
 5282      6420696E 
 5282      7400
 5283              	.LASF71:
 5284 1284 494E5452 		.ascii	"INTR_M\000"
 5284      5F4D00
 5285              	.LASF173:
 5286 128b 63707573 		.ascii	"cpussRomCtl\000"
 5286      73526F6D 
 5286      43746C00 
 5287              	.LASF182:
 5288 1297 666C6F61 		.ascii	"float\000"
 5288      7400
 5289              	.LASF76:
 5290 129d 494E5452 		.ascii	"INTR_S\000"
 5290      5F5300
 5291              	.LASF19:
 5292 12a4 696E7433 		.ascii	"int32_t\000"
 5292      325F7400 
 5293              	.LASF73:
 5294 12ac 494E5452 		.ascii	"INTR_M_MASK\000"
 5294      5F4D5F4D 
 5294      41534B00 
 5295              	.LASF283:
 5296 12b8 74784669 		.ascii	"txFifoTriggerLevel\000"
 5296      666F5472 
 5296      69676765 
 5296      724C6576 
 5296      656C00
 5297              	.LASF238:
 5298 12cb 43595F53 		.ascii	"CY_SCB_UART_STANDARD\000"
 5298      43425F55 
 5298      4152545F 
 5298      5354414E 
 5298      44415244 
 5299              	.LASF166:
 5300 12e0 63707573 		.ascii	"cpussCm0StatusOffset\000"
 5300      73436D30 
 5300      53746174 
 5300      75734F66 
 5300      66736574 
 5301              	.LASF191:
 5302 12f5 73616D70 		.ascii	"sampleCtrl\000"
 5302      6C654374 
 5302      726C00
 5303              	.LASF28:
 5304 1300 5350495F 		.ascii	"SPI_STATUS\000"
 5304      53544154 
 5304      555300
ARM GAS  C:\Users\LOCALA~1\AppData\Local\Temp\ccJ6EDbl.s 			page 146


 5305              	.LASF131:
 5306 130b 666C6173 		.ascii	"flashPipeRequired\000"
 5306      68506970 
 5306      65526571 
 5306      75697265 
 5306      6400
 5307              	.LASF4:
 5308 131d 756E7369 		.ascii	"unsigned char\000"
 5308      676E6564 
 5308      20636861 
 5308      7200
 5309              	.LASF233:
 5310 132b 43595F53 		.ascii	"CY_SCB_UART_SUCCESS\000"
 5310      43425F55 
 5310      4152545F 
 5310      53554343 
 5310      45535300 
 5311              	.LASF10:
 5312 133f 5F5F7569 		.ascii	"__uint32_t\000"
 5312      6E743332 
 5312      5F7400
 5313              	.LASF178:
 5314 134a 6970634C 		.ascii	"ipcLockStatusOffset\000"
 5314      6F636B53 
 5314      74617475 
 5314      734F6666 
 5314      73657400 
 5315              	.LASF254:
 5316 135e 43595F53 		.ascii	"CY_SCB_UART_ACTIVE_LOW\000"
 5316      43425F55 
 5316      4152545F 
 5316      41435449 
 5316      56455F4C 
 5317              	.LASF320:
 5318 1375 636F756E 		.ascii	"countInput\000"
 5318      74496E70 
 5318      757400
 5319              	.LASF159:
 5320 1380 6770696F 		.ascii	"gpioPrtCfgOffset\000"
 5320      50727443 
 5320      66674F66 
 5320      66736574 
 5320      00
 5321              	.LASF318:
 5322 1391 73746F70 		.ascii	"stopInput\000"
 5322      496E7075 
 5322      7400
 5323              	.LASF60:
 5324 139b 52455345 		.ascii	"RESERVED10\000"
 5324      52564544 
 5324      313000
 5325              	.LASF62:
 5326 13a6 52455345 		.ascii	"RESERVED11\000"
 5326      52564544 
 5326      313100
 5327              	.LASF65:
 5328 13b1 52455345 		.ascii	"RESERVED12\000"
ARM GAS  C:\Users\LOCALA~1\AppData\Local\Temp\ccJ6EDbl.s 			page 147


 5328      52564544 
 5328      313200
 5329              	.LASF67:
 5330 13bc 52455345 		.ascii	"RESERVED13\000"
 5330      52564544 
 5330      313300
 5331              	.LASF70:
 5332 13c7 52455345 		.ascii	"RESERVED14\000"
 5332      52564544 
 5332      313400
 5333              	.LASF75:
 5334 13d2 52455345 		.ascii	"RESERVED15\000"
 5334      52564544 
 5334      313500
 5335              	.LASF80:
 5336 13dd 52455345 		.ascii	"RESERVED16\000"
 5336      52564544 
 5336      313600
 5337              	.LASF85:
 5338 13e8 52455345 		.ascii	"RESERVED17\000"
 5338      52564544 
 5338      313700
 5339              	.LASF50:
 5340 13f3 52585F46 		.ascii	"RX_FIFO_STATUS\000"
 5340      49464F5F 
 5340      53544154 
 5340      555300
 5341              	.LASF367:
 5342 1402 6E436861 		.ascii	"nChars\000"
 5342      727300
 5343              	.LASF326:
 5344 1409 636C6B44 		.ascii	"clkDivider\000"
 5344      69766964 
 5344      657200
 5345              	.LASF213:
 5346 1414 73746174 		.ascii	"state\000"
 5346      6500
 5347              	.LASF382:
 5348 141a 76616C69 		.ascii	"validSPO2\000"
 5348      6453504F 
 5348      3200
 5349              	.LASF46:
 5350 1424 54585F46 		.ascii	"TX_FIFO_WR\000"
 5350      49464F5F 
 5350      575200
 5351              	.LASF277:
 5352 142f 63747350 		.ascii	"ctsPolarity\000"
 5352      6F6C6172 
 5352      69747900 
 5353              	.LASF285:
 5354 143b 63795F73 		.ascii	"cy_stc_scb_uart_config_t\000"
 5354      74635F73 
 5354      63625F75 
 5354      6172745F 
 5354      636F6E66 
 5355              	.LASF336:
 5356 1454 64656275 		.ascii	"debugParam\000"
ARM GAS  C:\Users\LOCALA~1\AppData\Local\Temp\ccJ6EDbl.s 			page 148


 5356      67506172 
 5356      616D00
 5357              	.LASF278:
 5358 145f 72747352 		.ascii	"rtsRxFifoLevel\000"
 5358      78466966 
 5358      6F4C6576 
 5358      656C00
 5359              	.LASF250:
 5360 146e 43595F53 		.ascii	"CY_SCB_UART_PARITY_NONE\000"
 5360      43425F55 
 5360      4152545F 
 5360      50415249 
 5360      54595F4E 
 5361              	.LASF284:
 5362 1486 74784669 		.ascii	"txFifoIntEnableMask\000"
 5362      666F496E 
 5362      74456E61 
 5362      626C654D 
 5362      61736B00 
 5363              	.LASF384:
 5364 149a 674C6173 		.ascii	"gLastHeartRate\000"
 5364      74486561 
 5364      72745261 
 5364      746500
 5365              	.LASF125:
 5366 14a9 65704D6F 		.ascii	"epMonitorNr\000"
 5366      6E69746F 
 5366      724E7200 
 5367              	.LASF1:
 5368 14b5 7369676E 		.ascii	"signed char\000"
 5368      65642063 
 5368      68617200 
 5369              	.LASF302:
 5370 14c1 70657269 		.ascii	"period\000"
 5370      6F6400
 5371              	.LASF140:
 5372 14c8 64774368 		.ascii	"dwChOffset\000"
 5372      4F666673 
 5372      657400
 5373              	.LASF30:
 5374 14d3 55415254 		.ascii	"UART_CTRL\000"
 5374      5F435452 
 5374      4C00
 5375              	.LASF113:
 5376 14dd 63707573 		.ascii	"cpussIpcIrqNr\000"
 5376      73497063 
 5376      4972714E 
 5376      7200
 5377              	.LASF88:
 5378 14eb 494E5452 		.ascii	"INTR_RX_MASK\000"
 5378      5F52585F 
 5378      4D41534B 
 5378      00
 5379              	.LASF143:
 5380 14f8 64774368 		.ascii	"dwChCtlPreemptablePos\000"
 5380      43746C50 
 5380      7265656D 
ARM GAS  C:\Users\LOCALA~1\AppData\Local\Temp\ccJ6EDbl.s 			page 149


 5380      70746162 
 5380      6C65506F 
 5381              	.LASF361:
 5382 150e 6D61696E 		.ascii	"main\000"
 5382      00
 5383              	.LASF24:
 5384 1513 434D445F 		.ascii	"CMD_RESP_CTRL\000"
 5384      52455350 
 5384      5F435452 
 5384      4C00
 5385              	.LASF197:
 5386 1521 6368616E 		.ascii	"chanConfig\000"
 5386      436F6E66 
 5386      696700
 5387              	.LASF342:
 5388 152c 5F5F656E 		.ascii	"__enable_irq\000"
 5388      61626C65 
 5388      5F697271 
 5388      00
 5389              	.LASF110:
 5390 1539 70657269 		.ascii	"periVersion\000"
 5390      56657273 
 5390      696F6E00 
 5391              	.LASF299:
 5392 1545 696E6974 		.ascii	"initKey\000"
 5392      4B657900 
 5393              	.LASF203:
 5394 154d 636F6E66 		.ascii	"configRouting\000"
 5394      6967526F 
 5394      7574696E 
 5394      6700
 5395              	.LASF100:
 5396 155b 70617373 		.ascii	"passBase\000"
 5396      42617365 
 5396      00
 5397              	.LASF137:
 5398 1564 666C6173 		.ascii	"flashCtlMainWs2Freq\000"
 5398      6843746C 
 5398      4D61696E 
 5398      57733246 
 5398      72657100 
 5399              	.LASF87:
 5400 1578 494E5452 		.ascii	"INTR_RX_SET\000"
 5400      5F52585F 
 5400      53455400 
 5401              	.LASF29:
 5402 1584 52455345 		.ascii	"RESERVED1\000"
 5402      52564544 
 5402      3100
 5403              	.LASF119:
 5404 158e 73727373 		.ascii	"srssNumClkpath\000"
 5404      4E756D43 
 5404      6C6B7061 
 5404      746800
 5405              	.LASF23:
 5406 159d 53544154 		.ascii	"STATUS\000"
 5406      555300
ARM GAS  C:\Users\LOCALA~1\AppData\Local\Temp\ccJ6EDbl.s 			page 150


 5407              	.LASF232:
 5408 15a4 63795F73 		.ascii	"cy_stc_scb_i2c_context_t\000"
 5408      74635F73 
 5408      63625F69 
 5408      32635F63 
 5408      6F6E7465 
 5409              	.LASF139:
 5410 15bd 666C6173 		.ascii	"flashCtlMainWs4Freq\000"
 5410      6843746C 
 5410      4D61696E 
 5410      57733446 
 5410      72657100 
 5411              	.LASF200:
 5412 15d1 72616E67 		.ascii	"rangeIntrMask\000"
 5412      65496E74 
 5412      724D6173 
 5412      6B00
 5413              	.LASF261:
 5414 15df 6F766572 		.ascii	"oversample\000"
 5414      73616D70 
 5414      6C6500
 5415              	.LASF189:
 5416 15ea 63795F65 		.ascii	"cy_en_sar_range_detect_condition_t\000"
 5416      6E5F7361 
 5416      725F7261 
 5416      6E67655F 
 5416      64657465 
 5417              	.LASF262:
 5418 160d 64617461 		.ascii	"dataWidth\000"
 5418      57696474 
 5418      6800
 5419              	.LASF398:
 5420 1617 474E5520 		.ascii	"GNU C11 5.4.1 20160609 (release) [ARM/embedded-5-br"
 5420      43313120 
 5420      352E342E 
 5420      31203230 
 5420      31363036 
 5421 164a 616E6368 		.ascii	"anch revision 237715] -mcpu=cortex-m4 -mfloat-abi=s"
 5421      20726576 
 5421      6973696F 
 5421      6E203233 
 5421      37373135 
 5422 167d 6F667466 		.ascii	"oftfp -mfpu=fpv4-sp-d16 -mthumb -g -O0 -ffunction-s"
 5422      70202D6D 
 5422      6670753D 
 5422      66707634 
 5422      2D73702D 
 5423 16b0 65637469 		.ascii	"ections -ffat-lto-objects\000"
 5423      6F6E7320 
 5423      2D666661 
 5423      742D6C74 
 5423      6F2D6F62 
 5424              	.LASF401:
 5425 16ca 43795F53 		.ascii	"Cy_SCB_UART_PutArray\000"
 5425      43425F55 
 5425      4152545F 
 5425      50757441 
ARM GAS  C:\Users\LOCALA~1\AppData\Local\Temp\ccJ6EDbl.s 			page 151


 5425      72726179 
 5426              	.LASF54:
 5427 16df 52585F46 		.ascii	"RX_FIFO_RD\000"
 5427      49464F5F 
 5427      524400
 5428              	.LASF268:
 5429 16ea 64726F70 		.ascii	"dropOnFrameError\000"
 5429      4F6E4672 
 5429      616D6545 
 5429      72726F72 
 5429      00
 5430              	.LASF282:
 5431 16fb 72784669 		.ascii	"rxFifoIntEnableMask\000"
 5431      666F496E 
 5431      74456E61 
 5431      626C654D 
 5431      61736B00 
 5432              	.LASF57:
 5433 170f 455A5F44 		.ascii	"EZ_DATA\000"
 5433      41544100 
 5434              	.LASF109:
 5435 1717 69706356 		.ascii	"ipcVersion\000"
 5435      65727369 
 5435      6F6E00
 5436              	.LASF249:
 5437 1722 63795F65 		.ascii	"cy_en_scb_uart_stop_bits_t\000"
 5437      6E5F7363 
 5437      625F7561 
 5437      72745F73 
 5437      746F705F 
 5438              	.LASF198:
 5439 173d 696E7472 		.ascii	"intrMask\000"
 5439      4D61736B 
 5439      00
 5440              	.LASF146:
 5441 1746 70657269 		.ascii	"periTrCmdOffset\000"
 5441      5472436D 
 5441      644F6666 
 5441      73657400 
 5442              	.LASF294:
 5443 1756 72784275 		.ascii	"rxBufSize\000"
 5443      6653697A 
 5443      6500
 5444              	.LASF370:
 5445 1760 4932435F 		.ascii	"I2C_MAX30105_context\000"
 5445      4D415833 
 5445      30313035 
 5445      5F636F6E 
 5445      74657874 
 5446              	.LASF22:
 5447 1775 4354524C 		.ascii	"CTRL\000"
 5447      00
 5448              	.LASF379:
 5449 177a 4649464F 		.ascii	"FIFO_Buffer\000"
 5449      5F427566 
 5449      66657200 
 5450              		.ident	"GCC: (GNU Tools for ARM Embedded Processors) 5.4.1 20160609 (release) [ARM/embedded-5-bran
ARM GAS  C:\Users\LOCALA~1\AppData\Local\Temp\ccJ6EDbl.s 			page 152


